ARM GAS  /tmp/ccDpX9Rb.s 			page 1


   1              		.syntax unified
   2              		.cpu cortex-m3
   3              		.fpu softvfp
   4              		.eabi_attribute 20, 1
   5              		.eabi_attribute 21, 1
   6              		.eabi_attribute 23, 3
   7              		.eabi_attribute 24, 1
   8              		.eabi_attribute 25, 1
   9              		.eabi_attribute 26, 1
  10              		.eabi_attribute 30, 2
  11              		.eabi_attribute 34, 1
  12              		.eabi_attribute 18, 4
  13              		.thumb
  14              		.file	"board.c"
  15              		.text
  16              	.Ltext0:
  17              		.cfi_sections	.debug_frame
  18              		.section	.text.__early_init,"ax",%progbits
  19              		.align	2
  20              		.global	__early_init
  21              		.thumb
  22              		.thumb_func
  23              		.type	__early_init, %function
  24              	__early_init:
  25              	.LFB63:
  26              		.file 1 "../../boards/AKAIKABA_LPC1768/board.c"
  27              		.loc 1 42 0
  28              		.cfi_startproc
  29              		@ args = 0, pretend = 0, frame = 0
  30              		@ frame_needed = 0, uses_anonymous_args = 0
  31 0000 38B5     		push	{r3, r4, r5, lr}
  32              		.cfi_def_cfa_offset 16
  33              		.cfi_offset 3, -16
  34              		.cfi_offset 4, -12
  35              		.cfi_offset 5, -8
  36              		.cfi_offset 14, -4
  37              		.loc 1 45 0
  38 0002 FFF7FEFF 		bl	SystemInit
  39              	.LVL0:
  40              	.LBB8:
  41              	.LBB9:
  42              		.file 2 "../../os/ports/common/ARMCMx/CMSIS/include/core_cm3.h"
  43              		.loc 2 1521 0
  44 0006 4EF21003 		movw	r3, #57360
  45 000a 48F29F61 		movw	r1, #34463
  46              	.LBB10:
  47              	.LBB11:
  48              		.loc 2 1393 0
  49 000e 4FF46D42 		mov	r2, #60672
  50              	.LBE11:
  51              	.LBE10:
  52              		.loc 2 1521 0
  53 0012 CEF20003 		movt	r3, 57344
  54 0016 C0F20101 		movt	r1, 1
  55              	.LBB14:
  56              	.LBB12:
  57              		.loc 2 1393 0
ARM GAS  /tmp/ccDpX9Rb.s 			page 2


  58 001a CEF20002 		movt	r2, 57344
  59 001e F825     		movs	r5, #248
  60              	.LBE12:
  61              	.LBE14:
  62              		.loc 2 1521 0
  63 0020 5960     		str	r1, [r3, #4]
  64              	.LVL1:
  65              		.loc 2 1523 0
  66 0022 0024     		movs	r4, #0
  67              	.LBB15:
  68              	.LBB13:
  69              		.loc 2 1393 0
  70 0024 82F82350 		strb	r5, [r2, #35]
  71              	.LBE13:
  72              	.LBE15:
  73              		.loc 2 1524 0
  74 0028 0720     		movs	r0, #7
  75              		.loc 2 1523 0
  76 002a 9C60     		str	r4, [r3, #8]
  77              		.loc 2 1524 0
  78 002c 1860     		str	r0, [r3]
  79 002e 38BD     		pop	{r3, r4, r5, pc}
  80              	.LBE9:
  81              	.LBE8:
  82              		.cfi_endproc
  83              	.LFE63:
  84              		.size	__early_init, .-__early_init
  85              		.section	.text.boardInit,"ax",%progbits
  86              		.align	2
  87              		.global	boardInit
  88              		.thumb
  89              		.thumb_func
  90              		.type	boardInit, %function
  91              	boardInit:
  92              	.LFB64:
  93              		.loc 1 52 0
  94              		.cfi_startproc
  95              		@ args = 0, pretend = 0, frame = 0
  96              		@ frame_needed = 0, uses_anonymous_args = 0
  97              		@ link register save eliminated.
  98 0000 7047     		bx	lr
  99              		.cfi_endproc
 100              	.LFE64:
 101              		.size	boardInit, .-boardInit
 102 0002 00BF     		.text
 103              	.Letext0:
 104              		.file 3 "/home/daniofb/arm-cm3-eabi/arm-cm3-eabi/sys-include/stdint.h"
 105              		.file 4 "../../boards/AKAIKABA_LPC1768/LPC17xx.h"
 106              		.file 5 "../../boards/AKAIKABA_LPC1768/system_LPC17xx.h"