ARM GAS  /tmp/ccGKZavF.s 			page 1


   1              		.syntax unified
   2              		.cpu cortex-m3
   3              		.fpu softvfp
   4              		.eabi_attribute 20, 1
   5              		.eabi_attribute 21, 1
   6              		.eabi_attribute 23, 3
   7              		.eabi_attribute 24, 1
   8              		.eabi_attribute 25, 1
   9              		.eabi_attribute 26, 1
  10              		.eabi_attribute 30, 2
  11              		.eabi_attribute 34, 1
  12              		.eabi_attribute 18, 4
  13              		.thumb
  14              		.file	"chcond.c"
  15              		.text
  16              	.Ltext0:
  17              		.cfi_sections	.debug_frame
  18              		.section	.text.chCondInit,"ax",%progbits
  19              		.align	2
  20              		.global	chCondInit
  21              		.thumb
  22              		.thumb_func
  23              		.type	chCondInit, %function
  24              	chCondInit:
  25              	.LFB7:
  26              		.file 1 "../../os/kernel/src/chcond.c"
  27              		.loc 1 52 0
  28              		.cfi_startproc
  29              		@ args = 0, pretend = 0, frame = 0
  30              		@ frame_needed = 0, uses_anonymous_args = 0
  31              		@ link register save eliminated.
  32              	.LVL0:
  33              		.loc 1 56 0
  34 0000 4060     		str	r0, [r0, #4]
  35 0002 0060     		str	r0, [r0]
  36 0004 7047     		bx	lr
  37              		.cfi_endproc
  38              	.LFE7:
  39              		.size	chCondInit, .-chCondInit
  40 0006 00BF     		.section	.text.chCondSignal,"ax",%progbits
  41              		.align	2
  42              		.global	chCondSignal
  43              		.thumb
  44              		.thumb_func
  45              		.type	chCondSignal, %function
  46              	chCondSignal:
  47              	.LFB8:
  48              		.loc 1 66 0
  49              		.cfi_startproc
  50              		@ args = 0, pretend = 0, frame = 0
  51              		@ frame_needed = 0, uses_anonymous_args = 0
  52              	.LVL1:
  53 0000 08B5     		push	{r3, lr}
  54              		.cfi_def_cfa_offset 8
  55              		.cfi_offset 3, -8
  56              		.cfi_offset 14, -4
  57              		.loc 1 66 0
ARM GAS  /tmp/ccGKZavF.s 			page 2


  58 0002 0246     		mov	r2, r0
  59              	.LBB14:
  60              		.loc 1 70 0
  61 0004 4023     		movs	r3, #64
  62              	@ 70 "../../os/kernel/src/chcond.c" 1
  63 0006 83F31188 		msr     BASEPRI, r3
  64              	@ 0 "" 2
  65              		.thumb
  66              	.LBE14:
  67              		.loc 1 71 0
  68 000a 0068     		ldr	r0, [r0]
  69              	.LVL2:
  70 000c 9042     		cmp	r0, r2
  71 000e 05D0     		beq	.L3
  72              	.LVL3:
  73              	.LBB15:
  74              	.LBB16:
  75              		.file 2 "../../os/kernel/include/chinline.h"
  76              		.loc 2 55 0
  77 0010 0368     		ldr	r3, [r0]
  78              	.LBE16:
  79              	.LBE15:
  80              		.loc 1 72 0
  81 0012 0021     		movs	r1, #0
  82              	.LBB18:
  83              	.LBB17:
  84              		.loc 2 55 0
  85 0014 1360     		str	r3, [r2]
  86 0016 5A60     		str	r2, [r3, #4]
  87              	.LBE17:
  88              	.LBE18:
  89              		.loc 1 72 0
  90 0018 FFF7FEFF 		bl	chSchWakeupS
  91              	.LVL4:
  92              	.L3:
  93              	.LBB19:
  94              		.loc 1 73 0
  95 001c 0023     		movs	r3, #0
  96              	@ 73 "../../os/kernel/src/chcond.c" 1
  97 001e 83F31188 		msr     BASEPRI, r3
  98              	@ 0 "" 2
  99              		.thumb
 100 0022 08BD     		pop	{r3, pc}
 101              	.LBE19:
 102              		.cfi_endproc
 103              	.LFE8:
 104              		.size	chCondSignal, .-chCondSignal
 105              		.section	.text.chCondSignalI,"ax",%progbits
 106              		.align	2
 107              		.global	chCondSignalI
 108              		.thumb
 109              		.thumb_func
 110              		.type	chCondSignalI, %function
 111              	chCondSignalI:
 112              	.LFB9:
 113              		.loc 1 87 0
 114              		.cfi_startproc
ARM GAS  /tmp/ccGKZavF.s 			page 3


 115              		@ args = 0, pretend = 0, frame = 0
 116              		@ frame_needed = 0, uses_anonymous_args = 0
 117              	.LVL5:
 118 0000 08B5     		push	{r3, lr}
 119              		.cfi_def_cfa_offset 8
 120              		.cfi_offset 3, -8
 121              		.cfi_offset 14, -4
 122              		.loc 1 87 0
 123 0002 0346     		mov	r3, r0
 124              		.loc 1 92 0
 125 0004 0068     		ldr	r0, [r0]
 126              	.LVL6:
 127 0006 9842     		cmp	r0, r3
 128 0008 06D0     		beq	.L5
 129              	.LVL7:
 130              	.LBB20:
 131              	.LBB21:
 132              		.loc 2 55 0
 133 000a 0268     		ldr	r2, [r0]
 134 000c 1A60     		str	r2, [r3]
 135 000e 5360     		str	r3, [r2, #4]
 136              	.LBE21:
 137              	.LBE20:
 138              		.loc 1 93 0
 139 0010 FFF7FEFF 		bl	chSchReadyI
 140              	.LVL8:
 141 0014 0023     		movs	r3, #0
 142 0016 4362     		str	r3, [r0, #36]
 143              	.LVL9:
 144              	.L5:
 145 0018 08BD     		pop	{r3, pc}
 146              		.cfi_endproc
 147              	.LFE9:
 148              		.size	chCondSignalI, .-chCondSignalI
 149 001a 00BF     		.section	.text.chCondBroadcastI,"ax",%progbits
 150              		.align	2
 151              		.global	chCondBroadcastI
 152              		.thumb
 153              		.thumb_func
 154              		.type	chCondBroadcastI, %function
 155              	chCondBroadcastI:
 156              	.LFB11:
 157              		.loc 1 122 0
 158              		.cfi_startproc
 159              		@ args = 0, pretend = 0, frame = 0
 160              		@ frame_needed = 0, uses_anonymous_args = 0
 161              	.LVL10:
 162 0000 38B5     		push	{r3, r4, r5, lr}
 163              		.cfi_def_cfa_offset 16
 164              		.cfi_offset 3, -16
 165              		.cfi_offset 4, -12
 166              		.cfi_offset 5, -8
 167              		.cfi_offset 14, -4
 168              		.loc 1 122 0
 169 0002 0446     		mov	r4, r0
 170              		.loc 1 130 0
 171 0004 0068     		ldr	r0, [r0]
ARM GAS  /tmp/ccGKZavF.s 			page 4


 172              	.LVL11:
 173 0006 A042     		cmp	r0, r4
 174 0008 0AD0     		beq	.L7
 175              		.loc 1 131 0
 176 000a 6FF00105 		mvn	r5, #1
 177              	.L10:
 178              	.LVL12:
 179              	.LBB22:
 180              	.LBB23:
 181              		.loc 2 55 0
 182 000e 0368     		ldr	r3, [r0]
 183 0010 2360     		str	r3, [r4]
 184 0012 5C60     		str	r4, [r3, #4]
 185              	.LBE23:
 186              	.LBE22:
 187              		.loc 1 131 0
 188 0014 FFF7FEFF 		bl	chSchReadyI
 189              	.LVL13:
 190 0018 4562     		str	r5, [r0, #36]
 191              		.loc 1 130 0
 192 001a 2068     		ldr	r0, [r4]
 193 001c A042     		cmp	r0, r4
 194 001e F6D1     		bne	.L10
 195              	.LVL14:
 196              	.L7:
 197 0020 38BD     		pop	{r3, r4, r5, pc}
 198              		.cfi_endproc
 199              	.LFE11:
 200              		.size	chCondBroadcastI, .-chCondBroadcastI
 201 0022 00BF     		.section	.text.chCondBroadcast,"ax",%progbits
 202              		.align	2
 203              		.global	chCondBroadcast
 204              		.thumb
 205              		.thumb_func
 206              		.type	chCondBroadcast, %function
 207              	chCondBroadcast:
 208              	.LFB10:
 209              		.loc 1 103 0
 210              		.cfi_startproc
 211              		@ args = 0, pretend = 0, frame = 0
 212              		@ frame_needed = 0, uses_anonymous_args = 0
 213              	.LVL15:
 214 0000 08B5     		push	{r3, lr}
 215              		.cfi_def_cfa_offset 8
 216              		.cfi_offset 3, -8
 217              		.cfi_offset 14, -4
 218              	.LBB24:
 219              		.loc 1 105 0
 220 0002 4023     		movs	r3, #64
 221              	@ 105 "../../os/kernel/src/chcond.c" 1
 222 0004 83F31188 		msr     BASEPRI, r3
 223              	@ 0 "" 2
 224              		.thumb
 225              	.LBE24:
 226              		.loc 1 106 0
 227 0008 FFF7FEFF 		bl	chCondBroadcastI
 228              	.LVL16:
ARM GAS  /tmp/ccGKZavF.s 			page 5


 229              		.loc 1 107 0
 230 000c FFF7FEFF 		bl	chSchRescheduleS
 231              	.LVL17:
 232              	.LBB25:
 233              		.loc 1 108 0
 234 0010 0023     		movs	r3, #0
 235              	@ 108 "../../os/kernel/src/chcond.c" 1
 236 0012 83F31188 		msr     BASEPRI, r3
 237              	@ 0 "" 2
 238              		.thumb
 239 0016 08BD     		pop	{r3, pc}
 240              	.LBE25:
 241              		.cfi_endproc
 242              	.LFE10:
 243              		.size	chCondBroadcast, .-chCondBroadcast
 244              		.section	.text.chCondWaitS,"ax",%progbits
 245              		.align	2
 246              		.global	chCondWaitS
 247              		.thumb
 248              		.thumb_func
 249              		.type	chCondWaitS, %function
 250              	chCondWaitS:
 251              	.LFB13:
 252              		.loc 1 177 0
 253              		.cfi_startproc
 254              		@ args = 0, pretend = 0, frame = 0
 255              		@ frame_needed = 0, uses_anonymous_args = 0
 256              	.LVL18:
 257              		.loc 1 178 0
 258 0000 40F20003 		movw	r3, #:lower16:rlist
 259              		.loc 1 177 0
 260 0004 70B5     		push	{r4, r5, r6, lr}
 261              		.cfi_def_cfa_offset 16
 262              		.cfi_offset 4, -16
 263              		.cfi_offset 5, -12
 264              		.cfi_offset 6, -8
 265              		.cfi_offset 14, -4
 266              		.loc 1 178 0
 267 0006 C0F20003 		movt	r3, #:upper16:rlist
 268 000a 9C69     		ldr	r4, [r3, #24]
 269              	.LVL19:
 270              		.loc 1 177 0
 271 000c 0546     		mov	r5, r0
 272              		.loc 1 188 0
 273 000e FFF7FEFF 		bl	chMtxUnlockS
 274              	.LVL20:
 275              		.loc 1 189 0
 276 0012 6562     		str	r5, [r4, #36]
 277              		.loc 1 188 0
 278 0014 0646     		mov	r6, r0
 279              	.LVL21:
 280              	.LBB26:
 281              	.LBB27:
 282              		.loc 2 36 0
 283 0016 2B46     		mov	r3, r5
 284 0018 03E0     		b	.L15
 285              	.LVL22:
ARM GAS  /tmp/ccGKZavF.s 			page 6


 286              	.L17:
 287              		.loc 2 39 0
 288 001a 9968     		ldr	r1, [r3, #8]
 289 001c A268     		ldr	r2, [r4, #8]
 290 001e 9142     		cmp	r1, r2
 291 0020 02D3     		bcc	.L14
 292              	.L15:
 293              		.loc 2 38 0
 294 0022 1B68     		ldr	r3, [r3]
 295              	.LVL23:
 296              		.loc 2 39 0
 297 0024 9D42     		cmp	r5, r3
 298 0026 F8D1     		bne	.L17
 299              	.L14:
 300              		.loc 2 41 0
 301 0028 5A68     		ldr	r2, [r3, #4]
 302              	.LBE27:
 303              	.LBE26:
 304              		.loc 1 191 0
 305 002a 0520     		movs	r0, #5
 306              	.LVL24:
 307              	.LBB29:
 308              	.LBB28:
 309              		.loc 2 40 0
 310 002c 2360     		str	r3, [r4]
 311              		.loc 2 41 0
 312 002e 6260     		str	r2, [r4, #4]
 313              		.loc 2 42 0
 314 0030 5C60     		str	r4, [r3, #4]
 315 0032 1460     		str	r4, [r2]
 316              	.LBE28:
 317              	.LBE29:
 318              		.loc 1 191 0
 319 0034 FFF7FEFF 		bl	chSchGoSleepS
 320              	.LVL25:
 321              		.loc 1 192 0
 322 0038 646A     		ldr	r4, [r4, #36]
 323              	.LVL26:
 324              		.loc 1 193 0
 325 003a 3046     		mov	r0, r6
 326 003c FFF7FEFF 		bl	chMtxLockS
 327              	.LVL27:
 328              		.loc 1 195 0
 329 0040 2046     		mov	r0, r4
 330 0042 70BD     		pop	{r4, r5, r6, pc}
 331              		.cfi_endproc
 332              	.LFE13:
 333              		.size	chCondWaitS, .-chCondWaitS
 334              		.section	.text.chCondWait,"ax",%progbits
 335              		.align	2
 336              		.global	chCondWait
 337              		.thumb
 338              		.thumb_func
 339              		.type	chCondWait, %function
 340              	chCondWait:
 341              	.LFB12:
 342              		.loc 1 151 0
ARM GAS  /tmp/ccGKZavF.s 			page 7


 343              		.cfi_startproc
 344              		@ args = 0, pretend = 0, frame = 0
 345              		@ frame_needed = 0, uses_anonymous_args = 0
 346              	.LVL28:
 347 0000 08B5     		push	{r3, lr}
 348              		.cfi_def_cfa_offset 8
 349              		.cfi_offset 3, -8
 350              		.cfi_offset 14, -4
 351              	.LBB30:
 352              		.loc 1 154 0
 353 0002 4023     		movs	r3, #64
 354              	@ 154 "../../os/kernel/src/chcond.c" 1
 355 0004 83F31188 		msr     BASEPRI, r3
 356              	@ 0 "" 2
 357              		.thumb
 358              	.LBE30:
 359              		.loc 1 155 0
 360 0008 FFF7FEFF 		bl	chCondWaitS
 361              	.LVL29:
 362              	.LBB31:
 363              		.loc 1 156 0
 364 000c 0023     		movs	r3, #0
 365              	@ 156 "../../os/kernel/src/chcond.c" 1
 366 000e 83F31188 		msr     BASEPRI, r3
 367              	@ 0 "" 2
 368              		.thumb
 369              	.LBE31:
 370              		.loc 1 158 0
 371 0012 08BD     		pop	{r3, pc}
 372              		.cfi_endproc
 373              	.LFE12:
 374              		.size	chCondWait, .-chCondWait
 375              		.section	.text.chCondWaitTimeoutS,"ax",%progbits
 376              		.align	2
 377              		.global	chCondWaitTimeoutS
 378              		.thumb
 379              		.thumb_func
 380              		.type	chCondWaitTimeoutS, %function
 381              	chCondWaitTimeoutS:
 382              	.LFB15:
 383              		.loc 1 263 0
 384              		.cfi_startproc
 385              		@ args = 0, pretend = 0, frame = 0
 386              		@ frame_needed = 0, uses_anonymous_args = 0
 387              	.LVL30:
 388 0000 2DE9F041 		push	{r4, r5, r6, r7, r8, lr}
 389              		.cfi_def_cfa_offset 24
 390              		.cfi_offset 4, -24
 391              		.cfi_offset 5, -20
 392              		.cfi_offset 6, -16
 393              		.cfi_offset 7, -12
 394              		.cfi_offset 8, -8
 395              		.cfi_offset 14, -4
 396              		.loc 1 263 0
 397 0004 0646     		mov	r6, r0
 398 0006 8846     		mov	r8, r1
 399              		.loc 1 273 0
ARM GAS  /tmp/ccGKZavF.s 			page 8


 400 0008 FFF7FEFF 		bl	chMtxUnlockS
 401              	.LVL31:
 402              		.loc 1 274 0
 403 000c 40F20003 		movw	r3, #:lower16:rlist
 404 0010 C0F20003 		movt	r3, #:upper16:rlist
 405 0014 9D69     		ldr	r5, [r3, #24]
 406              		.loc 1 273 0
 407 0016 0746     		mov	r7, r0
 408              	.LVL32:
 409              	.LBB32:
 410              	.LBB33:
 411              		.loc 2 36 0
 412 0018 3346     		mov	r3, r6
 413              	.LBE33:
 414              	.LBE32:
 415              		.loc 1 274 0
 416 001a 6E62     		str	r6, [r5, #36]
 417              	.LVL33:
 418 001c 03E0     		b	.L24
 419              	.LVL34:
 420              	.L20:
 421              	.LBB37:
 422              	.LBB34:
 423              		.loc 2 39 0
 424 001e 9C68     		ldr	r4, [r3, #8]
 425 0020 AA68     		ldr	r2, [r5, #8]
 426 0022 9442     		cmp	r4, r2
 427 0024 02D3     		bcc	.L23
 428              	.L24:
 429              		.loc 2 38 0
 430 0026 1B68     		ldr	r3, [r3]
 431              	.LVL35:
 432              		.loc 2 39 0
 433 0028 9E42     		cmp	r6, r3
 434 002a F8D1     		bne	.L20
 435              	.L23:
 436              		.loc 2 41 0
 437 002c 5A68     		ldr	r2, [r3, #4]
 438              	.LBE34:
 439              	.LBE37:
 440              		.loc 1 276 0
 441 002e 4146     		mov	r1, r8
 442              	.LBB38:
 443              	.LBB35:
 444              		.loc 2 40 0
 445 0030 2B60     		str	r3, [r5]
 446              		.loc 2 41 0
 447 0032 6A60     		str	r2, [r5, #4]
 448              	.LBE35:
 449              	.LBE38:
 450              		.loc 1 276 0
 451 0034 0520     		movs	r0, #5
 452              	.LVL36:
 453              	.LBB39:
 454              	.LBB36:
 455              		.loc 2 42 0
 456 0036 5D60     		str	r5, [r3, #4]
ARM GAS  /tmp/ccGKZavF.s 			page 9


 457 0038 1560     		str	r5, [r2]
 458              	.LBE36:
 459              	.LBE39:
 460              		.loc 1 276 0
 461 003a FFF7FEFF 		bl	chSchGoSleepTimeoutS
 462              	.LVL37:
 463              		.loc 1 277 0
 464 003e 431C     		adds	r3, r0, #1
 465              		.loc 1 276 0
 466 0040 0446     		mov	r4, r0
 467              	.LVL38:
 468              		.loc 1 277 0
 469 0042 02D0     		beq	.L22
 470              		.loc 1 278 0
 471 0044 3846     		mov	r0, r7
 472              	.LVL39:
 473 0046 FFF7FEFF 		bl	chMtxLockS
 474              	.LVL40:
 475              	.L22:
 476              		.loc 1 280 0
 477 004a 2046     		mov	r0, r4
 478 004c BDE8F081 		pop	{r4, r5, r6, r7, r8, pc}
 479              		.cfi_endproc
 480              	.LFE15:
 481              		.size	chCondWaitTimeoutS, .-chCondWaitTimeoutS
 482              		.section	.text.chCondWaitTimeout,"ax",%progbits
 483              		.align	2
 484              		.global	chCondWaitTimeout
 485              		.thumb
 486              		.thumb_func
 487              		.type	chCondWaitTimeout, %function
 488              	chCondWaitTimeout:
 489              	.LFB14:
 490              		.loc 1 226 0
 491              		.cfi_startproc
 492              		@ args = 0, pretend = 0, frame = 0
 493              		@ frame_needed = 0, uses_anonymous_args = 0
 494              	.LVL41:
 495 0000 08B5     		push	{r3, lr}
 496              		.cfi_def_cfa_offset 8
 497              		.cfi_offset 3, -8
 498              		.cfi_offset 14, -4
 499              	.LBB40:
 500              		.loc 1 229 0
 501 0002 4023     		movs	r3, #64
 502              	@ 229 "../../os/kernel/src/chcond.c" 1
 503 0004 83F31188 		msr     BASEPRI, r3
 504              	@ 0 "" 2
 505              		.thumb
 506              	.LBE40:
 507              		.loc 1 230 0
 508 0008 FFF7FEFF 		bl	chCondWaitTimeoutS
 509              	.LVL42:
 510              	.LBB41:
 511              		.loc 1 231 0
 512 000c 0023     		movs	r3, #0
 513              	@ 231 "../../os/kernel/src/chcond.c" 1
ARM GAS  /tmp/ccGKZavF.s 			page 10


 514 000e 83F31188 		msr     BASEPRI, r3
 515              	@ 0 "" 2
 516              		.thumb
 517              	.LBE41:
 518              		.loc 1 233 0
 519 0012 08BD     		pop	{r3, pc}
 520              		.cfi_endproc
 521              	.LFE14:
 522              		.size	chCondWaitTimeout, .-chCondWaitTimeout
 523              		.text
 524              	.Letext0:
 525              		.file 3 "/home/daniofb/arm-cm3-eabi/arm-cm3-eabi/sys-include/stdint.h"
 526              		.file 4 "../../os/ports/GCC/ARMCMx/chtypes.h"
 527              		.file 5 "../../os/kernel/include/chlists.h"
 528              		.file 6 "../../os/kernel/include/chthreads.h"
 529              		.file 7 "../../os/ports/GCC/ARMCMx/chcore_v7m.h"
 530              		.file 8 "../../os/kernel/include/chschd.h"
 531              		.file 9 "../../os/kernel/include/chmtx.h"
 532              		.file 10 "../../os/kernel/include/chcond.h"