ARM GAS  /tmp/ccwIUzsl.s 			page 1


   1              		.syntax unified
   2              		.cpu cortex-m3
   3              		.fpu softvfp
   4              		.eabi_attribute 20, 1
   5              		.eabi_attribute 21, 1
   6              		.eabi_attribute 23, 3
   7              		.eabi_attribute 24, 1
   8              		.eabi_attribute 25, 1
   9              		.eabi_attribute 26, 1
  10              		.eabi_attribute 30, 2
  11              		.eabi_attribute 34, 1
  12              		.eabi_attribute 18, 4
  13              		.thumb
  14              		.file	"chdynamic.c"
  15              		.text
  16              	.Ltext0:
  17              		.cfi_sections	.debug_frame
  18              		.section	.text.chThdAddRef,"ax",%progbits
  19              		.align	2
  20              		.global	chThdAddRef
  21              		.thumb
  22              		.thumb_func
  23              		.type	chThdAddRef, %function
  24              	chThdAddRef:
  25              	.LFB7:
  26              		.file 1 "../../os/kernel/src/chdynamic.c"
  27              		.loc 1 45 0
  28              		.cfi_startproc
  29              		@ args = 0, pretend = 0, frame = 0
  30              		@ frame_needed = 0, uses_anonymous_args = 0
  31              		@ link register save eliminated.
  32              	.LVL0:
  33              	.LBB2:
  34              		.loc 1 47 0
  35 0000 4023     		movs	r3, #64
  36              	@ 47 "../../os/kernel/src/chdynamic.c" 1
  37 0002 83F31188 		msr     BASEPRI, r3
  38              	@ 0 "" 2
  39              		.thumb
  40              	.LBE2:
  41              		.loc 1 49 0
  42 0006 827F     		ldrb	r2, [r0, #30]	@ zero_extendqisi2
  43              	.LBB3:
  44              		.loc 1 50 0
  45 0008 0023     		movs	r3, #0
  46              	.LBE3:
  47              		.loc 1 49 0
  48 000a 0132     		adds	r2, r2, #1
  49 000c 8277     		strb	r2, [r0, #30]
  50              	.LBB4:
  51              		.loc 1 50 0
  52              	@ 50 "../../os/kernel/src/chdynamic.c" 1
  53 000e 83F31188 		msr     BASEPRI, r3
  54              	@ 0 "" 2
  55              		.thumb
  56              	.LBE4:
  57              		.loc 1 52 0
ARM GAS  /tmp/ccwIUzsl.s 			page 2


  58 0012 7047     		bx	lr
  59              		.cfi_endproc
  60              	.LFE7:
  61              		.size	chThdAddRef, .-chThdAddRef
  62              		.section	.text.chThdRelease,"ax",%progbits
  63              		.align	2
  64              		.global	chThdRelease
  65              		.thumb
  66              		.thumb_func
  67              		.type	chThdRelease, %function
  68              	chThdRelease:
  69              	.LFB8:
  70              		.loc 1 67 0
  71              		.cfi_startproc
  72              		@ args = 0, pretend = 0, frame = 0
  73              		@ frame_needed = 0, uses_anonymous_args = 0
  74              		@ link register save eliminated.
  75              	.LVL1:
  76              		.loc 1 67 0
  77 0000 0146     		mov	r1, r0
  78              	.LBB5:
  79              		.loc 1 70 0
  80 0002 4023     		movs	r3, #64
  81              	@ 70 "../../os/kernel/src/chdynamic.c" 1
  82 0004 83F31188 		msr     BASEPRI, r3
  83              	@ 0 "" 2
  84              		.thumb
  85              	.LBE5:
  86              		.loc 1 72 0
  87 0008 827F     		ldrb	r2, [r0, #30]	@ zero_extendqisi2
  88              	.LBB6:
  89              		.loc 1 73 0
  90 000a 0023     		movs	r3, #0
  91              	.LBE6:
  92              		.loc 1 72 0
  93 000c 013A     		subs	r2, r2, #1
  94 000e D2B2     		uxtb	r2, r2
  95 0010 8277     		strb	r2, [r0, #30]
  96              	.LVL2:
  97              	.LBB7:
  98              		.loc 1 73 0
  99              	@ 73 "../../os/kernel/src/chdynamic.c" 1
 100 0012 83F31188 		msr     BASEPRI, r3
 101              	@ 0 "" 2
 102              		.thumb
 103              	.LBE7:
 104              		.loc 1 78 0
 105 0016 12B9     		cbnz	r2, .L2
 106              		.loc 1 78 0 is_stmt 0 discriminator 1
 107 0018 037F     		ldrb	r3, [r0, #28]	@ zero_extendqisi2
 108 001a 0E2B     		cmp	r3, #14
 109 001c 00D0     		beq	.L7
 110              	.L2:
 111 001e 7047     		bx	lr
 112              	.L7:
 113              		.loc 1 79 0 is_stmt 1
 114 0020 437F     		ldrb	r3, [r0, #29]	@ zero_extendqisi2
ARM GAS  /tmp/ccwIUzsl.s 			page 3


 115 0022 03F00303 		and	r3, r3, #3
 116 0026 012B     		cmp	r3, #1
 117 0028 02D0     		beq	.L4
 118 002a 022B     		cmp	r3, #2
 119 002c 07D0     		beq	.L5
 120 002e 7047     		bx	lr
 121              	.L4:
 122              		.loc 1 83 0
 123 0030 0269     		ldr	r2, [r0, #16]
 124              	.LVL3:
 125 0032 4369     		ldr	r3, [r0, #20]
 126 0034 1A61     		str	r2, [r3, #16]
 127 0036 0A69     		ldr	r2, [r1, #16]
 128 0038 5361     		str	r3, [r2, #20]
 129              		.loc 1 85 0
 130 003a FFF7FEBF 		b	chHeapFree
 131              	.LVL4:
 132              	.L5:
 133              		.loc 1 91 0
 134 003e 0269     		ldr	r2, [r0, #16]
 135              	.LVL5:
 136 0040 4369     		ldr	r3, [r0, #20]
 137              		.loc 1 93 0
 138 0042 406C     		ldr	r0, [r0, #68]
 139              	.LVL6:
 140              		.loc 1 91 0
 141 0044 1A61     		str	r2, [r3, #16]
 142 0046 0A69     		ldr	r2, [r1, #16]
 143 0048 5361     		str	r3, [r2, #20]
 144              		.loc 1 93 0
 145 004a FFF7FEBF 		b	chPoolFree
 146              	.LVL7:
 147              		.cfi_endproc
 148              	.LFE8:
 149              		.size	chThdRelease, .-chThdRelease
 150 004e 00BF     		.section	.text.chThdCreateFromHeap,"ax",%progbits
 151              		.align	2
 152              		.global	chThdCreateFromHeap
 153              		.thumb
 154              		.thumb_func
 155              		.type	chThdCreateFromHeap, %function
 156              	chThdCreateFromHeap:
 157              	.LFB9:
 158              		.loc 1 124 0
 159              		.cfi_startproc
 160              		@ args = 4, pretend = 0, frame = 0
 161              		@ frame_needed = 0, uses_anonymous_args = 0
 162              	.LVL8:
 163 0000 70B5     		push	{r4, r5, r6, lr}
 164              		.cfi_def_cfa_offset 16
 165              		.cfi_offset 4, -16
 166              		.cfi_offset 5, -12
 167              		.cfi_offset 6, -8
 168              		.cfi_offset 14, -4
 169 0002 82B0     		sub	sp, sp, #8
 170              		.cfi_def_cfa_offset 24
 171              		.loc 1 124 0
ARM GAS  /tmp/ccwIUzsl.s 			page 4


 172 0004 1646     		mov	r6, r2
 173 0006 1C46     		mov	r4, r3
 174 0008 0D46     		mov	r5, r1
 175              		.loc 1 128 0
 176 000a FFF7FEFF 		bl	chHeapAlloc
 177              	.LVL9:
 178              		.loc 1 129 0
 179 000e 98B1     		cbz	r0, .L9
 180              	.LBB8:
 181              		.loc 1 141 0
 182 0010 4023     		movs	r3, #64
 183              	@ 141 "../../os/kernel/src/chdynamic.c" 1
 184 0012 83F31188 		msr     BASEPRI, r3
 185              	@ 0 "" 2
 186              		.thumb
 187              	.LBE8:
 188              		.loc 1 142 0
 189 0016 069B     		ldr	r3, [sp, #24]
 190 0018 2946     		mov	r1, r5
 191 001a 0093     		str	r3, [sp]
 192 001c 3246     		mov	r2, r6
 193 001e 2346     		mov	r3, r4
 194 0020 FFF7FEFF 		bl	chThdCreateI
 195              	.LVL10:
 196              		.loc 1 143 0
 197 0024 0123     		movs	r3, #1
 198 0026 4377     		strb	r3, [r0, #29]
 199              		.loc 1 144 0
 200 0028 0021     		movs	r1, #0
 201              		.loc 1 142 0
 202 002a 0446     		mov	r4, r0
 203              	.LVL11:
 204              		.loc 1 144 0
 205 002c FFF7FEFF 		bl	chSchWakeupS
 206              	.LVL12:
 207              	.LBB9:
 208              		.loc 1 145 0
 209 0030 0023     		movs	r3, #0
 210              	@ 145 "../../os/kernel/src/chdynamic.c" 1
 211 0032 83F31188 		msr     BASEPRI, r3
 212              	@ 0 "" 2
 213              		.thumb
 214              	.LBE9:
 215              		.loc 1 146 0
 216 0036 2046     		mov	r0, r4
 217              	.LVL13:
 218              	.L9:
 219              		.loc 1 147 0
 220 0038 02B0     		add	sp, sp, #8
 221              		@ sp needed
 222 003a 70BD     		pop	{r4, r5, r6, pc}
 223              		.cfi_endproc
 224              	.LFE9:
 225              		.size	chThdCreateFromHeap, .-chThdCreateFromHeap
 226              		.section	.text.chThdCreateFromMemoryPool,"ax",%progbits
 227              		.align	2
 228              		.global	chThdCreateFromMemoryPool
ARM GAS  /tmp/ccwIUzsl.s 			page 5


 229              		.thumb
 230              		.thumb_func
 231              		.type	chThdCreateFromMemoryPool, %function
 232              	chThdCreateFromMemoryPool:
 233              	.LFB10:
 234              		.loc 1 173 0
 235              		.cfi_startproc
 236              		@ args = 0, pretend = 0, frame = 0
 237              		@ frame_needed = 0, uses_anonymous_args = 0
 238              	.LVL14:
 239 0000 F0B5     		push	{r4, r5, r6, r7, lr}
 240              		.cfi_def_cfa_offset 20
 241              		.cfi_offset 4, -20
 242              		.cfi_offset 5, -16
 243              		.cfi_offset 6, -12
 244              		.cfi_offset 7, -8
 245              		.cfi_offset 14, -4
 246 0002 83B0     		sub	sp, sp, #12
 247              		.cfi_def_cfa_offset 32
 248              		.loc 1 173 0
 249 0004 0F46     		mov	r7, r1
 250 0006 1446     		mov	r4, r2
 251 0008 1E46     		mov	r6, r3
 252 000a 0546     		mov	r5, r0
 253              		.loc 1 179 0
 254 000c FFF7FEFF 		bl	chPoolAlloc
 255              	.LVL15:
 256              		.loc 1 180 0
 257 0010 98B1     		cbz	r0, .L12
 258              	.LBB10:
 259              		.loc 1 192 0
 260 0012 4023     		movs	r3, #64
 261              	@ 192 "../../os/kernel/src/chdynamic.c" 1
 262 0014 83F31188 		msr     BASEPRI, r3
 263              	@ 0 "" 2
 264              		.thumb
 265              	.LBE10:
 266              		.loc 1 193 0
 267 0018 6968     		ldr	r1, [r5, #4]
 268 001a 3A46     		mov	r2, r7
 269 001c 2346     		mov	r3, r4
 270 001e 0096     		str	r6, [sp]
 271 0020 FFF7FEFF 		bl	chThdCreateI
 272              	.LVL16:
 273              		.loc 1 194 0
 274 0024 0223     		movs	r3, #2
 275 0026 4377     		strb	r3, [r0, #29]
 276              		.loc 1 195 0
 277 0028 4564     		str	r5, [r0, #68]
 278              		.loc 1 196 0
 279 002a 0021     		movs	r1, #0
 280              		.loc 1 193 0
 281 002c 0446     		mov	r4, r0
 282              	.LVL17:
 283              		.loc 1 196 0
 284 002e FFF7FEFF 		bl	chSchWakeupS
 285              	.LVL18:
ARM GAS  /tmp/ccwIUzsl.s 			page 6


 286              	.LBB11:
 287              		.loc 1 197 0
 288 0032 0023     		movs	r3, #0
 289              	@ 197 "../../os/kernel/src/chdynamic.c" 1
 290 0034 83F31188 		msr     BASEPRI, r3
 291              	@ 0 "" 2
 292              		.thumb
 293              	.LBE11:
 294              		.loc 1 198 0
 295 0038 2046     		mov	r0, r4
 296              	.LVL19:
 297              	.L12:
 298              		.loc 1 199 0
 299 003a 03B0     		add	sp, sp, #12
 300              		@ sp needed
 301 003c F0BD     		pop	{r4, r5, r6, r7, pc}
 302              		.cfi_endproc
 303              	.LFE10:
 304              		.size	chThdCreateFromMemoryPool, .-chThdCreateFromMemoryPool
 305 003e 00BF     		.text
 306              	.Letext0:
 307              		.file 2 "/home/daniofb/arm-cm3-eabi/lib/gcc/arm-cm3-eabi/4.8.1/include/stddef.h"
 308              		.file 3 "/home/daniofb/arm-cm3-eabi/arm-cm3-eabi/sys-include/stdint.h"
 309              		.file 4 "../../os/ports/GCC/ARMCMx/chtypes.h"
 310              		.file 5 "../../os/kernel/include/chlists.h"
 311              		.file 6 "../../os/kernel/include/chthreads.h"
 312              		.file 7 "../../os/ports/GCC/ARMCMx/chcore_v7m.h"
 313              		.file 8 "../../os/kernel/include/chmtx.h"
 314              		.file 9 "../../os/kernel/include/chmemcore.h"
 315              		.file 10 "../../os/kernel/include/chheap.h"
 316              		.file 11 "../../os/kernel/include/chmempools.h"
 317              		.file 12 "../../os/kernel/include/chschd.h"