ARM GAS  /tmp/ccWedfKB.s 			page 1


   1              		.syntax unified
   2              		.cpu cortex-m3
   3              		.fpu softvfp
   4              		.eabi_attribute 20, 1
   5              		.eabi_attribute 21, 1
   6              		.eabi_attribute 23, 3
   7              		.eabi_attribute 24, 1
   8              		.eabi_attribute 25, 1
   9              		.eabi_attribute 26, 1
  10              		.eabi_attribute 30, 2
  11              		.eabi_attribute 34, 1
  12              		.eabi_attribute 18, 4
  13              		.thumb
  14              		.file	"chevents.c"
  15              		.text
  16              	.Ltext0:
  17              		.cfi_sections	.debug_frame
  18              		.section	.text.chEvtRegisterMask,"ax",%progbits
  19              		.align	2
  20              		.global	chEvtRegisterMask
  21              		.thumb
  22              		.thumb_func
  23              		.type	chEvtRegisterMask, %function
  24              	chEvtRegisterMask:
  25              	.LFB7:
  26              		.file 1 "../../os/kernel/src/chevents.c"
  27              		.loc 1 78 0
  28              		.cfi_startproc
  29              		@ args = 0, pretend = 0, frame = 0
  30              		@ frame_needed = 0, uses_anonymous_args = 0
  31              		@ link register save eliminated.
  32              	.LVL0:
  33 0000 70B4     		push	{r4, r5, r6}
  34              		.cfi_def_cfa_offset 12
  35              		.cfi_offset 4, -12
  36              		.cfi_offset 5, -8
  37              		.cfi_offset 6, -4
  38              	.LBB2:
  39              		.loc 1 82 0
  40 0002 4023     		movs	r3, #64
  41              	@ 82 "../../os/kernel/src/chevents.c" 1
  42 0004 83F31188 		msr     BASEPRI, r3
  43              	@ 0 "" 2
  44              		.thumb
  45              	.LBE2:
  46              		.loc 1 85 0
  47 0008 40F20003 		movw	r3, #:lower16:rlist
  48 000c C0F20003 		movt	r3, #:upper16:rlist
  49 0010 9E69     		ldr	r6, [r3, #24]
  50              		.loc 1 83 0
  51 0012 0568     		ldr	r5, [r0]
  52              		.loc 1 87 0
  53 0014 0024     		movs	r4, #0
  54              		.loc 1 83 0
  55 0016 0D60     		str	r5, [r1]
  56              	.LBB3:
  57              		.loc 1 88 0
ARM GAS  /tmp/ccWedfKB.s 			page 2


  58 0018 2346     		mov	r3, r4
  59              	.LBE3:
  60              		.loc 1 84 0
  61 001a 0160     		str	r1, [r0]
  62              		.loc 1 85 0
  63 001c 4E60     		str	r6, [r1, #4]
  64              		.loc 1 86 0
  65 001e 8A60     		str	r2, [r1, #8]
  66              		.loc 1 87 0
  67 0020 CC60     		str	r4, [r1, #12]
  68              	.LBB4:
  69              		.loc 1 88 0
  70              	@ 88 "../../os/kernel/src/chevents.c" 1
  71 0022 83F31188 		msr     BASEPRI, r3
  72              	@ 0 "" 2
  73              		.thumb
  74              	.LBE4:
  75              		.loc 1 89 0
  76 0026 70BC     		pop	{r4, r5, r6}
  77 0028 7047     		bx	lr
  78              		.cfi_endproc
  79              	.LFE7:
  80              		.size	chEvtRegisterMask, .-chEvtRegisterMask
  81 002a 00BF     		.section	.text.chEvtUnregister,"ax",%progbits
  82              		.align	2
  83              		.global	chEvtUnregister
  84              		.thumb
  85              		.thumb_func
  86              		.type	chEvtUnregister, %function
  87              	chEvtUnregister:
  88              	.LFB8:
  89              		.loc 1 104 0
  90              		.cfi_startproc
  91              		@ args = 0, pretend = 0, frame = 0
  92              		@ frame_needed = 0, uses_anonymous_args = 0
  93              		@ link register save eliminated.
  94              	.LVL1:
  95              	.LBB5:
  96              		.loc 1 110 0
  97 0000 4023     		movs	r3, #64
  98              	@ 110 "../../os/kernel/src/chevents.c" 1
  99 0002 83F31188 		msr     BASEPRI, r3
 100              	@ 0 "" 2
 101              		.thumb
 102              	.LBE5:
 103              		.loc 1 109 0
 104 0006 0246     		mov	r2, r0
 105              		.loc 1 111 0
 106 0008 02E0     		b	.L3
 107              	.LVL2:
 108              	.L6:
 109              		.loc 1 112 0
 110 000a 9942     		cmp	r1, r3
 111 000c 07D0     		beq	.L8
 112 000e 1A46     		mov	r2, r3
 113              	.LVL3:
 114              	.L3:
ARM GAS  /tmp/ccWedfKB.s 			page 3


 115              		.loc 1 111 0 discriminator 1
 116 0010 1368     		ldr	r3, [r2]
 117 0012 8342     		cmp	r3, r0
 118 0014 F9D1     		bne	.L6
 119              	.LBB6:
 120              		.loc 1 118 0
 121 0016 0023     		movs	r3, #0
 122              	@ 118 "../../os/kernel/src/chevents.c" 1
 123 0018 83F31188 		msr     BASEPRI, r3
 124              	@ 0 "" 2
 125              		.thumb
 126 001c 7047     		bx	lr
 127              	.L8:
 128              	.LBE6:
 129              		.loc 1 113 0
 130 001e 0B68     		ldr	r3, [r1]
 131 0020 1360     		str	r3, [r2]
 132              	.LBB7:
 133              		.loc 1 118 0
 134 0022 0023     		movs	r3, #0
 135              	@ 118 "../../os/kernel/src/chevents.c" 1
 136 0024 83F31188 		msr     BASEPRI, r3
 137              	@ 0 "" 2
 138              		.thumb
 139 0028 7047     		bx	lr
 140              	.LBE7:
 141              		.cfi_endproc
 142              	.LFE8:
 143              		.size	chEvtUnregister, .-chEvtUnregister
 144              		.section	.text.chEvtGetAndClearEvents,"ax",%progbits
 145              		.align	2
 146              		.global	chEvtGetAndClearEvents
 147              		.thumb
 148              		.thumb_func
 149              		.type	chEvtGetAndClearEvents, %function
 150              	chEvtGetAndClearEvents:
 151              	.LFB9:
 152              		.loc 1 129 0
 153              		.cfi_startproc
 154              		@ args = 0, pretend = 0, frame = 0
 155              		@ frame_needed = 0, uses_anonymous_args = 0
 156              		@ link register save eliminated.
 157              	.LVL4:
 158 0000 10B4     		push	{r4}
 159              		.cfi_def_cfa_offset 4
 160              		.cfi_offset 4, -4
 161              	.LBB8:
 162              		.loc 1 132 0
 163 0002 4023     		movs	r3, #64
 164              	@ 132 "../../os/kernel/src/chevents.c" 1
 165 0004 83F31188 		msr     BASEPRI, r3
 166              	@ 0 "" 2
 167              		.thumb
 168              	.LBE8:
 169              		.loc 1 134 0
 170 0008 40F20003 		movw	r3, #:lower16:rlist
 171 000c C0F20003 		movt	r3, #:upper16:rlist
ARM GAS  /tmp/ccWedfKB.s 			page 4


 172 0010 9969     		ldr	r1, [r3, #24]
 173              	.LBB9:
 174              		.loc 1 137 0
 175 0012 0023     		movs	r3, #0
 176              	.LBE9:
 177              		.loc 1 134 0
 178 0014 8A6B     		ldr	r2, [r1, #56]
 179              	.LVL5:
 180              		.loc 1 135 0
 181 0016 22EA0004 		bic	r4, r2, r0
 182 001a 8C63     		str	r4, [r1, #56]
 183              	.LBB10:
 184              		.loc 1 137 0
 185              	@ 137 "../../os/kernel/src/chevents.c" 1
 186 001c 83F31188 		msr     BASEPRI, r3
 187              	@ 0 "" 2
 188              		.thumb
 189              	.LBE10:
 190              		.loc 1 139 0
 191 0020 1040     		ands	r0, r0, r2
 192              	.LVL6:
 193 0022 5DF8044B 		ldr	r4, [sp], #4
 194 0026 7047     		bx	lr
 195              		.cfi_endproc
 196              	.LFE9:
 197              		.size	chEvtGetAndClearEvents, .-chEvtGetAndClearEvents
 198              		.section	.text.chEvtAddEvents,"ax",%progbits
 199              		.align	2
 200              		.global	chEvtAddEvents
 201              		.thumb
 202              		.thumb_func
 203              		.type	chEvtAddEvents, %function
 204              	chEvtAddEvents:
 205              	.LFB10:
 206              		.loc 1 150 0
 207              		.cfi_startproc
 208              		@ args = 0, pretend = 0, frame = 0
 209              		@ frame_needed = 0, uses_anonymous_args = 0
 210              		@ link register save eliminated.
 211              	.LVL7:
 212              	.LBB11:
 213              		.loc 1 152 0
 214 0000 4023     		movs	r3, #64
 215              	@ 152 "../../os/kernel/src/chevents.c" 1
 216 0002 83F31188 		msr     BASEPRI, r3
 217              	@ 0 "" 2
 218              		.thumb
 219              	.LBE11:
 220              		.loc 1 154 0
 221 0006 40F20003 		movw	r3, #:lower16:rlist
 222 000a C0F20003 		movt	r3, #:upper16:rlist
 223 000e 9A69     		ldr	r2, [r3, #24]
 224              	.LBB12:
 225              		.loc 1 156 0
 226 0010 0023     		movs	r3, #0
 227              	.LBE12:
 228              		.loc 1 154 0
ARM GAS  /tmp/ccWedfKB.s 			page 5


 229 0012 916B     		ldr	r1, [r2, #56]
 230 0014 0843     		orrs	r0, r0, r1
 231              	.LVL8:
 232 0016 9063     		str	r0, [r2, #56]
 233              	.LVL9:
 234              	.LBB13:
 235              		.loc 1 156 0
 236              	@ 156 "../../os/kernel/src/chevents.c" 1
 237 0018 83F31188 		msr     BASEPRI, r3
 238              	@ 0 "" 2
 239              		.thumb
 240              	.LBE13:
 241              		.loc 1 158 0
 242 001c 7047     		bx	lr
 243              		.cfi_endproc
 244              	.LFE10:
 245              		.size	chEvtAddEvents, .-chEvtAddEvents
 246 001e 00BF     		.section	.text.chEvtGetAndClearFlags,"ax",%progbits
 247              		.align	2
 248              		.global	chEvtGetAndClearFlags
 249              		.thumb
 250              		.thumb_func
 251              		.type	chEvtGetAndClearFlags, %function
 252              	chEvtGetAndClearFlags:
 253              	.LFB12:
 254              		.loc 1 202 0
 255              		.cfi_startproc
 256              		@ args = 0, pretend = 0, frame = 0
 257              		@ frame_needed = 0, uses_anonymous_args = 0
 258              		@ link register save eliminated.
 259              	.LVL10:
 260              		.loc 1 202 0
 261 0000 0246     		mov	r2, r0
 262              	.LBB14:
 263              		.loc 1 205 0
 264 0002 4023     		movs	r3, #64
 265              	@ 205 "../../os/kernel/src/chevents.c" 1
 266 0004 83F31188 		msr     BASEPRI, r3
 267              	@ 0 "" 2
 268              		.thumb
 269              	.LBE14:
 270              		.loc 1 208 0
 271 0008 0021     		movs	r1, #0
 272              		.loc 1 207 0
 273 000a C068     		ldr	r0, [r0, #12]
 274              	.LVL11:
 275              	.LBB15:
 276              		.loc 1 210 0
 277 000c 0B46     		mov	r3, r1
 278              	.LBE15:
 279              		.loc 1 208 0
 280 000e D160     		str	r1, [r2, #12]
 281              	.LBB16:
 282              		.loc 1 210 0
 283              	@ 210 "../../os/kernel/src/chevents.c" 1
 284 0010 83F31188 		msr     BASEPRI, r3
 285              	@ 0 "" 2
ARM GAS  /tmp/ccWedfKB.s 			page 6


 286              		.thumb
 287              	.LBE16:
 288              		.loc 1 212 0
 289 0014 7047     		bx	lr
 290              		.cfi_endproc
 291              	.LFE12:
 292              		.size	chEvtGetAndClearFlags, .-chEvtGetAndClearFlags
 293 0016 00BF     		.section	.text.chEvtSignalI,"ax",%progbits
 294              		.align	2
 295              		.global	chEvtSignalI
 296              		.thumb
 297              		.thumb_func
 298              		.type	chEvtSignalI, %function
 299              	chEvtSignalI:
 300              	.LFB14:
 301              		.loc 1 244 0
 302              		.cfi_startproc
 303              		@ args = 0, pretend = 0, frame = 0
 304              		@ frame_needed = 0, uses_anonymous_args = 0
 305              	.LVL12:
 306 0000 08B5     		push	{r3, lr}
 307              		.cfi_def_cfa_offset 8
 308              		.cfi_offset 3, -8
 309              		.cfi_offset 14, -4
 310              		.loc 1 249 0
 311 0002 826B     		ldr	r2, [r0, #56]
 312              		.loc 1 251 0
 313 0004 037F     		ldrb	r3, [r0, #28]	@ zero_extendqisi2
 314              		.loc 1 249 0
 315 0006 1143     		orrs	r1, r1, r2
 316              	.LVL13:
 317              		.loc 1 251 0
 318 0008 082B     		cmp	r3, #8
 319              		.loc 1 249 0
 320 000a 8163     		str	r1, [r0, #56]
 321              		.loc 1 251 0
 322 000c 0BD0     		beq	.L16
 323              		.loc 1 252 0
 324 000e 092B     		cmp	r3, #9
 325 0010 00D0     		beq	.L17
 326              	.L12:
 327 0012 08BD     		pop	{r3, pc}
 328              	.L17:
 329              		.loc 1 254 0
 330 0014 436A     		ldr	r3, [r0, #36]
 331 0016 1940     		ands	r1, r1, r3
 332              		.loc 1 253 0
 333 0018 8B42     		cmp	r3, r1
 334 001a FAD1     		bne	.L12
 335              	.L14:
 336              	.LVL14:
 337              	.LBB19:
 338              	.LBB20:
 339              		.loc 1 255 0
 340 001c FFF7FEFF 		bl	chSchReadyI
 341              	.LVL15:
 342 0020 0023     		movs	r3, #0
ARM GAS  /tmp/ccWedfKB.s 			page 7


 343 0022 4362     		str	r3, [r0, #36]
 344 0024 08BD     		pop	{r3, pc}
 345              	.LVL16:
 346              	.L16:
 347              	.LBE20:
 348              	.LBE19:
 349              		.loc 1 252 0 discriminator 1
 350 0026 436A     		ldr	r3, [r0, #36]
 351              		.loc 1 251 0 discriminator 1
 352 0028 1942     		tst	r1, r3
 353 002a F7D1     		bne	.L14
 354 002c 08BD     		pop	{r3, pc}
 355              		.cfi_endproc
 356              	.LFE14:
 357              		.size	chEvtSignalI, .-chEvtSignalI
 358 002e 00BF     		.section	.text.chEvtBroadcastFlagsI,"ax",%progbits
 359              		.align	2
 360              		.global	chEvtBroadcastFlagsI
 361              		.thumb
 362              		.thumb_func
 363              		.type	chEvtBroadcastFlagsI, %function
 364              	chEvtBroadcastFlagsI:
 365              	.LFB11:
 366              		.loc 1 177 0
 367              		.cfi_startproc
 368              		@ args = 0, pretend = 0, frame = 0
 369              		@ frame_needed = 0, uses_anonymous_args = 0
 370              	.LVL17:
 371 0000 70B5     		push	{r4, r5, r6, lr}
 372              		.cfi_def_cfa_offset 16
 373              		.cfi_offset 4, -16
 374              		.cfi_offset 5, -12
 375              		.cfi_offset 6, -8
 376              		.cfi_offset 14, -4
 377              		.loc 1 183 0
 378 0002 0468     		ldr	r4, [r0]
 379              	.LVL18:
 380              		.loc 1 177 0
 381 0004 0546     		mov	r5, r0
 382              		.loc 1 184 0
 383 0006 A042     		cmp	r0, r4
 384              		.loc 1 177 0
 385 0008 0E46     		mov	r6, r1
 386              		.loc 1 184 0
 387 000a 09D0     		beq	.L18
 388              	.LVL19:
 389              	.L21:
 390              		.loc 1 185 0
 391 000c E368     		ldr	r3, [r4, #12]
 392              		.loc 1 186 0
 393 000e 6068     		ldr	r0, [r4, #4]
 394              		.loc 1 185 0
 395 0010 3343     		orrs	r3, r3, r6
 396 0012 E360     		str	r3, [r4, #12]
 397              		.loc 1 186 0
 398 0014 A168     		ldr	r1, [r4, #8]
 399 0016 FFF7FEFF 		bl	chEvtSignalI
ARM GAS  /tmp/ccWedfKB.s 			page 8


 400              	.LVL20:
 401              		.loc 1 187 0
 402 001a 2468     		ldr	r4, [r4]
 403              	.LVL21:
 404              		.loc 1 184 0
 405 001c A542     		cmp	r5, r4
 406 001e F5D1     		bne	.L21
 407              	.L18:
 408 0020 70BD     		pop	{r4, r5, r6, pc}
 409              		.cfi_endproc
 410              	.LFE11:
 411              		.size	chEvtBroadcastFlagsI, .-chEvtBroadcastFlagsI
 412 0022 00BF     		.section	.text.chEvtSignal,"ax",%progbits
 413              		.align	2
 414              		.global	chEvtSignal
 415              		.thumb
 416              		.thumb_func
 417              		.type	chEvtSignal, %function
 418              	chEvtSignal:
 419              	.LFB13:
 420              		.loc 1 222 0
 421              		.cfi_startproc
 422              		@ args = 0, pretend = 0, frame = 0
 423              		@ frame_needed = 0, uses_anonymous_args = 0
 424              	.LVL22:
 425 0000 08B5     		push	{r3, lr}
 426              		.cfi_def_cfa_offset 8
 427              		.cfi_offset 3, -8
 428              		.cfi_offset 14, -4
 429              	.LBB21:
 430              		.loc 1 226 0
 431 0002 4023     		movs	r3, #64
 432              	@ 226 "../../os/kernel/src/chevents.c" 1
 433 0004 83F31188 		msr     BASEPRI, r3
 434              	@ 0 "" 2
 435              		.thumb
 436              	.LBE21:
 437              		.loc 1 227 0
 438 0008 FFF7FEFF 		bl	chEvtSignalI
 439              	.LVL23:
 440              		.loc 1 228 0
 441 000c FFF7FEFF 		bl	chSchRescheduleS
 442              	.LVL24:
 443              	.LBB22:
 444              		.loc 1 229 0
 445 0010 0023     		movs	r3, #0
 446              	@ 229 "../../os/kernel/src/chevents.c" 1
 447 0012 83F31188 		msr     BASEPRI, r3
 448              	@ 0 "" 2
 449              		.thumb
 450 0016 08BD     		pop	{r3, pc}
 451              	.LBE22:
 452              		.cfi_endproc
 453              	.LFE13:
 454              		.size	chEvtSignal, .-chEvtSignal
 455              		.section	.text.chEvtBroadcastFlags,"ax",%progbits
 456              		.align	2
ARM GAS  /tmp/ccWedfKB.s 			page 9


 457              		.global	chEvtBroadcastFlags
 458              		.thumb
 459              		.thumb_func
 460              		.type	chEvtBroadcastFlags, %function
 461              	chEvtBroadcastFlags:
 462              	.LFB15:
 463              		.loc 1 271 0
 464              		.cfi_startproc
 465              		@ args = 0, pretend = 0, frame = 0
 466              		@ frame_needed = 0, uses_anonymous_args = 0
 467              	.LVL25:
 468 0000 08B5     		push	{r3, lr}
 469              		.cfi_def_cfa_offset 8
 470              		.cfi_offset 3, -8
 471              		.cfi_offset 14, -4
 472              	.LBB23:
 473              		.loc 1 273 0
 474 0002 4023     		movs	r3, #64
 475              	@ 273 "../../os/kernel/src/chevents.c" 1
 476 0004 83F31188 		msr     BASEPRI, r3
 477              	@ 0 "" 2
 478              		.thumb
 479              	.LBE23:
 480              		.loc 1 274 0
 481 0008 FFF7FEFF 		bl	chEvtBroadcastFlagsI
 482              	.LVL26:
 483              		.loc 1 275 0
 484 000c FFF7FEFF 		bl	chSchRescheduleS
 485              	.LVL27:
 486              	.LBB24:
 487              		.loc 1 276 0
 488 0010 0023     		movs	r3, #0
 489              	@ 276 "../../os/kernel/src/chevents.c" 1
 490 0012 83F31188 		msr     BASEPRI, r3
 491              	@ 0 "" 2
 492              		.thumb
 493 0016 08BD     		pop	{r3, pc}
 494              	.LBE24:
 495              		.cfi_endproc
 496              	.LFE15:
 497              		.size	chEvtBroadcastFlags, .-chEvtBroadcastFlags
 498              		.section	.text.chEvtGetAndClearFlagsI,"ax",%progbits
 499              		.align	2
 500              		.global	chEvtGetAndClearFlagsI
 501              		.thumb
 502              		.thumb_func
 503              		.type	chEvtGetAndClearFlagsI, %function
 504              	chEvtGetAndClearFlagsI:
 505              	.LFB16:
 506              		.loc 1 290 0
 507              		.cfi_startproc
 508              		@ args = 0, pretend = 0, frame = 0
 509              		@ frame_needed = 0, uses_anonymous_args = 0
 510              		@ link register save eliminated.
 511              	.LVL28:
 512              		.loc 1 290 0
 513 0000 0346     		mov	r3, r0
ARM GAS  /tmp/ccWedfKB.s 			page 10


 514              		.loc 1 294 0
 515 0002 0022     		movs	r2, #0
 516              		.loc 1 293 0
 517 0004 C068     		ldr	r0, [r0, #12]
 518              	.LVL29:
 519              		.loc 1 294 0
 520 0006 DA60     		str	r2, [r3, #12]
 521              		.loc 1 297 0
 522 0008 7047     		bx	lr
 523              		.cfi_endproc
 524              	.LFE16:
 525              		.size	chEvtGetAndClearFlagsI, .-chEvtGetAndClearFlagsI
 526 000a 00BF     		.section	.text.chEvtDispatch,"ax",%progbits
 527              		.align	2
 528              		.global	chEvtDispatch
 529              		.thumb
 530              		.thumb_func
 531              		.type	chEvtDispatch, %function
 532              	chEvtDispatch:
 533              	.LFB17:
 534              		.loc 1 308 0
 535              		.cfi_startproc
 536              		@ args = 0, pretend = 0, frame = 0
 537              		@ frame_needed = 0, uses_anonymous_args = 0
 538              	.LVL30:
 539 0000 F8B5     		push	{r3, r4, r5, r6, r7, lr}
 540              		.cfi_def_cfa_offset 24
 541              		.cfi_offset 3, -24
 542              		.cfi_offset 4, -20
 543              		.cfi_offset 5, -16
 544              		.cfi_offset 6, -12
 545              		.cfi_offset 7, -8
 546              		.cfi_offset 14, -4
 547              		.loc 1 314 0
 548 0002 0D46     		mov	r5, r1
 549              		.loc 1 308 0
 550 0004 0746     		mov	r7, r0
 551              		.loc 1 314 0
 552 0006 89B1     		cbz	r1, .L25
 553              		.loc 1 313 0
 554 0008 0024     		movs	r4, #0
 555              		.loc 1 315 0
 556 000a 0126     		movs	r6, #1
 557 000c 01E0     		b	.L29
 558              	.LVL31:
 559              	.L27:
 560              		.loc 1 322 0
 561 000e 0134     		adds	r4, r4, #1
 562              	.LVL32:
 563              		.loc 1 314 0
 564 0010 65B1     		cbz	r5, .L25
 565              	.LVL33:
 566              	.L29:
 567              		.loc 1 315 0
 568 0012 06FA04F3 		lsl	r3, r6, r4
 569 0016 2B42     		tst	r3, r5
 570 0018 F9D0     		beq	.L27
ARM GAS  /tmp/ccWedfKB.s 			page 11


 571              		.loc 1 320 0
 572 001a 57F82420 		ldr	r2, [r7, r4, lsl #2]
 573 001e 2046     		mov	r0, r4
 574              		.loc 1 319 0
 575 0020 25EA0305 		bic	r5, r5, r3
 576              	.LVL34:
 577              		.loc 1 322 0
 578 0024 0134     		adds	r4, r4, #1
 579              	.LVL35:
 580              		.loc 1 320 0
 581 0026 9047     		blx	r2
 582              	.LVL36:
 583              		.loc 1 314 0
 584 0028 002D     		cmp	r5, #0
 585 002a F2D1     		bne	.L29
 586              	.LVL37:
 587              	.L25:
 588 002c F8BD     		pop	{r3, r4, r5, r6, r7, pc}
 589              		.cfi_endproc
 590              	.LFE17:
 591              		.size	chEvtDispatch, .-chEvtDispatch
 592 002e 00BF     		.section	.text.chEvtWaitOne,"ax",%progbits
 593              		.align	2
 594              		.global	chEvtWaitOne
 595              		.thumb
 596              		.thumb_func
 597              		.type	chEvtWaitOne, %function
 598              	chEvtWaitOne:
 599              	.LFB18:
 600              		.loc 1 343 0
 601              		.cfi_startproc
 602              		@ args = 0, pretend = 0, frame = 0
 603              		@ frame_needed = 0, uses_anonymous_args = 0
 604              	.LVL38:
 605 0000 38B5     		push	{r3, r4, r5, lr}
 606              		.cfi_def_cfa_offset 16
 607              		.cfi_offset 3, -16
 608              		.cfi_offset 4, -12
 609              		.cfi_offset 5, -8
 610              		.cfi_offset 14, -4
 611              		.loc 1 344 0
 612 0002 40F20003 		movw	r3, #:lower16:rlist
 613 0006 C0F20003 		movt	r3, #:upper16:rlist
 614 000a 9C69     		ldr	r4, [r3, #24]
 615              	.LVL39:
 616              		.loc 1 343 0
 617 000c 0546     		mov	r5, r0
 618              	.LBB25:
 619              		.loc 1 347 0
 620 000e 4023     		movs	r3, #64
 621              	@ 347 "../../os/kernel/src/chevents.c" 1
 622 0010 83F31188 		msr     BASEPRI, r3
 623              	@ 0 "" 2
 624              		.thumb
 625              	.LBE25:
 626              		.loc 1 349 0
 627 0014 A36B     		ldr	r3, [r4, #56]
ARM GAS  /tmp/ccWedfKB.s 			page 12


 628              	.LVL40:
 629 0016 10EA0302 		ands	r2, r0, r3
 630              	.LVL41:
 631 001a 06D1     		bne	.L37
 632              		.loc 1 350 0
 633 001c 6062     		str	r0, [r4, #36]
 634              		.loc 1 351 0
 635 001e 0820     		movs	r0, #8
 636              	.LVL42:
 637 0020 FFF7FEFF 		bl	chSchGoSleepS
 638              	.LVL43:
 639              		.loc 1 352 0
 640 0024 A36B     		ldr	r3, [r4, #56]
 641 0026 05EA0302 		and	r2, r5, r3
 642              	.LVL44:
 643              	.L37:
 644              		.loc 1 354 0
 645 002a 5042     		negs	r0, r2
 646 002c 1040     		ands	r0, r0, r2
 647              	.LVL45:
 648              		.loc 1 355 0
 649 002e 23EA0003 		bic	r3, r3, r0
 650 0032 A363     		str	r3, [r4, #56]
 651              	.LBB26:
 652              		.loc 1 357 0
 653 0034 0023     		movs	r3, #0
 654              	@ 357 "../../os/kernel/src/chevents.c" 1
 655 0036 83F31188 		msr     BASEPRI, r3
 656              	@ 0 "" 2
 657              		.thumb
 658              	.LBE26:
 659              		.loc 1 359 0
 660 003a 38BD     		pop	{r3, r4, r5, pc}
 661              		.cfi_endproc
 662              	.LFE18:
 663              		.size	chEvtWaitOne, .-chEvtWaitOne
 664              		.section	.text.chEvtWaitAny,"ax",%progbits
 665              		.align	2
 666              		.global	chEvtWaitAny
 667              		.thumb
 668              		.thumb_func
 669              		.type	chEvtWaitAny, %function
 670              	chEvtWaitAny:
 671              	.LFB19:
 672              		.loc 1 372 0
 673              		.cfi_startproc
 674              		@ args = 0, pretend = 0, frame = 0
 675              		@ frame_needed = 0, uses_anonymous_args = 0
 676              	.LVL46:
 677 0000 38B5     		push	{r3, r4, r5, lr}
 678              		.cfi_def_cfa_offset 16
 679              		.cfi_offset 3, -16
 680              		.cfi_offset 4, -12
 681              		.cfi_offset 5, -8
 682              		.cfi_offset 14, -4
 683              		.loc 1 373 0
 684 0002 40F20003 		movw	r3, #:lower16:rlist
ARM GAS  /tmp/ccWedfKB.s 			page 13


 685 0006 C0F20003 		movt	r3, #:upper16:rlist
 686 000a 9C69     		ldr	r4, [r3, #24]
 687              	.LVL47:
 688              		.loc 1 372 0
 689 000c 0546     		mov	r5, r0
 690              	.LBB27:
 691              		.loc 1 376 0
 692 000e 4023     		movs	r3, #64
 693              	@ 376 "../../os/kernel/src/chevents.c" 1
 694 0010 83F31188 		msr     BASEPRI, r3
 695              	@ 0 "" 2
 696              		.thumb
 697              	.LBE27:
 698              		.loc 1 378 0
 699 0014 A36B     		ldr	r3, [r4, #56]
 700              	.LVL48:
 701 0016 1840     		ands	r0, r0, r3
 702              	.LVL49:
 703 0018 06D1     		bne	.L40
 704              		.loc 1 380 0
 705 001a 0820     		movs	r0, #8
 706              	.LVL50:
 707              		.loc 1 379 0
 708 001c 6562     		str	r5, [r4, #36]
 709              		.loc 1 380 0
 710 001e FFF7FEFF 		bl	chSchGoSleepS
 711              	.LVL51:
 712              		.loc 1 381 0
 713 0022 A36B     		ldr	r3, [r4, #56]
 714 0024 05EA0300 		and	r0, r5, r3
 715              	.LVL52:
 716              	.L40:
 717              		.loc 1 383 0
 718 0028 23EA0003 		bic	r3, r3, r0
 719 002c A363     		str	r3, [r4, #56]
 720              	.LBB28:
 721              		.loc 1 385 0
 722 002e 0023     		movs	r3, #0
 723              	@ 385 "../../os/kernel/src/chevents.c" 1
 724 0030 83F31188 		msr     BASEPRI, r3
 725              	@ 0 "" 2
 726              		.thumb
 727              	.LBE28:
 728              		.loc 1 387 0
 729 0034 38BD     		pop	{r3, r4, r5, pc}
 730              		.cfi_endproc
 731              	.LFE19:
 732              		.size	chEvtWaitAny, .-chEvtWaitAny
 733 0036 00BF     		.section	.text.chEvtWaitAll,"ax",%progbits
 734              		.align	2
 735              		.global	chEvtWaitAll
 736              		.thumb
 737              		.thumb_func
 738              		.type	chEvtWaitAll, %function
 739              	chEvtWaitAll:
 740              	.LFB20:
 741              		.loc 1 400 0
ARM GAS  /tmp/ccWedfKB.s 			page 14


 742              		.cfi_startproc
 743              		@ args = 0, pretend = 0, frame = 0
 744              		@ frame_needed = 0, uses_anonymous_args = 0
 745              	.LVL53:
 746 0000 38B5     		push	{r3, r4, r5, lr}
 747              		.cfi_def_cfa_offset 16
 748              		.cfi_offset 3, -16
 749              		.cfi_offset 4, -12
 750              		.cfi_offset 5, -8
 751              		.cfi_offset 14, -4
 752              		.loc 1 401 0
 753 0002 40F20003 		movw	r3, #:lower16:rlist
 754 0006 C0F20003 		movt	r3, #:upper16:rlist
 755 000a 9D69     		ldr	r5, [r3, #24]
 756              	.LVL54:
 757              		.loc 1 400 0
 758 000c 0446     		mov	r4, r0
 759              	.LBB29:
 760              		.loc 1 403 0
 761 000e 4023     		movs	r3, #64
 762              	@ 403 "../../os/kernel/src/chevents.c" 1
 763 0010 83F31188 		msr     BASEPRI, r3
 764              	@ 0 "" 2
 765              		.thumb
 766              	.LBE29:
 767              		.loc 1 405 0
 768 0014 AB6B     		ldr	r3, [r5, #56]
 769 0016 00EA0302 		and	r2, r0, r3
 770 001a 8242     		cmp	r2, r0
 771 001c 04D0     		beq	.L43
 772              		.loc 1 406 0
 773 001e 6862     		str	r0, [r5, #36]
 774              		.loc 1 407 0
 775 0020 0920     		movs	r0, #9
 776              	.LVL55:
 777 0022 FFF7FEFF 		bl	chSchGoSleepS
 778              	.LVL56:
 779 0026 AB6B     		ldr	r3, [r5, #56]
 780              	.L43:
 781              		.loc 1 409 0
 782 0028 23EA0403 		bic	r3, r3, r4
 783 002c AB63     		str	r3, [r5, #56]
 784              	.LBB30:
 785              		.loc 1 411 0
 786 002e 0023     		movs	r3, #0
 787              	@ 411 "../../os/kernel/src/chevents.c" 1
 788 0030 83F31188 		msr     BASEPRI, r3
 789              	@ 0 "" 2
 790              		.thumb
 791              	.LBE30:
 792              		.loc 1 413 0
 793 0034 2046     		mov	r0, r4
 794 0036 38BD     		pop	{r3, r4, r5, pc}
 795              		.cfi_endproc
 796              	.LFE20:
 797              		.size	chEvtWaitAll, .-chEvtWaitAll
 798              		.section	.text.chEvtWaitOneTimeout,"ax",%progbits
ARM GAS  /tmp/ccWedfKB.s 			page 15


 799              		.align	2
 800              		.global	chEvtWaitOneTimeout
 801              		.thumb
 802              		.thumb_func
 803              		.type	chEvtWaitOneTimeout, %function
 804              	chEvtWaitOneTimeout:
 805              	.LFB21:
 806              		.loc 1 439 0
 807              		.cfi_startproc
 808              		@ args = 0, pretend = 0, frame = 0
 809              		@ frame_needed = 0, uses_anonymous_args = 0
 810              	.LVL57:
 811              		.loc 1 440 0
 812 0000 40F20002 		movw	r2, #:lower16:rlist
 813 0004 C0F20002 		movt	r2, #:upper16:rlist
 814              		.loc 1 439 0
 815 0008 70B5     		push	{r4, r5, r6, lr}
 816              		.cfi_def_cfa_offset 16
 817              		.cfi_offset 4, -16
 818              		.cfi_offset 5, -12
 819              		.cfi_offset 6, -8
 820              		.cfi_offset 14, -4
 821              	.LBB31:
 822              		.loc 1 443 0
 823 000a 4023     		movs	r3, #64
 824              	.LBE31:
 825              		.loc 1 439 0
 826 000c 0446     		mov	r4, r0
 827              		.loc 1 440 0
 828 000e 9569     		ldr	r5, [r2, #24]
 829              	.LVL58:
 830              	.LBB32:
 831              		.loc 1 443 0
 832              	@ 443 "../../os/kernel/src/chevents.c" 1
 833 0010 83F31188 		msr     BASEPRI, r3
 834              	@ 0 "" 2
 835              		.thumb
 836              	.LBE32:
 837              		.loc 1 445 0
 838 0014 AA6B     		ldr	r2, [r5, #56]
 839              	.LVL59:
 840 0016 10EA0206 		ands	r6, r0, r2
 841              	.LVL60:
 842 001a 0ED1     		bne	.L46
 843              		.loc 1 446 0
 844 001c 21B9     		cbnz	r1, .L47
 845              	.LBB33:
 846              		.loc 1 447 0
 847 001e 0B46     		mov	r3, r1
 848              	@ 447 "../../os/kernel/src/chevents.c" 1
 849 0020 83F31188 		msr     BASEPRI, r3
 850              	@ 0 "" 2
 851              		.thumb
 852              	.LBE33:
 853              		.loc 1 448 0
 854 0024 0020     		movs	r0, #0
 855              	.LVL61:
ARM GAS  /tmp/ccWedfKB.s 			page 16


 856 0026 70BD     		pop	{r4, r5, r6, pc}
 857              	.LVL62:
 858              	.L47:
 859              		.loc 1 450 0
 860 0028 6862     		str	r0, [r5, #36]
 861              		.loc 1 451 0
 862 002a 0820     		movs	r0, #8
 863              	.LVL63:
 864 002c FFF7FEFF 		bl	chSchGoSleepTimeoutS
 865              	.LVL64:
 866 0030 0028     		cmp	r0, #0
 867 0032 0BDB     		blt	.L51
 868              		.loc 1 455 0
 869 0034 AA6B     		ldr	r2, [r5, #56]
 870 0036 04EA0206 		and	r6, r4, r2
 871              	.LVL65:
 872              	.L46:
 873              		.loc 1 457 0
 874 003a 7042     		negs	r0, r6
 875 003c 3040     		ands	r0, r0, r6
 876              	.LVL66:
 877              		.loc 1 458 0
 878 003e 22EA0002 		bic	r2, r2, r0
 879 0042 AA63     		str	r2, [r5, #56]
 880              	.LBB34:
 881              		.loc 1 460 0
 882 0044 0023     		movs	r3, #0
 883              	@ 460 "../../os/kernel/src/chevents.c" 1
 884 0046 83F31188 		msr     BASEPRI, r3
 885              	@ 0 "" 2
 886              		.thumb
 887              	.LBE34:
 888              		.loc 1 462 0
 889 004a 70BD     		pop	{r4, r5, r6, pc}
 890              	.LVL67:
 891              	.L51:
 892              	.LBB35:
 893              		.loc 1 452 0
 894 004c 3346     		mov	r3, r6
 895              	@ 452 "../../os/kernel/src/chevents.c" 1
 896 004e 83F31188 		msr     BASEPRI, r3
 897              	@ 0 "" 2
 898              		.thumb
 899              	.LBE35:
 900              		.loc 1 453 0
 901 0052 0020     		movs	r0, #0
 902 0054 70BD     		pop	{r4, r5, r6, pc}
 903              		.cfi_endproc
 904              	.LFE21:
 905              		.size	chEvtWaitOneTimeout, .-chEvtWaitOneTimeout
 906 0056 00BF     		.section	.text.chEvtWaitAnyTimeout,"ax",%progbits
 907              		.align	2
 908              		.global	chEvtWaitAnyTimeout
 909              		.thumb
 910              		.thumb_func
 911              		.type	chEvtWaitAnyTimeout, %function
 912              	chEvtWaitAnyTimeout:
ARM GAS  /tmp/ccWedfKB.s 			page 17


 913              	.LFB22:
 914              		.loc 1 482 0
 915              		.cfi_startproc
 916              		@ args = 0, pretend = 0, frame = 0
 917              		@ frame_needed = 0, uses_anonymous_args = 0
 918              	.LVL68:
 919              		.loc 1 483 0
 920 0000 40F20002 		movw	r2, #:lower16:rlist
 921 0004 C0F20002 		movt	r2, #:upper16:rlist
 922              		.loc 1 482 0
 923 0008 70B5     		push	{r4, r5, r6, lr}
 924              		.cfi_def_cfa_offset 16
 925              		.cfi_offset 4, -16
 926              		.cfi_offset 5, -12
 927              		.cfi_offset 6, -8
 928              		.cfi_offset 14, -4
 929              	.LBB36:
 930              		.loc 1 486 0
 931 000a 4023     		movs	r3, #64
 932              	.LBE36:
 933              		.loc 1 482 0
 934 000c 0446     		mov	r4, r0
 935              		.loc 1 483 0
 936 000e 9569     		ldr	r5, [r2, #24]
 937              	.LVL69:
 938              	.LBB37:
 939              		.loc 1 486 0
 940              	@ 486 "../../os/kernel/src/chevents.c" 1
 941 0010 83F31188 		msr     BASEPRI, r3
 942              	@ 0 "" 2
 943              		.thumb
 944              	.LBE37:
 945              		.loc 1 488 0
 946 0014 AA6B     		ldr	r2, [r5, #56]
 947              	.LVL70:
 948 0016 10EA0206 		ands	r6, r0, r2
 949              	.LVL71:
 950 001a 0ED1     		bne	.L53
 951              		.loc 1 489 0
 952 001c 21B9     		cbnz	r1, .L54
 953              	.LBB38:
 954              		.loc 1 490 0
 955 001e 0B46     		mov	r3, r1
 956              	@ 490 "../../os/kernel/src/chevents.c" 1
 957 0020 83F31188 		msr     BASEPRI, r3
 958              	@ 0 "" 2
 959              		.thumb
 960              	.LBE38:
 961              		.loc 1 491 0
 962 0024 0020     		movs	r0, #0
 963              	.LVL72:
 964 0026 70BD     		pop	{r4, r5, r6, pc}
 965              	.LVL73:
 966              	.L54:
 967              		.loc 1 493 0
 968 0028 6862     		str	r0, [r5, #36]
 969              		.loc 1 494 0
ARM GAS  /tmp/ccWedfKB.s 			page 18


 970 002a 0820     		movs	r0, #8
 971              	.LVL74:
 972 002c FFF7FEFF 		bl	chSchGoSleepTimeoutS
 973              	.LVL75:
 974 0030 0028     		cmp	r0, #0
 975 0032 0ADB     		blt	.L58
 976              		.loc 1 498 0
 977 0034 AA6B     		ldr	r2, [r5, #56]
 978 0036 04EA0206 		and	r6, r4, r2
 979              	.LVL76:
 980              	.L53:
 981              		.loc 1 500 0
 982 003a 22EA0602 		bic	r2, r2, r6
 983 003e AA63     		str	r2, [r5, #56]
 984              	.LBB39:
 985              		.loc 1 502 0
 986 0040 0023     		movs	r3, #0
 987              	@ 502 "../../os/kernel/src/chevents.c" 1
 988 0042 83F31188 		msr     BASEPRI, r3
 989              	@ 0 "" 2
 990              		.thumb
 991              	.LBE39:
 992              		.loc 1 503 0
 993 0046 3046     		mov	r0, r6
 994              		.loc 1 504 0
 995 0048 70BD     		pop	{r4, r5, r6, pc}
 996              	.LVL77:
 997              	.L58:
 998              	.LBB40:
 999              		.loc 1 495 0
 1000 004a 3346     		mov	r3, r6
 1001              	@ 495 "../../os/kernel/src/chevents.c" 1
 1002 004c 83F31188 		msr     BASEPRI, r3
 1003              	@ 0 "" 2
 1004              		.thumb
 1005              	.LBE40:
 1006              		.loc 1 496 0
 1007 0050 0020     		movs	r0, #0
 1008 0052 70BD     		pop	{r4, r5, r6, pc}
 1009              		.cfi_endproc
 1010              	.LFE22:
 1011              		.size	chEvtWaitAnyTimeout, .-chEvtWaitAnyTimeout
 1012              		.section	.text.chEvtWaitAllTimeout,"ax",%progbits
 1013              		.align	2
 1014              		.global	chEvtWaitAllTimeout
 1015              		.thumb
 1016              		.thumb_func
 1017              		.type	chEvtWaitAllTimeout, %function
 1018              	chEvtWaitAllTimeout:
 1019              	.LFB23:
 1020              		.loc 1 523 0
 1021              		.cfi_startproc
 1022              		@ args = 0, pretend = 0, frame = 0
 1023              		@ frame_needed = 0, uses_anonymous_args = 0
 1024              	.LVL78:
 1025              		.loc 1 524 0
 1026 0000 40F20002 		movw	r2, #:lower16:rlist
ARM GAS  /tmp/ccWedfKB.s 			page 19


 1027 0004 C0F20002 		movt	r2, #:upper16:rlist
 1028              		.loc 1 523 0
 1029 0008 38B5     		push	{r3, r4, r5, lr}
 1030              		.cfi_def_cfa_offset 16
 1031              		.cfi_offset 3, -16
 1032              		.cfi_offset 4, -12
 1033              		.cfi_offset 5, -8
 1034              		.cfi_offset 14, -4
 1035              		.loc 1 523 0
 1036 000a 0446     		mov	r4, r0
 1037              		.loc 1 524 0
 1038 000c 9569     		ldr	r5, [r2, #24]
 1039              	.LVL79:
 1040              	.LBB41:
 1041              		.loc 1 526 0
 1042 000e 4023     		movs	r3, #64
 1043              	@ 526 "../../os/kernel/src/chevents.c" 1
 1044 0010 83F31188 		msr     BASEPRI, r3
 1045              	@ 0 "" 2
 1046              		.thumb
 1047              	.LBE41:
 1048              		.loc 1 528 0
 1049 0014 AB6B     		ldr	r3, [r5, #56]
 1050 0016 00EA0302 		and	r2, r0, r3
 1051 001a 8242     		cmp	r2, r0
 1052 001c 0CD0     		beq	.L60
 1053              		.loc 1 529 0
 1054 001e 21B9     		cbnz	r1, .L61
 1055              	.LBB42:
 1056              		.loc 1 530 0
 1057 0020 0B46     		mov	r3, r1
 1058              	@ 530 "../../os/kernel/src/chevents.c" 1
 1059 0022 83F31188 		msr     BASEPRI, r3
 1060              	@ 0 "" 2
 1061              		.thumb
 1062              	.LBE42:
 1063              		.loc 1 531 0
 1064 0026 0020     		movs	r0, #0
 1065              	.LVL80:
 1066 0028 38BD     		pop	{r3, r4, r5, pc}
 1067              	.LVL81:
 1068              	.L61:
 1069              		.loc 1 533 0
 1070 002a 6862     		str	r0, [r5, #36]
 1071              		.loc 1 534 0
 1072 002c 0920     		movs	r0, #9
 1073              	.LVL82:
 1074 002e FFF7FEFF 		bl	chSchGoSleepTimeoutS
 1075              	.LVL83:
 1076 0032 0028     		cmp	r0, #0
 1077 0034 08DB     		blt	.L63
 1078 0036 AB6B     		ldr	r3, [r5, #56]
 1079              	.L60:
 1080              		.loc 1 539 0
 1081 0038 23EA0403 		bic	r3, r3, r4
 1082 003c AB63     		str	r3, [r5, #56]
 1083              	.LBB43:
ARM GAS  /tmp/ccWedfKB.s 			page 20


 1084              		.loc 1 541 0
 1085 003e 0023     		movs	r3, #0
 1086              	@ 541 "../../os/kernel/src/chevents.c" 1
 1087 0040 83F31188 		msr     BASEPRI, r3
 1088              	@ 0 "" 2
 1089              		.thumb
 1090              	.LBE43:
 1091              		.loc 1 542 0
 1092 0044 2046     		mov	r0, r4
 1093              		.loc 1 543 0
 1094 0046 38BD     		pop	{r3, r4, r5, pc}
 1095              	.LVL84:
 1096              	.L63:
 1097              	.LBB44:
 1098              		.loc 1 535 0
 1099 0048 0023     		movs	r3, #0
 1100              	@ 535 "../../os/kernel/src/chevents.c" 1
 1101 004a 83F31188 		msr     BASEPRI, r3
 1102              	@ 0 "" 2
 1103              		.thumb
 1104              	.LBE44:
 1105              		.loc 1 536 0
 1106 004e 0020     		movs	r0, #0
 1107 0050 38BD     		pop	{r3, r4, r5, pc}
 1108              		.cfi_endproc
 1109              	.LFE23:
 1110              		.size	chEvtWaitAllTimeout, .-chEvtWaitAllTimeout
 1111 0052 00BF     		.text
 1112              	.Letext0:
 1113              		.file 2 "/home/daniofb/arm-cm3-eabi/arm-cm3-eabi/sys-include/stdint.h"
 1114              		.file 3 "../../os/ports/GCC/ARMCMx/chtypes.h"
 1115              		.file 4 "../../os/kernel/include/chlists.h"
 1116              		.file 5 "../../os/kernel/include/chthreads.h"
 1117              		.file 6 "../../os/ports/GCC/ARMCMx/chcore_v7m.h"
 1118              		.file 7 "../../os/kernel/include/chschd.h"
 1119              		.file 8 "../../os/kernel/include/chmtx.h"
 1120              		.file 9 "../../os/kernel/include/chevents.h"