ARM GAS  /tmp/cc1XOb3K.s 			page 1


   1              		.syntax unified
   2              		.cpu cortex-m3
   3              		.fpu softvfp
   4              		.eabi_attribute 20, 1
   5              		.eabi_attribute 21, 1
   6              		.eabi_attribute 23, 3
   7              		.eabi_attribute 24, 1
   8              		.eabi_attribute 25, 1
   9              		.eabi_attribute 26, 1
  10              		.eabi_attribute 30, 2
  11              		.eabi_attribute 34, 1
  12              		.eabi_attribute 18, 4
  13              		.thumb
  14              		.file	"chmboxes.c"
  15              		.text
  16              	.Ltext0:
  17              		.cfi_sections	.debug_frame
  18              		.section	.text.chMBInit,"ax",%progbits
  19              		.align	2
  20              		.global	chMBInit
  21              		.thumb
  22              		.thumb_func
  23              		.type	chMBInit, %function
  24              	chMBInit:
  25              	.LFB7:
  26              		.file 1 "../../os/kernel/src/chmboxes.c"
  27              		.loc 1 65 0
  28              		.cfi_startproc
  29              		@ args = 0, pretend = 0, frame = 0
  30              		@ frame_needed = 0, uses_anonymous_args = 0
  31              	.LVL0:
  32 0000 10B5     		push	{r4, lr}
  33              		.cfi_def_cfa_offset 8
  34              		.cfi_offset 4, -8
  35              		.cfi_offset 14, -4
  36              		.loc 1 65 0
  37 0002 0B46     		mov	r3, r1
  38              		.loc 1 70 0
  39 0004 01EB8201 		add	r1, r1, r2, lsl #2
  40              	.LVL1:
  41 0008 4160     		str	r1, [r0, #4]
  42              		.loc 1 65 0
  43 000a 0446     		mov	r4, r0
  44              		.loc 1 69 0
  45 000c C360     		str	r3, [r0, #12]
  46 000e 8360     		str	r3, [r0, #8]
  47 0010 0360     		str	r3, [r0]
  48              		.loc 1 71 0
  49 0012 1146     		mov	r1, r2
  50 0014 1C30     		adds	r0, r0, #28
  51              	.LVL2:
  52 0016 FFF7FEFF 		bl	chSemInit
  53              	.LVL3:
  54              		.loc 1 72 0
  55 001a 04F11000 		add	r0, r4, #16
  56 001e 0021     		movs	r1, #0
  57              		.loc 1 73 0
ARM GAS  /tmp/cc1XOb3K.s 			page 2


  58 0020 BDE81040 		pop	{r4, lr}
  59              	.LVL4:
  60              		.loc 1 72 0
  61 0024 FFF7FEBF 		b	chSemInit
  62              	.LVL5:
  63              		.cfi_endproc
  64              	.LFE7:
  65              		.size	chMBInit, .-chMBInit
  66              		.section	.text.chMBReset,"ax",%progbits
  67              		.align	2
  68              		.global	chMBReset
  69              		.thumb
  70              		.thumb_func
  71              		.type	chMBReset, %function
  72              	chMBReset:
  73              	.LFB8:
  74              		.loc 1 84 0
  75              		.cfi_startproc
  76              		@ args = 0, pretend = 0, frame = 0
  77              		@ frame_needed = 0, uses_anonymous_args = 0
  78              	.LVL6:
  79 0000 10B5     		push	{r4, lr}
  80              		.cfi_def_cfa_offset 8
  81              		.cfi_offset 4, -8
  82              		.cfi_offset 14, -4
  83              	.LBB2:
  84              		.loc 1 88 0
  85 0002 4023     		movs	r3, #64
  86              	.LBE2:
  87              		.loc 1 84 0
  88 0004 0446     		mov	r4, r0
  89              	.LBB3:
  90              		.loc 1 88 0
  91              	@ 88 "../../os/kernel/src/chmboxes.c" 1
  92 0006 83F31188 		msr     BASEPRI, r3
  93              	@ 0 "" 2
  94              		.thumb
  95              	.LBE3:
  96              		.loc 1 89 0
  97 000a 0368     		ldr	r3, [r0]
  98              		.loc 1 90 0
  99 000c 4168     		ldr	r1, [r0, #4]
 100              		.loc 1 89 0
 101 000e C360     		str	r3, [r0, #12]
 102              		.loc 1 90 0
 103 0010 C91A     		subs	r1, r1, r3
 104              		.loc 1 89 0
 105 0012 8360     		str	r3, [r0, #8]
 106              		.loc 1 90 0
 107 0014 8910     		asrs	r1, r1, #2
 108 0016 1C30     		adds	r0, r0, #28
 109              	.LVL7:
 110 0018 FFF7FEFF 		bl	chSemResetI
 111              	.LVL8:
 112              		.loc 1 91 0
 113 001c 04F11000 		add	r0, r4, #16
 114 0020 0021     		movs	r1, #0
ARM GAS  /tmp/cc1XOb3K.s 			page 3


 115 0022 FFF7FEFF 		bl	chSemResetI
 116              	.LVL9:
 117              		.loc 1 92 0
 118 0026 FFF7FEFF 		bl	chSchRescheduleS
 119              	.LVL10:
 120              	.LBB4:
 121              		.loc 1 93 0
 122 002a 0023     		movs	r3, #0
 123              	@ 93 "../../os/kernel/src/chmboxes.c" 1
 124 002c 83F31188 		msr     BASEPRI, r3
 125              	@ 0 "" 2
 126              		.thumb
 127 0030 10BD     		pop	{r4, pc}
 128              	.LBE4:
 129              		.cfi_endproc
 130              	.LFE8:
 131              		.size	chMBReset, .-chMBReset
 132 0032 00BF     		.section	.text.chMBPostS,"ax",%progbits
 133              		.align	2
 134              		.global	chMBPostS
 135              		.thumb
 136              		.thumb_func
 137              		.type	chMBPostS, %function
 138              	chMBPostS:
 139              	.LFB10:
 140              		.loc 1 143 0
 141              		.cfi_startproc
 142              		@ args = 0, pretend = 0, frame = 0
 143              		@ frame_needed = 0, uses_anonymous_args = 0
 144              	.LVL11:
 145 0000 70B5     		push	{r4, r5, r6, lr}
 146              		.cfi_def_cfa_offset 16
 147              		.cfi_offset 4, -16
 148              		.cfi_offset 5, -12
 149              		.cfi_offset 6, -8
 150              		.cfi_offset 14, -4
 151              		.loc 1 143 0
 152 0002 0446     		mov	r4, r0
 153 0004 0E46     		mov	r6, r1
 154              		.loc 1 149 0
 155 0006 1C30     		adds	r0, r0, #28
 156              	.LVL12:
 157 0008 1146     		mov	r1, r2
 158              	.LVL13:
 159 000a FFF7FEFF 		bl	chSemWaitTimeoutS
 160              	.LVL14:
 161              		.loc 1 150 0
 162 000e 0546     		mov	r5, r0
 163 0010 78B9     		cbnz	r0, .L4
 164              		.loc 1 151 0
 165 0012 A268     		ldr	r2, [r4, #8]
 166              		.loc 1 152 0
 167 0014 6168     		ldr	r1, [r4, #4]
 168              		.loc 1 151 0
 169 0016 131D     		adds	r3, r2, #4
 170              		.loc 1 152 0
 171 0018 8B42     		cmp	r3, r1
ARM GAS  /tmp/cc1XOb3K.s 			page 4


 172              		.loc 1 151 0
 173 001a A360     		str	r3, [r4, #8]
 174              		.loc 1 153 0
 175 001c 28BF     		it	cs
 176 001e 2368     		ldrcs	r3, [r4]
 177              		.loc 1 151 0
 178 0020 1660     		str	r6, [r2]
 179              		.loc 1 154 0
 180 0022 04F11000 		add	r0, r4, #16
 181              	.LVL15:
 182              		.loc 1 153 0
 183 0026 28BF     		it	cs
 184 0028 A360     		strcs	r3, [r4, #8]
 185              		.loc 1 154 0
 186 002a FFF7FEFF 		bl	chSemSignalI
 187              	.LVL16:
 188              		.loc 1 155 0
 189 002e FFF7FEFF 		bl	chSchRescheduleS
 190              	.LVL17:
 191              	.L4:
 192              		.loc 1 158 0
 193 0032 2846     		mov	r0, r5
 194 0034 70BD     		pop	{r4, r5, r6, pc}
 195              		.cfi_endproc
 196              	.LFE10:
 197              		.size	chMBPostS, .-chMBPostS
 198 0036 00BF     		.section	.text.chMBPost,"ax",%progbits
 199              		.align	2
 200              		.global	chMBPost
 201              		.thumb
 202              		.thumb_func
 203              		.type	chMBPost, %function
 204              	chMBPost:
 205              	.LFB9:
 206              		.loc 1 115 0
 207              		.cfi_startproc
 208              		@ args = 0, pretend = 0, frame = 0
 209              		@ frame_needed = 0, uses_anonymous_args = 0
 210              	.LVL18:
 211 0000 08B5     		push	{r3, lr}
 212              		.cfi_def_cfa_offset 8
 213              		.cfi_offset 3, -8
 214              		.cfi_offset 14, -4
 215              	.LBB5:
 216              		.loc 1 118 0
 217 0002 4023     		movs	r3, #64
 218              	@ 118 "../../os/kernel/src/chmboxes.c" 1
 219 0004 83F31188 		msr     BASEPRI, r3
 220              	@ 0 "" 2
 221              		.thumb
 222              	.LBE5:
 223              		.loc 1 119 0
 224 0008 FFF7FEFF 		bl	chMBPostS
 225              	.LVL19:
 226              	.LBB6:
 227              		.loc 1 120 0
 228 000c 0023     		movs	r3, #0
ARM GAS  /tmp/cc1XOb3K.s 			page 5


 229              	@ 120 "../../os/kernel/src/chmboxes.c" 1
 230 000e 83F31188 		msr     BASEPRI, r3
 231              	@ 0 "" 2
 232              		.thumb
 233              	.LBE6:
 234              		.loc 1 122 0
 235 0012 08BD     		pop	{r3, pc}
 236              		.cfi_endproc
 237              	.LFE9:
 238              		.size	chMBPost, .-chMBPost
 239              		.section	.text.chMBPostI,"ax",%progbits
 240              		.align	2
 241              		.global	chMBPostI
 242              		.thumb
 243              		.thumb_func
 244              		.type	chMBPostI, %function
 245              	chMBPostI:
 246              	.LFB11:
 247              		.loc 1 174 0
 248              		.cfi_startproc
 249              		@ args = 0, pretend = 0, frame = 0
 250              		@ frame_needed = 0, uses_anonymous_args = 0
 251              	.LVL20:
 252 0000 38B5     		push	{r3, r4, r5, lr}
 253              		.cfi_def_cfa_offset 16
 254              		.cfi_offset 3, -16
 255              		.cfi_offset 4, -12
 256              		.cfi_offset 5, -8
 257              		.cfi_offset 14, -4
 258              		.loc 1 179 0
 259 0002 436A     		ldr	r3, [r0, #36]
 260 0004 002B     		cmp	r3, #0
 261 0006 12DD     		ble	.L11
 262              		.loc 1 182 0
 263 0008 8468     		ldr	r4, [r0, #8]
 264              		.loc 1 183 0
 265 000a 4568     		ldr	r5, [r0, #4]
 266              		.loc 1 182 0
 267 000c 221D     		adds	r2, r4, #4
 268              		.loc 1 181 0
 269 000e 013B     		subs	r3, r3, #1
 270              		.loc 1 183 0
 271 0010 AA42     		cmp	r2, r5
 272              		.loc 1 181 0
 273 0012 4362     		str	r3, [r0, #36]
 274              		.loc 1 184 0
 275 0014 28BF     		it	cs
 276 0016 0368     		ldrcs	r3, [r0]
 277              		.loc 1 182 0
 278 0018 8260     		str	r2, [r0, #8]
 279 001a 2160     		str	r1, [r4]
 280              		.loc 1 185 0
 281 001c 00F11000 		add	r0, r0, #16
 282              	.LVL21:
 283              		.loc 1 184 0
 284 0020 28BF     		it	cs
 285 0022 40F8083C 		strcs	r3, [r0, #-8]
ARM GAS  /tmp/cc1XOb3K.s 			page 6


 286              		.loc 1 185 0
 287 0026 FFF7FEFF 		bl	chSemSignalI
 288              	.LVL22:
 289              		.loc 1 186 0
 290 002a 0020     		movs	r0, #0
 291 002c 38BD     		pop	{r3, r4, r5, pc}
 292              	.LVL23:
 293              	.L11:
 294              		.loc 1 180 0
 295 002e 4FF0FF30 		mov	r0, #-1
 296              	.LVL24:
 297              		.loc 1 187 0
 298 0032 38BD     		pop	{r3, r4, r5, pc}
 299              		.cfi_endproc
 300              	.LFE11:
 301              		.size	chMBPostI, .-chMBPostI
 302              		.section	.text.chMBPostAheadS,"ax",%progbits
 303              		.align	2
 304              		.global	chMBPostAheadS
 305              		.thumb
 306              		.thumb_func
 307              		.type	chMBPostAheadS, %function
 308              	chMBPostAheadS:
 309              	.LFB13:
 310              		.loc 1 236 0
 311              		.cfi_startproc
 312              		@ args = 0, pretend = 0, frame = 0
 313              		@ frame_needed = 0, uses_anonymous_args = 0
 314              	.LVL25:
 315 0000 70B5     		push	{r4, r5, r6, lr}
 316              		.cfi_def_cfa_offset 16
 317              		.cfi_offset 4, -16
 318              		.cfi_offset 5, -12
 319              		.cfi_offset 6, -8
 320              		.cfi_offset 14, -4
 321              		.loc 1 236 0
 322 0002 0446     		mov	r4, r0
 323 0004 0E46     		mov	r6, r1
 324              		.loc 1 242 0
 325 0006 1C30     		adds	r0, r0, #28
 326              	.LVL26:
 327 0008 1146     		mov	r1, r2
 328              	.LVL27:
 329 000a FFF7FEFF 		bl	chSemWaitTimeoutS
 330              	.LVL28:
 331              		.loc 1 243 0
 332 000e 0546     		mov	r5, r0
 333 0010 80B9     		cbnz	r0, .L13
 334              		.loc 1 244 0
 335 0012 E368     		ldr	r3, [r4, #12]
 336 0014 2268     		ldr	r2, [r4]
 337 0016 043B     		subs	r3, r3, #4
 338 0018 9342     		cmp	r3, r2
 339 001a E360     		str	r3, [r4, #12]
 340              		.loc 1 245 0
 341 001c 38BF     		it	cc
 342 001e 6368     		ldrcc	r3, [r4, #4]
ARM GAS  /tmp/cc1XOb3K.s 			page 7


 343              		.loc 1 247 0
 344 0020 04F11000 		add	r0, r4, #16
 345              	.LVL29:
 346              		.loc 1 245 0
 347 0024 3CBF     		itt	cc
 348 0026 043B     		subcc	r3, r3, #4
 349 0028 E360     		strcc	r3, [r4, #12]
 350              		.loc 1 246 0
 351 002a 1E60     		str	r6, [r3]
 352              		.loc 1 247 0
 353 002c FFF7FEFF 		bl	chSemSignalI
 354              	.LVL30:
 355              		.loc 1 248 0
 356 0030 FFF7FEFF 		bl	chSchRescheduleS
 357              	.LVL31:
 358              	.L13:
 359              		.loc 1 251 0
 360 0034 2846     		mov	r0, r5
 361 0036 70BD     		pop	{r4, r5, r6, pc}
 362              		.cfi_endproc
 363              	.LFE13:
 364              		.size	chMBPostAheadS, .-chMBPostAheadS
 365              		.section	.text.chMBPostAhead,"ax",%progbits
 366              		.align	2
 367              		.global	chMBPostAhead
 368              		.thumb
 369              		.thumb_func
 370              		.type	chMBPostAhead, %function
 371              	chMBPostAhead:
 372              	.LFB12:
 373              		.loc 1 208 0
 374              		.cfi_startproc
 375              		@ args = 0, pretend = 0, frame = 0
 376              		@ frame_needed = 0, uses_anonymous_args = 0
 377              	.LVL32:
 378 0000 08B5     		push	{r3, lr}
 379              		.cfi_def_cfa_offset 8
 380              		.cfi_offset 3, -8
 381              		.cfi_offset 14, -4
 382              	.LBB7:
 383              		.loc 1 211 0
 384 0002 4023     		movs	r3, #64
 385              	@ 211 "../../os/kernel/src/chmboxes.c" 1
 386 0004 83F31188 		msr     BASEPRI, r3
 387              	@ 0 "" 2
 388              		.thumb
 389              	.LBE7:
 390              		.loc 1 212 0
 391 0008 FFF7FEFF 		bl	chMBPostAheadS
 392              	.LVL33:
 393              	.LBB8:
 394              		.loc 1 213 0
 395 000c 0023     		movs	r3, #0
 396              	@ 213 "../../os/kernel/src/chmboxes.c" 1
 397 000e 83F31188 		msr     BASEPRI, r3
 398              	@ 0 "" 2
 399              		.thumb
ARM GAS  /tmp/cc1XOb3K.s 			page 8


 400              	.LBE8:
 401              		.loc 1 215 0
 402 0012 08BD     		pop	{r3, pc}
 403              		.cfi_endproc
 404              	.LFE12:
 405              		.size	chMBPostAhead, .-chMBPostAhead
 406              		.section	.text.chMBPostAheadI,"ax",%progbits
 407              		.align	2
 408              		.global	chMBPostAheadI
 409              		.thumb
 410              		.thumb_func
 411              		.type	chMBPostAheadI, %function
 412              	chMBPostAheadI:
 413              	.LFB14:
 414              		.loc 1 267 0
 415              		.cfi_startproc
 416              		@ args = 0, pretend = 0, frame = 0
 417              		@ frame_needed = 0, uses_anonymous_args = 0
 418              	.LVL34:
 419              		.loc 1 272 0
 420 0000 426A     		ldr	r2, [r0, #36]
 421              		.loc 1 267 0
 422 0002 10B5     		push	{r4, lr}
 423              		.cfi_def_cfa_offset 8
 424              		.cfi_offset 4, -8
 425              		.cfi_offset 14, -4
 426              		.loc 1 272 0
 427 0004 002A     		cmp	r2, #0
 428 0006 13DD     		ble	.L19
 429              		.loc 1 275 0
 430 0008 C368     		ldr	r3, [r0, #12]
 431 000a 0468     		ldr	r4, [r0]
 432 000c 043B     		subs	r3, r3, #4
 433 000e A342     		cmp	r3, r4
 434 0010 C360     		str	r3, [r0, #12]
 435              		.loc 1 276 0
 436 0012 38BF     		it	cc
 437 0014 4368     		ldrcc	r3, [r0, #4]
 438              		.loc 1 274 0
 439 0016 02F1FF32 		add	r2, r2, #-1
 440              		.loc 1 276 0
 441 001a 38BF     		it	cc
 442 001c 043B     		subcc	r3, r3, #4
 443              		.loc 1 274 0
 444 001e 4262     		str	r2, [r0, #36]
 445              		.loc 1 276 0
 446 0020 38BF     		it	cc
 447 0022 C360     		strcc	r3, [r0, #12]
 448              		.loc 1 277 0
 449 0024 1960     		str	r1, [r3]
 450              		.loc 1 278 0
 451 0026 1030     		adds	r0, r0, #16
 452              	.LVL35:
 453 0028 FFF7FEFF 		bl	chSemSignalI
 454              	.LVL36:
 455              		.loc 1 279 0
 456 002c 0020     		movs	r0, #0
ARM GAS  /tmp/cc1XOb3K.s 			page 9


 457 002e 10BD     		pop	{r4, pc}
 458              	.LVL37:
 459              	.L19:
 460              		.loc 1 273 0
 461 0030 4FF0FF30 		mov	r0, #-1
 462              	.LVL38:
 463              		.loc 1 280 0
 464 0034 10BD     		pop	{r4, pc}
 465              		.cfi_endproc
 466              	.LFE14:
 467              		.size	chMBPostAheadI, .-chMBPostAheadI
 468 0036 00BF     		.section	.text.chMBFetchS,"ax",%progbits
 469              		.align	2
 470              		.global	chMBFetchS
 471              		.thumb
 472              		.thumb_func
 473              		.type	chMBFetchS, %function
 474              	chMBFetchS:
 475              	.LFB16:
 476              		.loc 1 329 0
 477              		.cfi_startproc
 478              		@ args = 0, pretend = 0, frame = 0
 479              		@ frame_needed = 0, uses_anonymous_args = 0
 480              	.LVL39:
 481 0000 70B5     		push	{r4, r5, r6, lr}
 482              		.cfi_def_cfa_offset 16
 483              		.cfi_offset 4, -16
 484              		.cfi_offset 5, -12
 485              		.cfi_offset 6, -8
 486              		.cfi_offset 14, -4
 487              		.loc 1 329 0
 488 0002 0446     		mov	r4, r0
 489 0004 0E46     		mov	r6, r1
 490              		.loc 1 335 0
 491 0006 1030     		adds	r0, r0, #16
 492              	.LVL40:
 493 0008 1146     		mov	r1, r2
 494              	.LVL41:
 495 000a FFF7FEFF 		bl	chSemWaitTimeoutS
 496              	.LVL42:
 497              		.loc 1 336 0
 498 000e 0546     		mov	r5, r0
 499 0010 80B9     		cbnz	r0, .L21
 500              		.loc 1 337 0
 501 0012 E368     		ldr	r3, [r4, #12]
 502              		.loc 1 338 0
 503 0014 6268     		ldr	r2, [r4, #4]
 504              		.loc 1 337 0
 505 0016 1968     		ldr	r1, [r3]
 506 0018 0433     		adds	r3, r3, #4
 507              		.loc 1 338 0
 508 001a 9342     		cmp	r3, r2
 509              		.loc 1 337 0
 510 001c E360     		str	r3, [r4, #12]
 511              		.loc 1 339 0
 512 001e 28BF     		it	cs
 513 0020 2368     		ldrcs	r3, [r4]
ARM GAS  /tmp/cc1XOb3K.s 			page 10


 514              		.loc 1 337 0
 515 0022 3160     		str	r1, [r6]
 516              		.loc 1 340 0
 517 0024 04F11C00 		add	r0, r4, #28
 518              	.LVL43:
 519              		.loc 1 339 0
 520 0028 28BF     		it	cs
 521 002a E360     		strcs	r3, [r4, #12]
 522              		.loc 1 340 0
 523 002c FFF7FEFF 		bl	chSemSignalI
 524              	.LVL44:
 525              		.loc 1 341 0
 526 0030 FFF7FEFF 		bl	chSchRescheduleS
 527              	.LVL45:
 528              	.L21:
 529              		.loc 1 344 0
 530 0034 2846     		mov	r0, r5
 531 0036 70BD     		pop	{r4, r5, r6, pc}
 532              		.cfi_endproc
 533              	.LFE16:
 534              		.size	chMBFetchS, .-chMBFetchS
 535              		.section	.text.chMBFetch,"ax",%progbits
 536              		.align	2
 537              		.global	chMBFetch
 538              		.thumb
 539              		.thumb_func
 540              		.type	chMBFetch, %function
 541              	chMBFetch:
 542              	.LFB15:
 543              		.loc 1 301 0
 544              		.cfi_startproc
 545              		@ args = 0, pretend = 0, frame = 0
 546              		@ frame_needed = 0, uses_anonymous_args = 0
 547              	.LVL46:
 548 0000 08B5     		push	{r3, lr}
 549              		.cfi_def_cfa_offset 8
 550              		.cfi_offset 3, -8
 551              		.cfi_offset 14, -4
 552              	.LBB9:
 553              		.loc 1 304 0
 554 0002 4023     		movs	r3, #64
 555              	@ 304 "../../os/kernel/src/chmboxes.c" 1
 556 0004 83F31188 		msr     BASEPRI, r3
 557              	@ 0 "" 2
 558              		.thumb
 559              	.LBE9:
 560              		.loc 1 305 0
 561 0008 FFF7FEFF 		bl	chMBFetchS
 562              	.LVL47:
 563              	.LBB10:
 564              		.loc 1 306 0
 565 000c 0023     		movs	r3, #0
 566              	@ 306 "../../os/kernel/src/chmboxes.c" 1
 567 000e 83F31188 		msr     BASEPRI, r3
 568              	@ 0 "" 2
 569              		.thumb
 570              	.LBE10:
ARM GAS  /tmp/cc1XOb3K.s 			page 11


 571              		.loc 1 308 0
 572 0012 08BD     		pop	{r3, pc}
 573              		.cfi_endproc
 574              	.LFE15:
 575              		.size	chMBFetch, .-chMBFetch
 576              		.section	.text.chMBFetchI,"ax",%progbits
 577              		.align	2
 578              		.global	chMBFetchI
 579              		.thumb
 580              		.thumb_func
 581              		.type	chMBFetchI, %function
 582              	chMBFetchI:
 583              	.LFB17:
 584              		.loc 1 360 0
 585              		.cfi_startproc
 586              		@ args = 0, pretend = 0, frame = 0
 587              		@ frame_needed = 0, uses_anonymous_args = 0
 588              	.LVL48:
 589              		.loc 1 365 0
 590 0000 8369     		ldr	r3, [r0, #24]
 591              		.loc 1 360 0
 592 0002 10B5     		push	{r4, lr}
 593              		.cfi_def_cfa_offset 8
 594              		.cfi_offset 4, -8
 595              		.cfi_offset 14, -4
 596              		.loc 1 365 0
 597 0004 002B     		cmp	r3, #0
 598 0006 13DD     		ble	.L27
 599              		.loc 1 367 0
 600 0008 5A1E     		subs	r2, r3, #1
 601              		.loc 1 368 0
 602 000a C368     		ldr	r3, [r0, #12]
 603              		.loc 1 367 0
 604 000c 8261     		str	r2, [r0, #24]
 605              		.loc 1 369 0
 606 000e 4268     		ldr	r2, [r0, #4]
 607              		.loc 1 368 0
 608 0010 1C68     		ldr	r4, [r3]
 609 0012 0433     		adds	r3, r3, #4
 610              		.loc 1 369 0
 611 0014 9342     		cmp	r3, r2
 612              		.loc 1 368 0
 613 0016 C360     		str	r3, [r0, #12]
 614              		.loc 1 370 0
 615 0018 28BF     		it	cs
 616 001a 0368     		ldrcs	r3, [r0]
 617              		.loc 1 368 0
 618 001c 0C60     		str	r4, [r1]
 619              		.loc 1 371 0
 620 001e 00F11C00 		add	r0, r0, #28
 621              	.LVL49:
 622              		.loc 1 370 0
 623 0022 28BF     		it	cs
 624 0024 40F8103C 		strcs	r3, [r0, #-16]
 625              		.loc 1 371 0
 626 0028 FFF7FEFF 		bl	chSemSignalI
 627              	.LVL50:
ARM GAS  /tmp/cc1XOb3K.s 			page 12


 628              		.loc 1 372 0
 629 002c 0020     		movs	r0, #0
 630 002e 10BD     		pop	{r4, pc}
 631              	.LVL51:
 632              	.L27:
 633              		.loc 1 366 0
 634 0030 4FF0FF30 		mov	r0, #-1
 635              	.LVL52:
 636              		.loc 1 373 0
 637 0034 10BD     		pop	{r4, pc}
 638              		.cfi_endproc
 639              	.LFE17:
 640              		.size	chMBFetchI, .-chMBFetchI
 641 0036 00BF     		.text
 642              	.Letext0:
 643              		.file 2 "/home/daniofb/arm-cm3-eabi/arm-cm3-eabi/sys-include/stdint.h"
 644              		.file 3 "../../os/ports/GCC/ARMCMx/chtypes.h"
 645              		.file 4 "../../os/kernel/include/chlists.h"
 646              		.file 5 "../../os/kernel/include/chthreads.h"
 647              		.file 6 "../../os/ports/GCC/ARMCMx/chcore_v7m.h"
 648              		.file 7 "../../os/kernel/include/chsem.h"
 649              		.file 8 "../../os/kernel/include/chmtx.h"
 650              		.file 9 "../../os/kernel/include/chmboxes.h"
 651              		.file 10 "../../os/kernel/include/chschd.h"