ARM GAS  /tmp/cclGhJaJ.s 			page 1


   1              		.syntax unified
   2              		.cpu cortex-m3
   3              		.fpu softvfp
   4              		.eabi_attribute 20, 1
   5              		.eabi_attribute 21, 1
   6              		.eabi_attribute 23, 3
   7              		.eabi_attribute 24, 1
   8              		.eabi_attribute 25, 1
   9              		.eabi_attribute 26, 1
  10              		.eabi_attribute 30, 2
  11              		.eabi_attribute 34, 1
  12              		.eabi_attribute 18, 4
  13              		.thumb
  14              		.file	"chmsg.c"
  15              		.text
  16              	.Ltext0:
  17              		.cfi_sections	.debug_frame
  18              		.section	.text.chMsgSend,"ax",%progbits
  19              		.align	2
  20              		.global	chMsgSend
  21              		.thumb
  22              		.thumb_func
  23              		.type	chMsgSend, %function
  24              	chMsgSend:
  25              	.LFB7:
  26              		.file 1 "../../os/kernel/src/chmsg.c"
  27              		.loc 1 68 0
  28              		.cfi_startproc
  29              		@ args = 0, pretend = 0, frame = 0
  30              		@ frame_needed = 0, uses_anonymous_args = 0
  31              	.LVL0:
  32 0000 38B5     		push	{r3, r4, r5, lr}
  33              		.cfi_def_cfa_offset 16
  34              		.cfi_offset 3, -16
  35              		.cfi_offset 4, -12
  36              		.cfi_offset 5, -8
  37              		.cfi_offset 14, -4
  38              		.loc 1 69 0
  39 0002 40F20003 		movw	r3, #:lower16:rlist
  40 0006 C0F20003 		movt	r3, #:upper16:rlist
  41 000a 9C69     		ldr	r4, [r3, #24]
  42              	.LVL1:
  43              	.LBB10:
  44              		.loc 1 73 0
  45 000c 4023     		movs	r3, #64
  46              	@ 73 "../../os/kernel/src/chmsg.c" 1
  47 000e 83F31188 		msr     BASEPRI, r3
  48              	@ 0 "" 2
  49              		.thumb
  50              	.LBE10:
  51              		.loc 1 75 0
  52 0012 00F12C02 		add	r2, r0, #44
  53              		.loc 1 77 0
  54 0016 057F     		ldrb	r5, [r0, #28]	@ zero_extendqisi2
  55              		.loc 1 75 0
  56 0018 6262     		str	r2, [r4, #36]
  57              	.LVL2:
ARM GAS  /tmp/cclGhJaJ.s 			page 2


  58              	.LBB11:
  59              	.LBB12:
  60              		.file 2 "../../os/kernel/include/chinline.h"
  61              		.loc 2 48 0
  62 001a 036B     		ldr	r3, [r0, #48]
  63              	.LBE12:
  64              	.LBE11:
  65              		.loc 1 77 0
  66 001c 0C2D     		cmp	r5, #12
  67              		.loc 1 74 0
  68 001e 6163     		str	r1, [r4, #52]
  69              	.LBB14:
  70              	.LBB13:
  71              		.loc 2 48 0
  72 0020 84E80C00 		stmia	r4, {r2, r3}
  73              		.loc 2 49 0
  74 0024 0463     		str	r4, [r0, #48]
  75 0026 1C60     		str	r4, [r3]
  76              	.LBE13:
  77              	.LBE14:
  78              		.loc 1 77 0
  79 0028 07D0     		beq	.L4
  80              	.LVL3:
  81              	.L2:
  82              		.loc 1 79 0
  83 002a 0A20     		movs	r0, #10
  84 002c FFF7FEFF 		bl	chSchGoSleepS
  85              	.LVL4:
  86              		.loc 1 80 0
  87 0030 606A     		ldr	r0, [r4, #36]
  88              	.LVL5:
  89              	.LBB15:
  90              		.loc 1 81 0
  91 0032 0023     		movs	r3, #0
  92              	@ 81 "../../os/kernel/src/chmsg.c" 1
  93 0034 83F31188 		msr     BASEPRI, r3
  94              	@ 0 "" 2
  95              		.thumb
  96              	.LBE15:
  97              		.loc 1 83 0
  98 0038 38BD     		pop	{r3, r4, r5, pc}
  99              	.LVL6:
 100              	.L4:
 101              		.loc 1 78 0
 102 003a FFF7FEFF 		bl	chSchReadyI
 103              	.LVL7:
 104 003e F4E7     		b	.L2
 105              		.cfi_endproc
 106              	.LFE7:
 107              		.size	chMsgSend, .-chMsgSend
 108              		.section	.text.chMsgWait,"ax",%progbits
 109              		.align	2
 110              		.global	chMsgWait
 111              		.thumb
 112              		.thumb_func
 113              		.type	chMsgWait, %function
 114              	chMsgWait:
ARM GAS  /tmp/cclGhJaJ.s 			page 3


 115              	.LFB8:
 116              		.loc 1 99 0
 117              		.cfi_startproc
 118              		@ args = 0, pretend = 0, frame = 0
 119              		@ frame_needed = 0, uses_anonymous_args = 0
 120 0000 10B5     		push	{r4, lr}
 121              		.cfi_def_cfa_offset 8
 122              		.cfi_offset 4, -8
 123              		.cfi_offset 14, -4
 124              	.LBB16:
 125              		.loc 1 102 0
 126 0002 4023     		movs	r3, #64
 127              	@ 102 "../../os/kernel/src/chmsg.c" 1
 128 0004 83F31188 		msr     BASEPRI, r3
 129              	@ 0 "" 2
 130              		.thumb
 131              	.LBE16:
 132              		.loc 1 103 0
 133 0008 40F20004 		movw	r4, #:lower16:rlist
 134 000c C0F20004 		movt	r4, #:upper16:rlist
 135 0010 A369     		ldr	r3, [r4, #24]
 136 0012 1A46     		mov	r2, r3
 137 0014 52F82C0F 		ldr	r0, [r2, #44]!
 138 0018 9042     		cmp	r0, r2
 139 001a 08D0     		beq	.L7
 140              	.L6:
 141              	.LVL8:
 142              	.LBB17:
 143              	.LBB18:
 144              		.loc 2 55 0
 145 001c 0168     		ldr	r1, [r0]
 146              	.LBE18:
 147              	.LBE17:
 148              		.loc 1 106 0
 149 001e 0B24     		movs	r4, #11
 150              	.LBB20:
 151              	.LBB19:
 152              		.loc 2 55 0
 153 0020 D962     		str	r1, [r3, #44]
 154 0022 4A60     		str	r2, [r1, #4]
 155              	.LBE19:
 156              	.LBE20:
 157              	.LBB21:
 158              		.loc 1 107 0
 159 0024 0023     		movs	r3, #0
 160              	.LBE21:
 161              		.loc 1 106 0
 162 0026 0477     		strb	r4, [r0, #28]
 163              	.LBB22:
 164              		.loc 1 107 0
 165              	@ 107 "../../os/kernel/src/chmsg.c" 1
 166 0028 83F31188 		msr     BASEPRI, r3
 167              	@ 0 "" 2
 168              		.thumb
 169              	.LBE22:
 170              		.loc 1 109 0
 171 002c 10BD     		pop	{r4, pc}
ARM GAS  /tmp/cclGhJaJ.s 			page 4


 172              	.LVL9:
 173              	.L7:
 174              		.loc 1 104 0
 175 002e 0C20     		movs	r0, #12
 176 0030 FFF7FEFF 		bl	chSchGoSleepS
 177              	.LVL10:
 178 0034 A369     		ldr	r3, [r4, #24]
 179 0036 D86A     		ldr	r0, [r3, #44]
 180 0038 03F12C02 		add	r2, r3, #44
 181 003c EEE7     		b	.L6
 182              		.cfi_endproc
 183              	.LFE8:
 184              		.size	chMsgWait, .-chMsgWait
 185 003e 00BF     		.section	.text.chMsgRelease,"ax",%progbits
 186              		.align	2
 187              		.global	chMsgRelease
 188              		.thumb
 189              		.thumb_func
 190              		.type	chMsgRelease, %function
 191              	chMsgRelease:
 192              	.LFB9:
 193              		.loc 1 121 0
 194              		.cfi_startproc
 195              		@ args = 0, pretend = 0, frame = 0
 196              		@ frame_needed = 0, uses_anonymous_args = 0
 197              	.LVL11:
 198 0000 08B5     		push	{r3, lr}
 199              		.cfi_def_cfa_offset 8
 200              		.cfi_offset 3, -8
 201              		.cfi_offset 14, -4
 202              	.LBB23:
 203              		.loc 1 123 0
 204 0002 4023     		movs	r3, #64
 205              	@ 123 "../../os/kernel/src/chmsg.c" 1
 206 0004 83F31188 		msr     BASEPRI, r3
 207              	@ 0 "" 2
 208              		.thumb
 209              	.LBE23:
 210              		.loc 1 126 0
 211 0008 FFF7FEFF 		bl	chSchWakeupS
 212              	.LVL12:
 213              	.LBB24:
 214              		.loc 1 127 0
 215 000c 0023     		movs	r3, #0
 216              	@ 127 "../../os/kernel/src/chmsg.c" 1
 217 000e 83F31188 		msr     BASEPRI, r3
 218              	@ 0 "" 2
 219              		.thumb
 220 0012 08BD     		pop	{r3, pc}
 221              	.LBE24:
 222              		.cfi_endproc
 223              	.LFE9:
 224              		.size	chMsgRelease, .-chMsgRelease
 225              		.text
 226              	.Letext0:
 227              		.file 3 "/home/daniofb/arm-cm3-eabi/arm-cm3-eabi/sys-include/stdint.h"
 228              		.file 4 "../../os/ports/GCC/ARMCMx/chtypes.h"
ARM GAS  /tmp/cclGhJaJ.s 			page 5


 229              		.file 5 "../../os/kernel/include/chlists.h"
 230              		.file 6 "../../os/kernel/include/chthreads.h"
 231              		.file 7 "../../os/ports/GCC/ARMCMx/chcore_v7m.h"
 232              		.file 8 "../../os/kernel/include/chschd.h"
 233              		.file 9 "../../os/kernel/include/chmtx.h"