ARM GAS  /tmp/cclGhJaJ.s 			page 1


   1              		.syntax unified
   2              		.cpu cortex-m3
   3              		.fpu softvfp
   4              		.eabi_attribute 20, 1
   5              		.eabi_attribute 21, 1
   6              		.eabi_attribute 23, 3
   7              		.eabi_attribute 24, 1
   8              		.eabi_attribute 25, 1
   9              		.eabi_attribute 26, 1
  10              		.eabi_attribute 30, 2
  11              		.eabi_attribute 34, 1
  12              		.eabi_attribute 18, 4
  13              		.thumb
  14              		.file	"chmsg.c"
  15              		.text
  16              	.Ltext0:
  17              		.cfi_sections	.debug_frame
  18              		.section	.text.chMsgSend,"ax",%progbits
  19              		.align	2
  20              		.global	chMsgSend
  21              		.thumb
  22              		.thumb_func
  23              		.type	chMsgSend, %function
  24              	chMsgSend:
  25              	.LFB7:
  26              		.file 1 "../../os/kernel/src/chmsg.c"
  27              		.loc 1 68 0
  28              		.cfi_startproc
  29              		@ args = 0, pretend = 0, frame = 0
  30              		@ frame_needed = 0, uses_anonymous_args = 0
  31              	.LVL0:
  32 0000 38B5     		push	{r3, r4, r5, lr}
  33              		.cfi_def_cfa_offset 16
  34              		.cfi_offset 3, -16
  35              		.cfi_offset 4, -12
  36              		.cfi_offset 5, -8
  37              		.cfi_offset 14, -4
  38              		.loc 1 69 0
  39 0002 40F20003 		movw	r3, #:lower16:rlist
  40 0006 C0F20003 		movt	r3, #:upper16:rlist
  41 000a 9C69     		ldr	r4, [r3, #24]
  42              	.LVL1:
  43              	.LBB10:
  44              		.loc 1 73 0
  45 000c 4023     		movs	r3, #64
  46              	@ 73 "../../os/kernel/src/chmsg.c" 1
  47 000e 83F31188 		msr     BASEPRI, r3
  48              	@ 0 "" 2
  49              		.thumb
  50              	.LBE10:
  51              		.loc 1 75 0
  52 0012 00F12C02 		add	r2, r0, #44
  53              		.loc 1 77 0
  54 0016 057F     		ldrb	r5, [r0, #28]	@ zero_extendqisi2
  55              		.loc 1 75 0
  56 0018 6262     		str	r2, [r4, #36]
  57              	.LVL2:
ARM GAS  /tmp/cclGhJaJ.s 			page 2


  58              	.LBB11:
  59              	.LBB12:
  60              		.file 2 "../../os/kernel/include/chinline.h"
  61              		.loc 2 48 0
  62 001a 036B     		ldr	r3, [r0, #48]
  63              	.LBE12:
  64              	.LBE11:
  65              		.loc 1 77 0
  66 001c 0C2D     		cmp	r5, #12
  67              		.loc 1 74 0
  68 001e 6163     		str	r1, [r4, #52]
  69              	.LBB14:
  70              	.LBB13:
  71              		.loc 2 48 0
  72 0020 84E80C00 		stmia	r4, {r2, r3}
  73              		.loc 2 49 0
  74 0024 0463     		str	r4, [r0, #48]
  75 0026 1C60     		str	r4, [r3]
  76              	.LBE13:
  77              	.LBE14:
  78              		.loc 1 77 0
  79 0028 07D0     		beq	.L4
  80              	.LVL3:
  81              	.L2:
  82              		.loc 1 79 0
  83 002a 0A20     		movs	r0, #10
  84 002c FFF7FEFF 		bl	chSchGoSleepS
  85              	.LVL4:
  86              		.loc 1 80 0
  87 0030 606A     		ldr	r0, [r4, #36]
  88              	.LVL5:
  89              	.LBB15:
  90              		.loc 1 81 0
  91 0032 0023     		movs	r3, #0
  92              	@ 81 "../../os/kernel/src/chmsg.c" 1
  93 0034 83F31188 		msr     BASEPRI, r3
  94              	@ 0 "" 2
  95              		.thumb
  96              	.LBE15:
  97              		.loc 1 83 0
  98 0038 38BD     		pop	{r3, r4, r5, pc}
  99              	.LVL6:
 100              	.L4:
 101              		.loc 1 78 0
 102 003a FFF7FEFF 		bl	chSchReadyI
 103              	.LVL7:
 104 003e F4E7     		b	.L2
 105              		.cfi_endproc
 106              	.LFE7:
 107              		.size	chMsgSend, .-chMsgSend
 108              		.section	.text.chMsgWait,"ax",%progbits
 109              		.align	2
 110              		.global	chMsgWait
 111              		.thumb
 112              		.thumb_func
 113              		.type	chMsgWait, %function
 114              	chMsgWait:
ARM GAS  /tmp/cclGhJaJ.s 			page 3


 115              	.LFB8:
 116              		.loc 1 99 0
 117              		.cfi_startproc
 118              		@ args = 0, pretend = 0, frame = 0
 119              		@ frame_needed = 0, uses_anonymous_args = 0
 120 0000 10B5     		push	{r4, lr}
 121              		.cfi_def_cfa_offset 8
 122              		.cfi_offset 4, -8
 123              		.cfi_offset 14, -4
 124              	.LBB16:
 125              		.loc 1 102 0
 126 0002 4023     		movs	r3, #64
 127              	@ 102 "../../os/kernel/src/chmsg.c" 1
 128 0004 83F31188 		msr     BASEPRI, r3
 129              	@ 0 "" 2
 130              		.thumb
 131              	.LBE16:
 132              		.loc 1 103 0
 133 0008 40F20004 		movw	r4, #:lower16:rlist
 134 000c C0F20004 		movt	r4, #:upper16:rlist
 135 0010 A369     		ldr	r3, [r4, #24]
 136 0012 1A46     		mov	r2, r3
 137 0014 52F82C0F 		ldr	r0, [r2, #44]!
 138 0018 9042     		cmp	r0, r2
 139 001a 08D0     		beq	.L7
 140              	.L6:
 141              	.LVL8:
 142              	.LBB17:
 143              	.LBB18:
 144              		.loc 2 55 0
 145 001c 0168     		ldr	r1, [r0]
 146              	.LBE18:
 147              	.LBE17:
 148              		.loc 1 106 0
 149 001e 0B24     		movs	r4, #11
 150              	.LBB20:
 151              	.LBB19:
 152              		.loc 2 55 0
 153 0020 D962     		str	r1, [r3, #44]
 154 0022 4A60     		str	r2, [r1, #4]
 155              	.LBE19:
 156              	.LBE20:
 157              	.LBB21:
 158              		.loc 1 107 0
 159 0024 0023     		movs	r3, #0
 160              	.LBE21:
 161              		.loc 1 106 0
 162 0026 0477     		strb	r4, [r0, #28]
 163              	.LBB22:
 164              		.loc 1 107 0
 165              	@ 107 "../../os/kernel/src/chmsg.c" 1
 166 0028 83F31188 		msr     BASEPRI, r3
 167              	@ 0 "" 2
 168              		.thumb
 169              	.LBE22:
 170              		.loc 1 109 0
 171 002c 10BD     		pop	{r4, pc}
ARM GAS  /tmp/cclGhJaJ.s 			page 4


 172              	.LVL9:
 173              	.L7:
 174              		.loc 1 104 0
 175 002e 0C20     		movs	r0, #12
 176 0030 FFF7FEFF 		bl	chSchGoSleepS
 177              	.LVL10:
 178 0034 A369     		ldr	r3, [r4, #24]
 179 0036 D86A     		ldr	r0, [r3, #44]
 180 0038 03F12C02 		add	r2, r3, #44
 181 003c EEE7     		b	.L6
 182              		.cfi_endproc
 183              	.LFE8:
 184              		.size	chMsgWait, .-chMsgWait
 185 003e 00BF     		.section	.text.chMsgRelease,"ax",%progbits
 186              		.align	2
 187              		.global	chMsgRelease
 188              		.thumb
 189              		.thumb_func
 190              		.type	chMsgRelease, %function
 191              	chMsgRelease:
 192              	.LFB9:
 193              		.loc 1 121 0
 194              		.cfi_startproc
 195              		@ args = 0, pretend = 0, frame = 0
 196              		@ frame_needed = 0, uses_anonymous_args = 0
 197              	.LVL11:
 198 0000 08B5     		push	{r3, lr}
 199              		.cfi_def_cfa_offset 8
 200              		.cfi_offset 3, -8
 201              		.cfi_offset 14, -4
 202              	.LBB23:
 203              		.loc 1 123 0
 204 0002 4023     		movs	r3, #64
 205              	@ 123 "../../os/kernel/src/chmsg.c" 1
 206 0004 83F31188 		msr     BASEPRI, r3
 207              	@ 0 "" 2
 208              		.thumb
 209              	.LBE23:
 210              		.loc 1 126 0
 211 0008 FFF7FEFF 		bl	chSchWakeupS
 212              	.LVL12:
 213              	.LBB24:
 214              		.loc 1 127 0
 215 000c 0023     		movs	r3, #0
 216              	@ 127 "../../os/kernel/src/chmsg.c" 1
 217 000e 83F31188 		msr     BASEPRI, r3
 218              	@ 0 "" 2
 219              		.thumb
 220 0012 08BD     		pop	{r3, pc}
 221              	.LBE24:
 222              		.cfi_endproc
 223              	.LFE9:
 224              		.size	chMsgRelease, .-chMsgRelease
 225              		.text
 226              	.Letext0:
 227              		.file 3 "/home/daniofb/arm-cm3-eabi/arm-cm3-eabi/sys-include/stdint.h"
 228              		.file 4 "../../os/ports/GCC/ARMCMx/chtypes.h"
ARM GAS  /tmp/cclGhJaJ.s 			page 5


 229              		.file 5 "../../os/kernel/include/chlists.h"
 230              		.file 6 "../../os/kernel/include/chthreads.h"
 231              		.file 7 "../../os/ports/GCC/ARMCMx/chcore_v7m.h"
 232              		.file 8 "../../os/kernel/include/chschd.h"
 233              		.file 9 "../../os/kernel/include/chmtx.h"
 234              		.section	.debug_info,"",%progbits
 235              	.Ldebug_info0:
 236 0000 29060000 		.4byte	0x629
 237 0004 0400     		.2byte	0x4
 238 0006 00000000 		.4byte	.Ldebug_abbrev0
 239 000a 04       		.byte	0x4
 240 000b 01       		.uleb128 0x1
 241 000c A0000000 		.4byte	.LASF63
 242 0010 01       		.byte	0x1
 243 0011 58030000 		.4byte	.LASF64
 244 0015 39010000 		.4byte	.LASF65
 245 0019 48000000 		.4byte	.Ldebug_ranges0+0x48
 246 001d 00000000 		.4byte	0
 247 0021 00000000 		.4byte	.Ldebug_line0
 248 0025 02       		.uleb128 0x2
 249 0026 04       		.byte	0x4
 250 0027 05       		.byte	0x5
 251 0028 696E7400 		.ascii	"int\000"
 252 002c 03       		.uleb128 0x3
 253 002d 04       		.byte	0x4
 254 002e 07       		.byte	0x7
 255 002f 7C010000 		.4byte	.LASF0
 256 0033 03       		.uleb128 0x3
 257 0034 01       		.byte	0x1
 258 0035 06       		.byte	0x6
 259 0036 4F000000 		.4byte	.LASF1
 260 003a 04       		.uleb128 0x4
 261 003b 42030000 		.4byte	.LASF5
 262 003f 03       		.byte	0x3
 263 0040 2A       		.byte	0x2a
 264 0041 45000000 		.4byte	0x45
 265 0045 03       		.uleb128 0x3
 266 0046 01       		.byte	0x1
 267 0047 08       		.byte	0x8
 268 0048 3D020000 		.4byte	.LASF2
 269 004c 03       		.uleb128 0x3
 270 004d 02       		.byte	0x2
 271 004e 05       		.byte	0x5
 272 004f 55020000 		.4byte	.LASF3
 273 0053 03       		.uleb128 0x3
 274 0054 02       		.byte	0x2
 275 0055 07       		.byte	0x7
 276 0056 A3010000 		.4byte	.LASF4
 277 005a 04       		.uleb128 0x4
 278 005b 35020000 		.4byte	.LASF6
 279 005f 03       		.byte	0x3
 280 0060 4F       		.byte	0x4f
 281 0061 65000000 		.4byte	0x65
 282 0065 03       		.uleb128 0x3
 283 0066 04       		.byte	0x4
 284 0067 05       		.byte	0x5
 285 0068 6B000000 		.4byte	.LASF7
ARM GAS  /tmp/cclGhJaJ.s 			page 6


 286 006c 04       		.uleb128 0x4
 287 006d B1020000 		.4byte	.LASF8
 288 0071 03       		.byte	0x3
 289 0072 50       		.byte	0x50
 290 0073 77000000 		.4byte	0x77
 291 0077 03       		.uleb128 0x3
 292 0078 04       		.byte	0x4
 293 0079 07       		.byte	0x7
 294 007a 89010000 		.4byte	.LASF9
 295 007e 03       		.uleb128 0x3
 296 007f 08       		.byte	0x8
 297 0080 05       		.byte	0x5
 298 0081 41000000 		.4byte	.LASF10
 299 0085 03       		.uleb128 0x3
 300 0086 08       		.byte	0x8
 301 0087 07       		.byte	0x7
 302 0088 1A000000 		.4byte	.LASF11
 303 008c 03       		.uleb128 0x3
 304 008d 01       		.byte	0x1
 305 008e 02       		.byte	0x2
 306 008f 2F020000 		.4byte	.LASF12
 307 0093 04       		.uleb128 0x4
 308 0094 BC010000 		.4byte	.LASF13
 309 0098 04       		.byte	0x4
 310 0099 25       		.byte	0x25
 311 009a 3A000000 		.4byte	0x3a
 312 009e 04       		.uleb128 0x4
 313 009f 7E000000 		.4byte	.LASF14
 314 00a3 04       		.byte	0x4
 315 00a4 26       		.byte	0x26
 316 00a5 3A000000 		.4byte	0x3a
 317 00a9 04       		.uleb128 0x4
 318 00aa 18020000 		.4byte	.LASF15
 319 00ae 04       		.byte	0x4
 320 00af 27       		.byte	0x27
 321 00b0 3A000000 		.4byte	0x3a
 322 00b4 04       		.uleb128 0x4
 323 00b5 27020000 		.4byte	.LASF16
 324 00b9 04       		.byte	0x4
 325 00ba 29       		.byte	0x29
 326 00bb 6C000000 		.4byte	0x6c
 327 00bf 04       		.uleb128 0x4
 328 00c0 B6010000 		.4byte	.LASF17
 329 00c4 04       		.byte	0x4
 330 00c5 2A       		.byte	0x2a
 331 00c6 5A000000 		.4byte	0x5a
 332 00ca 04       		.uleb128 0x4
 333 00cb D0010000 		.4byte	.LASF18
 334 00cf 04       		.byte	0x4
 335 00d0 2C       		.byte	0x2c
 336 00d1 6C000000 		.4byte	0x6c
 337 00d5 04       		.uleb128 0x4
 338 00d6 E6020000 		.4byte	.LASF19
 339 00da 04       		.byte	0x4
 340 00db 2E       		.byte	0x2e
 341 00dc 6C000000 		.4byte	0x6c
 342 00e0 04       		.uleb128 0x4
ARM GAS  /tmp/cclGhJaJ.s 			page 7


 343 00e1 84020000 		.4byte	.LASF20
 344 00e5 05       		.byte	0x5
 345 00e6 23       		.byte	0x23
 346 00e7 EB000000 		.4byte	0xeb
 347 00eb 05       		.uleb128 0x5
 348 00ec 84020000 		.4byte	.LASF20
 349 00f0 48       		.byte	0x48
 350 00f1 06       		.byte	0x6
 351 00f2 57       		.byte	0x57
 352 00f3 DC010000 		.4byte	0x1dc
 353 00f7 06       		.uleb128 0x6
 354 00f8 75020000 		.4byte	.LASF21
 355 00fc 06       		.byte	0x6
 356 00fd 58       		.byte	0x58
 357 00fe FD010000 		.4byte	0x1fd
 358 0102 00       		.byte	0
 359 0103 06       		.uleb128 0x6
 360 0104 20020000 		.4byte	.LASF22
 361 0108 06       		.byte	0x6
 362 0109 5A       		.byte	0x5a
 363 010a FD010000 		.4byte	0x1fd
 364 010e 04       		.byte	0x4
 365 010f 06       		.uleb128 0x6
 366 0110 3A000000 		.4byte	.LASF23
 367 0114 06       		.byte	0x6
 368 0115 5C       		.byte	0x5c
 369 0116 B4000000 		.4byte	0xb4
 370 011a 08       		.byte	0x8
 371 011b 06       		.uleb128 0x6
 372 011c 7C030000 		.4byte	.LASF24
 373 0120 06       		.byte	0x6
 374 0121 5D       		.byte	0x5d
 375 0122 B7020000 		.4byte	0x2b7
 376 0126 0C       		.byte	0xc
 377 0127 06       		.uleb128 0x6
 378 0128 87000000 		.4byte	.LASF25
 379 012c 06       		.byte	0x6
 380 012d 5F       		.byte	0x5f
 381 012e FD010000 		.4byte	0x1fd
 382 0132 10       		.byte	0x10
 383 0133 06       		.uleb128 0x6
 384 0134 EB010000 		.4byte	.LASF26
 385 0138 06       		.byte	0x6
 386 0139 60       		.byte	0x60
 387 013a FD010000 		.4byte	0x1fd
 388 013e 14       		.byte	0x14
 389 013f 06       		.uleb128 0x6
 390 0140 51030000 		.4byte	.LASF27
 391 0144 06       		.byte	0x6
 392 0145 67       		.byte	0x67
 393 0146 B7030000 		.4byte	0x3b7
 394 014a 18       		.byte	0x18
 395 014b 06       		.uleb128 0x6
 396 014c 5F020000 		.4byte	.LASF28
 397 0150 06       		.byte	0x6
 398 0151 72       		.byte	0x72
 399 0152 9E000000 		.4byte	0x9e
ARM GAS  /tmp/cclGhJaJ.s 			page 8


 400 0156 1C       		.byte	0x1c
 401 0157 06       		.uleb128 0x6
 402 0158 7C020000 		.4byte	.LASF29
 403 015c 06       		.byte	0x6
 404 015d 76       		.byte	0x76
 405 015e 93000000 		.4byte	0x93
 406 0162 1D       		.byte	0x1d
 407 0163 06       		.uleb128 0x6
 408 0164 2B030000 		.4byte	.LASF30
 409 0168 06       		.byte	0x6
 410 0169 7B       		.byte	0x7b
 411 016a A9000000 		.4byte	0xa9
 412 016e 1E       		.byte	0x1e
 413 016f 06       		.uleb128 0x6
 414 0170 FB020000 		.4byte	.LASF31
 415 0174 06       		.byte	0x6
 416 0175 88       		.byte	0x88
 417 0176 DF020000 		.4byte	0x2df
 418 017a 20       		.byte	0x20
 419 017b 07       		.uleb128 0x7
 420 017c 705F7500 		.ascii	"p_u\000"
 421 0180 06       		.byte	0x6
 422 0181 AD       		.byte	0xad
 423 0182 82030000 		.4byte	0x382
 424 0186 24       		.byte	0x24
 425 0187 06       		.uleb128 0x6
 426 0188 82030000 		.4byte	.LASF32
 427 018c 06       		.byte	0x6
 428 018d B2       		.byte	0xb2
 429 018e 23020000 		.4byte	0x223
 430 0192 28       		.byte	0x28
 431 0193 06       		.uleb128 0x6
 432 0194 09030000 		.4byte	.LASF33
 433 0198 06       		.byte	0x6
 434 0199 B8       		.byte	0xb8
 435 019a 03020000 		.4byte	0x203
 436 019e 2C       		.byte	0x2c
 437 019f 06       		.uleb128 0x6
 438 01a0 00000000 		.4byte	.LASF34
 439 01a4 06       		.byte	0x6
 440 01a5 BC       		.byte	0xbc
 441 01a6 BF000000 		.4byte	0xbf
 442 01aa 34       		.byte	0x34
 443 01ab 06       		.uleb128 0x6
 444 01ac A6020000 		.4byte	.LASF35
 445 01b0 06       		.byte	0x6
 446 01b1 C2       		.byte	0xc2
 447 01b2 CA000000 		.4byte	0xca
 448 01b6 38       		.byte	0x38
 449 01b7 06       		.uleb128 0x6
 450 01b8 4B020000 		.4byte	.LASF36
 451 01bc 06       		.byte	0x6
 452 01bd C9       		.byte	0xc9
 453 01be C9030000 		.4byte	0x3c9
 454 01c2 3C       		.byte	0x3c
 455 01c3 06       		.uleb128 0x6
 456 01c4 F0020000 		.4byte	.LASF37
ARM GAS  /tmp/cclGhJaJ.s 			page 9


 457 01c8 06       		.byte	0x6
 458 01c9 CD       		.byte	0xcd
 459 01ca B4000000 		.4byte	0xb4
 460 01ce 40       		.byte	0x40
 461 01cf 06       		.uleb128 0x6
 462 01d0 5B000000 		.4byte	.LASF38
 463 01d4 06       		.byte	0x6
 464 01d5 D3       		.byte	0xd3
 465 01d6 39020000 		.4byte	0x239
 466 01da 44       		.byte	0x44
 467 01db 00       		.byte	0
 468 01dc 08       		.uleb128 0x8
 469 01dd 08       		.byte	0x8
 470 01de 05       		.byte	0x5
 471 01df 5A       		.byte	0x5a
 472 01e0 FD010000 		.4byte	0x1fd
 473 01e4 06       		.uleb128 0x6
 474 01e5 75020000 		.4byte	.LASF21
 475 01e9 05       		.byte	0x5
 476 01ea 5B       		.byte	0x5b
 477 01eb FD010000 		.4byte	0x1fd
 478 01ef 00       		.byte	0
 479 01f0 06       		.uleb128 0x6
 480 01f1 20020000 		.4byte	.LASF22
 481 01f5 05       		.byte	0x5
 482 01f6 5D       		.byte	0x5d
 483 01f7 FD010000 		.4byte	0x1fd
 484 01fb 04       		.byte	0x4
 485 01fc 00       		.byte	0
 486 01fd 09       		.uleb128 0x9
 487 01fe 04       		.byte	0x4
 488 01ff E0000000 		.4byte	0xe0
 489 0203 04       		.uleb128 0x4
 490 0204 F9010000 		.4byte	.LASF39
 491 0208 05       		.byte	0x5
 492 0209 5F       		.byte	0x5f
 493 020a DC010000 		.4byte	0x1dc
 494 020e 08       		.uleb128 0x8
 495 020f 04       		.byte	0x4
 496 0210 05       		.byte	0x5
 497 0211 64       		.byte	0x64
 498 0212 23020000 		.4byte	0x223
 499 0216 06       		.uleb128 0x6
 500 0217 75020000 		.4byte	.LASF21
 501 021b 05       		.byte	0x5
 502 021c 66       		.byte	0x66
 503 021d FD010000 		.4byte	0x1fd
 504 0221 00       		.byte	0
 505 0222 00       		.byte	0
 506 0223 04       		.uleb128 0x4
 507 0224 C4010000 		.4byte	.LASF40
 508 0228 05       		.byte	0x5
 509 0229 69       		.byte	0x69
 510 022a 0E020000 		.4byte	0x20e
 511 022e 04       		.uleb128 0x4
 512 022f 97000000 		.4byte	.LASF41
 513 0233 07       		.byte	0x7
ARM GAS  /tmp/cclGhJaJ.s 			page 10


 514 0234 DE       		.byte	0xde
 515 0235 39020000 		.4byte	0x239
 516 0239 0A       		.uleb128 0xa
 517 023a 04       		.byte	0x4
 518 023b 0B       		.uleb128 0xb
 519 023c 02030000 		.4byte	.LASF42
 520 0240 24       		.byte	0x24
 521 0241 07       		.byte	0x7
 522 0242 0501     		.2byte	0x105
 523 0244 B7020000 		.4byte	0x2b7
 524 0248 0C       		.uleb128 0xc
 525 0249 723400   		.ascii	"r4\000"
 526 024c 07       		.byte	0x7
 527 024d 1801     		.2byte	0x118
 528 024f 2E020000 		.4byte	0x22e
 529 0253 00       		.byte	0
 530 0254 0C       		.uleb128 0xc
 531 0255 723500   		.ascii	"r5\000"
 532 0258 07       		.byte	0x7
 533 0259 1901     		.2byte	0x119
 534 025b 2E020000 		.4byte	0x22e
 535 025f 04       		.byte	0x4
 536 0260 0C       		.uleb128 0xc
 537 0261 723600   		.ascii	"r6\000"
 538 0264 07       		.byte	0x7
 539 0265 1A01     		.2byte	0x11a
 540 0267 2E020000 		.4byte	0x22e
 541 026b 08       		.byte	0x8
 542 026c 0C       		.uleb128 0xc
 543 026d 723700   		.ascii	"r7\000"
 544 0270 07       		.byte	0x7
 545 0271 1B01     		.2byte	0x11b
 546 0273 2E020000 		.4byte	0x22e
 547 0277 0C       		.byte	0xc
 548 0278 0C       		.uleb128 0xc
 549 0279 723800   		.ascii	"r8\000"
 550 027c 07       		.byte	0x7
 551 027d 1C01     		.2byte	0x11c
 552 027f 2E020000 		.4byte	0x22e
 553 0283 10       		.byte	0x10
 554 0284 0C       		.uleb128 0xc
 555 0285 723900   		.ascii	"r9\000"
 556 0288 07       		.byte	0x7
 557 0289 1D01     		.2byte	0x11d
 558 028b 2E020000 		.4byte	0x22e
 559 028f 14       		.byte	0x14
 560 0290 0C       		.uleb128 0xc
 561 0291 72313000 		.ascii	"r10\000"
 562 0295 07       		.byte	0x7
 563 0296 1E01     		.2byte	0x11e
 564 0298 2E020000 		.4byte	0x22e
 565 029c 18       		.byte	0x18
 566 029d 0C       		.uleb128 0xc
 567 029e 72313100 		.ascii	"r11\000"
 568 02a2 07       		.byte	0x7
 569 02a3 1F01     		.2byte	0x11f
 570 02a5 2E020000 		.4byte	0x22e
ARM GAS  /tmp/cclGhJaJ.s 			page 11


 571 02a9 1C       		.byte	0x1c
 572 02aa 0C       		.uleb128 0xc
 573 02ab 6C7200   		.ascii	"lr\000"
 574 02ae 07       		.byte	0x7
 575 02af 2001     		.2byte	0x120
 576 02b1 2E020000 		.4byte	0x22e
 577 02b5 20       		.byte	0x20
 578 02b6 00       		.byte	0
 579 02b7 0B       		.uleb128 0xb
 580 02b8 9B010000 		.4byte	.LASF43
 581 02bc 04       		.byte	0x4
 582 02bd 07       		.byte	0x7
 583 02be 2A01     		.2byte	0x12a
 584 02c0 D2020000 		.4byte	0x2d2
 585 02c4 0C       		.uleb128 0xc
 586 02c5 72313300 		.ascii	"r13\000"
 587 02c9 07       		.byte	0x7
 588 02ca 2B01     		.2byte	0x12b
 589 02cc D2020000 		.4byte	0x2d2
 590 02d0 00       		.byte	0
 591 02d1 00       		.byte	0
 592 02d2 09       		.uleb128 0x9
 593 02d3 04       		.byte	0x4
 594 02d4 3B020000 		.4byte	0x23b
 595 02d8 03       		.uleb128 0x3
 596 02d9 04       		.byte	0x4
 597 02da 07       		.byte	0x7
 598 02db E2010000 		.4byte	.LASF44
 599 02df 0D       		.uleb128 0xd
 600 02e0 D5000000 		.4byte	0xd5
 601 02e4 08       		.uleb128 0x8
 602 02e5 1C       		.byte	0x1c
 603 02e6 08       		.byte	0x8
 604 02e7 57       		.byte	0x57
 605 02e8 35030000 		.4byte	0x335
 606 02ec 06       		.uleb128 0x6
 607 02ed BA020000 		.4byte	.LASF45
 608 02f1 08       		.byte	0x8
 609 02f2 58       		.byte	0x58
 610 02f3 03020000 		.4byte	0x203
 611 02f7 00       		.byte	0
 612 02f8 06       		.uleb128 0x6
 613 02f9 67020000 		.4byte	.LASF46
 614 02fd 08       		.byte	0x8
 615 02fe 59       		.byte	0x59
 616 02ff B4000000 		.4byte	0xb4
 617 0303 08       		.byte	0x8
 618 0304 06       		.uleb128 0x6
 619 0305 F3010000 		.4byte	.LASF47
 620 0309 08       		.byte	0x8
 621 030a 5B       		.byte	0x5b
 622 030b B7020000 		.4byte	0x2b7
 623 030f 0C       		.byte	0xc
 624 0310 06       		.uleb128 0x6
 625 0311 8F000000 		.4byte	.LASF48
 626 0315 08       		.byte	0x8
 627 0316 5E       		.byte	0x5e
ARM GAS  /tmp/cclGhJaJ.s 			page 12


 628 0317 FD010000 		.4byte	0x1fd
 629 031b 10       		.byte	0x10
 630 031c 06       		.uleb128 0x6
 631 031d 10020000 		.4byte	.LASF49
 632 0321 08       		.byte	0x8
 633 0322 5F       		.byte	0x5f
 634 0323 FD010000 		.4byte	0x1fd
 635 0327 14       		.byte	0x14
 636 0328 06       		.uleb128 0x6
 637 0329 06020000 		.4byte	.LASF50
 638 032d 08       		.byte	0x8
 639 032e 62       		.byte	0x62
 640 032f FD010000 		.4byte	0x1fd
 641 0333 18       		.byte	0x18
 642 0334 00       		.byte	0
 643 0335 04       		.uleb128 0x4
 644 0336 32030000 		.4byte	.LASF51
 645 033a 08       		.byte	0x8
 646 033b 64       		.byte	0x64
 647 033c E4020000 		.4byte	0x2e4
 648 0340 05       		.uleb128 0x5
 649 0341 DC010000 		.4byte	.LASF52
 650 0345 10       		.byte	0x10
 651 0346 09       		.byte	0x9
 652 0347 25       		.byte	0x25
 653 0348 71030000 		.4byte	0x371
 654 034c 06       		.uleb128 0x6
 655 034d 63000000 		.4byte	.LASF53
 656 0351 09       		.byte	0x9
 657 0352 26       		.byte	0x26
 658 0353 03020000 		.4byte	0x203
 659 0357 00       		.byte	0
 660 0358 06       		.uleb128 0x6
 661 0359 74030000 		.4byte	.LASF54
 662 035d 09       		.byte	0x9
 663 035e 28       		.byte	0x28
 664 035f FD010000 		.4byte	0x1fd
 665 0363 08       		.byte	0x8
 666 0364 06       		.uleb128 0x6
 667 0365 DF020000 		.4byte	.LASF55
 668 0369 09       		.byte	0x9
 669 036a 2A       		.byte	0x2a
 670 036b 71030000 		.4byte	0x371
 671 036f 0C       		.byte	0xc
 672 0370 00       		.byte	0
 673 0371 09       		.uleb128 0x9
 674 0372 04       		.byte	0x4
 675 0373 40030000 		.4byte	0x340
 676 0377 04       		.uleb128 0x4
 677 0378 DC010000 		.4byte	.LASF52
 678 037c 09       		.byte	0x9
 679 037d 2C       		.byte	0x2c
 680 037e 40030000 		.4byte	0x340
 681 0382 0E       		.uleb128 0xe
 682 0383 04       		.byte	0x4
 683 0384 06       		.byte	0x6
 684 0385 8F       		.byte	0x8f
ARM GAS  /tmp/cclGhJaJ.s 			page 13


 685 0386 B7030000 		.4byte	0x3b7
 686 038a 0F       		.uleb128 0xf
 687 038b 13000000 		.4byte	.LASF56
 688 038f 06       		.byte	0x6
 689 0390 96       		.byte	0x96
 690 0391 BF000000 		.4byte	0xbf
 691 0395 0F       		.uleb128 0xf
 692 0396 31000000 		.4byte	.LASF57
 693 039a 06       		.byte	0x6
 694 039b 9D       		.byte	0x9d
 695 039c BF000000 		.4byte	0xbf
 696 03a0 0F       		.uleb128 0xf
 697 03a1 4A030000 		.4byte	.LASF58
 698 03a5 06       		.byte	0x6
 699 03a6 A4       		.byte	0xa4
 700 03a7 39020000 		.4byte	0x239
 701 03ab 0F       		.uleb128 0xf
 702 03ac 6E020000 		.4byte	.LASF59
 703 03b0 06       		.byte	0x6
 704 03b1 AB       		.byte	0xab
 705 03b2 CA000000 		.4byte	0xca
 706 03b6 00       		.byte	0
 707 03b7 09       		.uleb128 0x9
 708 03b8 04       		.byte	0x4
 709 03b9 BD030000 		.4byte	0x3bd
 710 03bd 10       		.uleb128 0x10
 711 03be C2030000 		.4byte	0x3c2
 712 03c2 03       		.uleb128 0x3
 713 03c3 01       		.byte	0x1
 714 03c4 08       		.byte	0x8
 715 03c5 CE020000 		.4byte	.LASF60
 716 03c9 09       		.uleb128 0x9
 717 03ca 04       		.byte	0x4
 718 03cb 77030000 		.4byte	0x377
 719 03cf 11       		.uleb128 0x11
 720 03d0 06000000 		.4byte	.LASF66
 721 03d4 02       		.byte	0x2
 722 03d5 2D       		.byte	0x2d
 723 03d6 03       		.byte	0x3
 724 03d7 F1030000 		.4byte	0x3f1
 725 03db 12       		.uleb128 0x12
 726 03dc 747000   		.ascii	"tp\000"
 727 03df 02       		.byte	0x2
 728 03e0 2D       		.byte	0x2d
 729 03e1 FD010000 		.4byte	0x1fd
 730 03e5 12       		.uleb128 0x12
 731 03e6 74717000 		.ascii	"tqp\000"
 732 03ea 02       		.byte	0x2
 733 03eb 2D       		.byte	0x2d
 734 03ec F1030000 		.4byte	0x3f1
 735 03f0 00       		.byte	0
 736 03f1 09       		.uleb128 0x9
 737 03f2 04       		.byte	0x4
 738 03f3 03020000 		.4byte	0x203
 739 03f7 13       		.uleb128 0x13
 740 03f8 D3020000 		.4byte	.LASF67
 741 03fc 02       		.byte	0x2
ARM GAS  /tmp/cclGhJaJ.s 			page 14


 742 03fd 34       		.byte	0x34
 743 03fe FD010000 		.4byte	0x1fd
 744 0402 03       		.byte	0x3
 745 0403 1D040000 		.4byte	0x41d
 746 0407 12       		.uleb128 0x12
 747 0408 74717000 		.ascii	"tqp\000"
 748 040c 02       		.byte	0x2
 749 040d 34       		.byte	0x34
 750 040e F1030000 		.4byte	0x3f1
 751 0412 14       		.uleb128 0x14
 752 0413 747000   		.ascii	"tp\000"
 753 0416 02       		.byte	0x2
 754 0417 35       		.byte	0x35
 755 0418 FD010000 		.4byte	0x1fd
 756 041c 00       		.byte	0
 757 041d 15       		.uleb128 0x15
 758 041e 74000000 		.4byte	.LASF61
 759 0422 01       		.byte	0x1
 760 0423 44       		.byte	0x44
 761 0424 BF000000 		.4byte	0xbf
 762 0428 00000000 		.4byte	.LFB7
 763 042c 40000000 		.4byte	.LFE7-.LFB7
 764 0430 01       		.uleb128 0x1
 765 0431 9C       		.byte	0x9c
 766 0432 D7040000 		.4byte	0x4d7
 767 0436 16       		.uleb128 0x16
 768 0437 747000   		.ascii	"tp\000"
 769 043a 01       		.byte	0x1
 770 043b 44       		.byte	0x44
 771 043c FD010000 		.4byte	0x1fd
 772 0440 00000000 		.4byte	.LLST0
 773 0444 16       		.uleb128 0x16
 774 0445 6D736700 		.ascii	"msg\000"
 775 0449 01       		.byte	0x1
 776 044a 44       		.byte	0x44
 777 044b BF000000 		.4byte	0xbf
 778 044f 3A000000 		.4byte	.LLST1
 779 0453 17       		.uleb128 0x17
 780 0454 63747000 		.ascii	"ctp\000"
 781 0458 01       		.byte	0x1
 782 0459 45       		.byte	0x45
 783 045a FD010000 		.4byte	0x1fd
 784 045e 01       		.uleb128 0x1
 785 045f 54       		.byte	0x54
 786 0460 18       		.uleb128 0x18
 787 0461 0C000000 		.4byte	.LBB10
 788 0465 06000000 		.4byte	.LBE10-.LBB10
 789 0469 7B040000 		.4byte	0x47b
 790 046d 17       		.uleb128 0x17
 791 046e 746D7000 		.ascii	"tmp\000"
 792 0472 01       		.byte	0x1
 793 0473 49       		.byte	0x49
 794 0474 6C000000 		.4byte	0x6c
 795 0478 01       		.uleb128 0x1
 796 0479 53       		.byte	0x53
 797 047a 00       		.byte	0
 798 047b 19       		.uleb128 0x19
ARM GAS  /tmp/cclGhJaJ.s 			page 15


 799 047c CF030000 		.4byte	0x3cf
 800 0480 1A000000 		.4byte	.LBB11
 801 0484 00000000 		.4byte	.Ldebug_ranges0+0
 802 0488 01       		.byte	0x1
 803 0489 4C       		.byte	0x4c
 804 048a 9F040000 		.4byte	0x49f
 805 048e 1A       		.uleb128 0x1a
 806 048f E5030000 		.4byte	0x3e5
 807 0493 7F000000 		.4byte	.LLST2
 808 0497 1B       		.uleb128 0x1b
 809 0498 DB030000 		.4byte	0x3db
 810 049c 01       		.uleb128 0x1
 811 049d 54       		.byte	0x54
 812 049e 00       		.byte	0
 813 049f 18       		.uleb128 0x18
 814 04a0 32000000 		.4byte	.LBB15
 815 04a4 06000000 		.4byte	.LBE15-.LBB15
 816 04a8 BA040000 		.4byte	0x4ba
 817 04ac 17       		.uleb128 0x17
 818 04ad 746D7000 		.ascii	"tmp\000"
 819 04b1 01       		.byte	0x1
 820 04b2 51       		.byte	0x51
 821 04b3 6C000000 		.4byte	0x6c
 822 04b7 01       		.uleb128 0x1
 823 04b8 53       		.byte	0x53
 824 04b9 00       		.byte	0
 825 04ba 1C       		.uleb128 0x1c
 826 04bb 30000000 		.4byte	.LVL4
 827 04bf F4050000 		.4byte	0x5f4
 828 04c3 CD040000 		.4byte	0x4cd
 829 04c7 1D       		.uleb128 0x1d
 830 04c8 01       		.uleb128 0x1
 831 04c9 50       		.byte	0x50
 832 04ca 01       		.uleb128 0x1
 833 04cb 3A       		.byte	0x3a
 834 04cc 00       		.byte	0
 835 04cd 1E       		.uleb128 0x1e
 836 04ce 3E000000 		.4byte	.LVL7
 837 04d2 05060000 		.4byte	0x605
 838 04d6 00       		.byte	0
 839 04d7 15       		.uleb128 0x15
 840 04d8 21030000 		.4byte	.LASF62
 841 04dc 01       		.byte	0x1
 842 04dd 63       		.byte	0x63
 843 04de FD010000 		.4byte	0x1fd
 844 04e2 00000000 		.4byte	.LFB8
 845 04e6 3E000000 		.4byte	.LFE8-.LFB8
 846 04ea 01       		.uleb128 0x1
 847 04eb 9C       		.byte	0x9c
 848 04ec 68050000 		.4byte	0x568
 849 04f0 14       		.uleb128 0x14
 850 04f1 747000   		.ascii	"tp\000"
 851 04f4 01       		.byte	0x1
 852 04f5 64       		.byte	0x64
 853 04f6 FD010000 		.4byte	0x1fd
 854 04fa 18       		.uleb128 0x18
 855 04fb 02000000 		.4byte	.LBB16
ARM GAS  /tmp/cclGhJaJ.s 			page 16


 856 04ff 06000000 		.4byte	.LBE16-.LBB16
 857 0503 15050000 		.4byte	0x515
 858 0507 17       		.uleb128 0x17
 859 0508 746D7000 		.ascii	"tmp\000"
 860 050c 01       		.byte	0x1
 861 050d 66       		.byte	0x66
 862 050e 6C000000 		.4byte	0x6c
 863 0512 01       		.uleb128 0x1
 864 0513 53       		.byte	0x53
 865 0514 00       		.byte	0
 866 0515 19       		.uleb128 0x19
 867 0516 F7030000 		.4byte	0x3f7
 868 051a 1C000000 		.4byte	.LBB17
 869 051e 18000000 		.4byte	.Ldebug_ranges0+0x18
 870 0522 01       		.byte	0x1
 871 0523 69       		.byte	0x69
 872 0524 41050000 		.4byte	0x541
 873 0528 1A       		.uleb128 0x1a
 874 0529 07040000 		.4byte	0x407
 875 052d BD000000 		.4byte	.LLST3
 876 0531 1F       		.uleb128 0x1f
 877 0532 18000000 		.4byte	.Ldebug_ranges0+0x18
 878 0536 20       		.uleb128 0x20
 879 0537 12040000 		.4byte	0x412
 880 053b D0000000 		.4byte	.LLST4
 881 053f 00       		.byte	0
 882 0540 00       		.byte	0
 883 0541 21       		.uleb128 0x21
 884 0542 30000000 		.4byte	.Ldebug_ranges0+0x30
 885 0546 58050000 		.4byte	0x558
 886 054a 17       		.uleb128 0x17
 887 054b 746D7000 		.ascii	"tmp\000"
 888 054f 01       		.byte	0x1
 889 0550 6B       		.byte	0x6b
 890 0551 6C000000 		.4byte	0x6c
 891 0555 01       		.uleb128 0x1
 892 0556 53       		.byte	0x53
 893 0557 00       		.byte	0
 894 0558 22       		.uleb128 0x22
 895 0559 34000000 		.4byte	.LVL10
 896 055d F4050000 		.4byte	0x5f4
 897 0561 1D       		.uleb128 0x1d
 898 0562 01       		.uleb128 0x1
 899 0563 50       		.byte	0x50
 900 0564 01       		.uleb128 0x1
 901 0565 3C       		.byte	0x3c
 902 0566 00       		.byte	0
 903 0567 00       		.byte	0
 904 0568 23       		.uleb128 0x23
 905 0569 8B020000 		.4byte	.LASF68
 906 056d 01       		.byte	0x1
 907 056e 79       		.byte	0x79
 908 056f 00000000 		.4byte	.LFB9
 909 0573 14000000 		.4byte	.LFE9-.LFB9
 910 0577 01       		.uleb128 0x1
 911 0578 9C       		.byte	0x9c
 912 0579 E9050000 		.4byte	0x5e9
ARM GAS  /tmp/cclGhJaJ.s 			page 17


 913 057d 16       		.uleb128 0x16
 914 057e 747000   		.ascii	"tp\000"
 915 0581 01       		.byte	0x1
 916 0582 79       		.byte	0x79
 917 0583 FD010000 		.4byte	0x1fd
 918 0587 E3000000 		.4byte	.LLST5
 919 058b 16       		.uleb128 0x16
 920 058c 6D736700 		.ascii	"msg\000"
 921 0590 01       		.byte	0x1
 922 0591 79       		.byte	0x79
 923 0592 BF000000 		.4byte	0xbf
 924 0596 04010000 		.4byte	.LLST6
 925 059a 18       		.uleb128 0x18
 926 059b 02000000 		.4byte	.LBB23
 927 059f 06000000 		.4byte	.LBE23-.LBB23
 928 05a3 B5050000 		.4byte	0x5b5
 929 05a7 17       		.uleb128 0x17
 930 05a8 746D7000 		.ascii	"tmp\000"
 931 05ac 01       		.byte	0x1
 932 05ad 7B       		.byte	0x7b
 933 05ae 6C000000 		.4byte	0x6c
 934 05b2 01       		.uleb128 0x1
 935 05b3 53       		.byte	0x53
 936 05b4 00       		.byte	0
 937 05b5 18       		.uleb128 0x18
 938 05b6 0C000000 		.4byte	.LBB24
 939 05ba 08000000 		.4byte	.LBE24-.LBB24
 940 05be D0050000 		.4byte	0x5d0
 941 05c2 17       		.uleb128 0x17
 942 05c3 746D7000 		.ascii	"tmp\000"
 943 05c7 01       		.byte	0x1
 944 05c8 7F       		.byte	0x7f
 945 05c9 6C000000 		.4byte	0x6c
 946 05cd 01       		.uleb128 0x1
 947 05ce 53       		.byte	0x53
 948 05cf 00       		.byte	0
 949 05d0 22       		.uleb128 0x22
 950 05d1 0C000000 		.4byte	.LVL12
 951 05d5 1A060000 		.4byte	0x61a
 952 05d9 1D       		.uleb128 0x1d
 953 05da 01       		.uleb128 0x1
 954 05db 51       		.byte	0x51
 955 05dc 03       		.uleb128 0x3
 956 05dd F3       		.byte	0xf3
 957 05de 01       		.uleb128 0x1
 958 05df 51       		.byte	0x51
 959 05e0 1D       		.uleb128 0x1d
 960 05e1 01       		.uleb128 0x1
 961 05e2 50       		.byte	0x50
 962 05e3 03       		.uleb128 0x3
 963 05e4 F3       		.byte	0xf3
 964 05e5 01       		.uleb128 0x1
 965 05e6 50       		.byte	0x50
 966 05e7 00       		.byte	0
 967 05e8 00       		.byte	0
 968 05e9 24       		.uleb128 0x24
 969 05ea 3C030000 		.4byte	.LASF69
ARM GAS  /tmp/cclGhJaJ.s 			page 18


 970 05ee 08       		.byte	0x8
 971 05ef 68       		.byte	0x68
 972 05f0 35030000 		.4byte	0x335
 973 05f4 25       		.uleb128 0x25
 974 05f5 98020000 		.4byte	.LASF70
 975 05f9 08       		.byte	0x8
 976 05fa 8C       		.byte	0x8c
 977 05fb 05060000 		.4byte	0x605
 978 05ff 26       		.uleb128 0x26
 979 0600 9E000000 		.4byte	0x9e
 980 0604 00       		.byte	0
 981 0605 27       		.uleb128 0x27
 982 0606 C2020000 		.4byte	.LASF71
 983 060a 08       		.byte	0x8
 984 060b 89       		.byte	0x89
 985 060c FD010000 		.4byte	0x1fd
 986 0610 1A060000 		.4byte	0x61a
 987 0614 26       		.uleb128 0x26
 988 0615 FD010000 		.4byte	0x1fd
 989 0619 00       		.byte	0
 990 061a 28       		.uleb128 0x28
 991 061b 14030000 		.4byte	.LASF72
 992 061f 08       		.byte	0x8
 993 0620 92       		.byte	0x92
 994 0621 26       		.uleb128 0x26
 995 0622 FD010000 		.4byte	0x1fd
 996 0626 26       		.uleb128 0x26
 997 0627 BF000000 		.4byte	0xbf
 998 062b 00       		.byte	0
 999 062c 00       		.byte	0
 1000              		.section	.debug_abbrev,"",%progbits
 1001              	.Ldebug_abbrev0:
 1002 0000 01       		.uleb128 0x1
 1003 0001 11       		.uleb128 0x11
 1004 0002 01       		.byte	0x1
 1005 0003 25       		.uleb128 0x25
 1006 0004 0E       		.uleb128 0xe
 1007 0005 13       		.uleb128 0x13
 1008 0006 0B       		.uleb128 0xb
 1009 0007 03       		.uleb128 0x3
 1010 0008 0E       		.uleb128 0xe
 1011 0009 1B       		.uleb128 0x1b
 1012 000a 0E       		.uleb128 0xe
 1013 000b 55       		.uleb128 0x55
 1014 000c 17       		.uleb128 0x17
 1015 000d 11       		.uleb128 0x11
 1016 000e 01       		.uleb128 0x1
 1017 000f 10       		.uleb128 0x10
 1018 0010 17       		.uleb128 0x17
 1019 0011 00       		.byte	0
 1020 0012 00       		.byte	0
 1021 0013 02       		.uleb128 0x2
 1022 0014 24       		.uleb128 0x24
 1023 0015 00       		.byte	0
 1024 0016 0B       		.uleb128 0xb
 1025 0017 0B       		.uleb128 0xb
 1026 0018 3E       		.uleb128 0x3e
ARM GAS  /tmp/cclGhJaJ.s 			page 19


 1027 0019 0B       		.uleb128 0xb
 1028 001a 03       		.uleb128 0x3
 1029 001b 08       		.uleb128 0x8
 1030 001c 00       		.byte	0
 1031 001d 00       		.byte	0
 1032 001e 03       		.uleb128 0x3
 1033 001f 24       		.uleb128 0x24
 1034 0020 00       		.byte	0
 1035 0021 0B       		.uleb128 0xb
 1036 0022 0B       		.uleb128 0xb
 1037 0023 3E       		.uleb128 0x3e
 1038 0024 0B       		.uleb128 0xb
 1039 0025 03       		.uleb128 0x3
 1040 0026 0E       		.uleb128 0xe
 1041 0027 00       		.byte	0
 1042 0028 00       		.byte	0
 1043 0029 04       		.uleb128 0x4
 1044 002a 16       		.uleb128 0x16
 1045 002b 00       		.byte	0
 1046 002c 03       		.uleb128 0x3
 1047 002d 0E       		.uleb128 0xe
 1048 002e 3A       		.uleb128 0x3a
 1049 002f 0B       		.uleb128 0xb
 1050 0030 3B       		.uleb128 0x3b
 1051 0031 0B       		.uleb128 0xb
 1052 0032 49       		.uleb128 0x49
 1053 0033 13       		.uleb128 0x13
 1054 0034 00       		.byte	0
 1055 0035 00       		.byte	0
 1056 0036 05       		.uleb128 0x5
 1057 0037 13       		.uleb128 0x13
 1058 0038 01       		.byte	0x1
 1059 0039 03       		.uleb128 0x3
 1060 003a 0E       		.uleb128 0xe
 1061 003b 0B       		.uleb128 0xb
 1062 003c 0B       		.uleb128 0xb
 1063 003d 3A       		.uleb128 0x3a
 1064 003e 0B       		.uleb128 0xb
 1065 003f 3B       		.uleb128 0x3b
 1066 0040 0B       		.uleb128 0xb
 1067 0041 01       		.uleb128 0x1
 1068 0042 13       		.uleb128 0x13
 1069 0043 00       		.byte	0
 1070 0044 00       		.byte	0
 1071 0045 06       		.uleb128 0x6
 1072 0046 0D       		.uleb128 0xd
 1073 0047 00       		.byte	0
 1074 0048 03       		.uleb128 0x3
 1075 0049 0E       		.uleb128 0xe
 1076 004a 3A       		.uleb128 0x3a
 1077 004b 0B       		.uleb128 0xb
 1078 004c 3B       		.uleb128 0x3b
 1079 004d 0B       		.uleb128 0xb
 1080 004e 49       		.uleb128 0x49
 1081 004f 13       		.uleb128 0x13
 1082 0050 38       		.uleb128 0x38
 1083 0051 0B       		.uleb128 0xb
ARM GAS  /tmp/cclGhJaJ.s 			page 20


 1084 0052 00       		.byte	0
 1085 0053 00       		.byte	0
 1086 0054 07       		.uleb128 0x7
 1087 0055 0D       		.uleb128 0xd
 1088 0056 00       		.byte	0
 1089 0057 03       		.uleb128 0x3
 1090 0058 08       		.uleb128 0x8
 1091 0059 3A       		.uleb128 0x3a
 1092 005a 0B       		.uleb128 0xb
 1093 005b 3B       		.uleb128 0x3b
 1094 005c 0B       		.uleb128 0xb
 1095 005d 49       		.uleb128 0x49
 1096 005e 13       		.uleb128 0x13
 1097 005f 38       		.uleb128 0x38
 1098 0060 0B       		.uleb128 0xb
 1099 0061 00       		.byte	0
 1100 0062 00       		.byte	0
 1101 0063 08       		.uleb128 0x8
 1102 0064 13       		.uleb128 0x13
 1103 0065 01       		.byte	0x1
 1104 0066 0B       		.uleb128 0xb
 1105 0067 0B       		.uleb128 0xb
 1106 0068 3A       		.uleb128 0x3a
 1107 0069 0B       		.uleb128 0xb
 1108 006a 3B       		.uleb128 0x3b
 1109 006b 0B       		.uleb128 0xb
 1110 006c 01       		.uleb128 0x1
 1111 006d 13       		.uleb128 0x13
 1112 006e 00       		.byte	0
 1113 006f 00       		.byte	0
 1114 0070 09       		.uleb128 0x9
 1115 0071 0F       		.uleb128 0xf
 1116 0072 00       		.byte	0
 1117 0073 0B       		.uleb128 0xb
 1118 0074 0B       		.uleb128 0xb
 1119 0075 49       		.uleb128 0x49
 1120 0076 13       		.uleb128 0x13
 1121 0077 00       		.byte	0
 1122 0078 00       		.byte	0
 1123 0079 0A       		.uleb128 0xa
 1124 007a 0F       		.uleb128 0xf
 1125 007b 00       		.byte	0
 1126 007c 0B       		.uleb128 0xb
 1127 007d 0B       		.uleb128 0xb
 1128 007e 00       		.byte	0
 1129 007f 00       		.byte	0
 1130 0080 0B       		.uleb128 0xb
 1131 0081 13       		.uleb128 0x13
 1132 0082 01       		.byte	0x1
 1133 0083 03       		.uleb128 0x3
 1134 0084 0E       		.uleb128 0xe
 1135 0085 0B       		.uleb128 0xb
 1136 0086 0B       		.uleb128 0xb
 1137 0087 3A       		.uleb128 0x3a
 1138 0088 0B       		.uleb128 0xb
 1139 0089 3B       		.uleb128 0x3b
 1140 008a 05       		.uleb128 0x5
ARM GAS  /tmp/cclGhJaJ.s 			page 21


 1141 008b 01       		.uleb128 0x1
 1142 008c 13       		.uleb128 0x13
 1143 008d 00       		.byte	0
 1144 008e 00       		.byte	0
 1145 008f 0C       		.uleb128 0xc
 1146 0090 0D       		.uleb128 0xd
 1147 0091 00       		.byte	0
 1148 0092 03       		.uleb128 0x3
 1149 0093 08       		.uleb128 0x8
 1150 0094 3A       		.uleb128 0x3a
 1151 0095 0B       		.uleb128 0xb
 1152 0096 3B       		.uleb128 0x3b
 1153 0097 05       		.uleb128 0x5
 1154 0098 49       		.uleb128 0x49
 1155 0099 13       		.uleb128 0x13
 1156 009a 38       		.uleb128 0x38
 1157 009b 0B       		.uleb128 0xb
 1158 009c 00       		.byte	0
 1159 009d 00       		.byte	0
 1160 009e 0D       		.uleb128 0xd
 1161 009f 35       		.uleb128 0x35
 1162 00a0 00       		.byte	0
 1163 00a1 49       		.uleb128 0x49
 1164 00a2 13       		.uleb128 0x13
 1165 00a3 00       		.byte	0
 1166 00a4 00       		.byte	0
 1167 00a5 0E       		.uleb128 0xe
 1168 00a6 17       		.uleb128 0x17
 1169 00a7 01       		.byte	0x1
 1170 00a8 0B       		.uleb128 0xb
 1171 00a9 0B       		.uleb128 0xb
 1172 00aa 3A       		.uleb128 0x3a
 1173 00ab 0B       		.uleb128 0xb
 1174 00ac 3B       		.uleb128 0x3b
 1175 00ad 0B       		.uleb128 0xb
 1176 00ae 01       		.uleb128 0x1
 1177 00af 13       		.uleb128 0x13
 1178 00b0 00       		.byte	0
 1179 00b1 00       		.byte	0
 1180 00b2 0F       		.uleb128 0xf
 1181 00b3 0D       		.uleb128 0xd
 1182 00b4 00       		.byte	0
 1183 00b5 03       		.uleb128 0x3
 1184 00b6 0E       		.uleb128 0xe
 1185 00b7 3A       		.uleb128 0x3a
 1186 00b8 0B       		.uleb128 0xb
 1187 00b9 3B       		.uleb128 0x3b
 1188 00ba 0B       		.uleb128 0xb
 1189 00bb 49       		.uleb128 0x49
 1190 00bc 13       		.uleb128 0x13
 1191 00bd 00       		.byte	0
 1192 00be 00       		.byte	0
 1193 00bf 10       		.uleb128 0x10
 1194 00c0 26       		.uleb128 0x26
 1195 00c1 00       		.byte	0
 1196 00c2 49       		.uleb128 0x49
 1197 00c3 13       		.uleb128 0x13
ARM GAS  /tmp/cclGhJaJ.s 			page 22


 1198 00c4 00       		.byte	0
 1199 00c5 00       		.byte	0
 1200 00c6 11       		.uleb128 0x11
 1201 00c7 2E       		.uleb128 0x2e
 1202 00c8 01       		.byte	0x1
 1203 00c9 03       		.uleb128 0x3
 1204 00ca 0E       		.uleb128 0xe
 1205 00cb 3A       		.uleb128 0x3a
 1206 00cc 0B       		.uleb128 0xb
 1207 00cd 3B       		.uleb128 0x3b
 1208 00ce 0B       		.uleb128 0xb
 1209 00cf 27       		.uleb128 0x27
 1210 00d0 19       		.uleb128 0x19
 1211 00d1 20       		.uleb128 0x20
 1212 00d2 0B       		.uleb128 0xb
 1213 00d3 01       		.uleb128 0x1
 1214 00d4 13       		.uleb128 0x13
 1215 00d5 00       		.byte	0
 1216 00d6 00       		.byte	0
 1217 00d7 12       		.uleb128 0x12
 1218 00d8 05       		.uleb128 0x5
 1219 00d9 00       		.byte	0
 1220 00da 03       		.uleb128 0x3
 1221 00db 08       		.uleb128 0x8
 1222 00dc 3A       		.uleb128 0x3a
 1223 00dd 0B       		.uleb128 0xb
 1224 00de 3B       		.uleb128 0x3b
 1225 00df 0B       		.uleb128 0xb
 1226 00e0 49       		.uleb128 0x49
 1227 00e1 13       		.uleb128 0x13
 1228 00e2 00       		.byte	0
 1229 00e3 00       		.byte	0
 1230 00e4 13       		.uleb128 0x13
 1231 00e5 2E       		.uleb128 0x2e
 1232 00e6 01       		.byte	0x1
 1233 00e7 03       		.uleb128 0x3
 1234 00e8 0E       		.uleb128 0xe
 1235 00e9 3A       		.uleb128 0x3a
 1236 00ea 0B       		.uleb128 0xb
 1237 00eb 3B       		.uleb128 0x3b
 1238 00ec 0B       		.uleb128 0xb
 1239 00ed 27       		.uleb128 0x27
 1240 00ee 19       		.uleb128 0x19
 1241 00ef 49       		.uleb128 0x49
 1242 00f0 13       		.uleb128 0x13
 1243 00f1 20       		.uleb128 0x20
 1244 00f2 0B       		.uleb128 0xb
 1245 00f3 01       		.uleb128 0x1
 1246 00f4 13       		.uleb128 0x13
 1247 00f5 00       		.byte	0
 1248 00f6 00       		.byte	0
 1249 00f7 14       		.uleb128 0x14
 1250 00f8 34       		.uleb128 0x34
 1251 00f9 00       		.byte	0
 1252 00fa 03       		.uleb128 0x3
 1253 00fb 08       		.uleb128 0x8
 1254 00fc 3A       		.uleb128 0x3a
ARM GAS  /tmp/cclGhJaJ.s 			page 23


 1255 00fd 0B       		.uleb128 0xb
 1256 00fe 3B       		.uleb128 0x3b
 1257 00ff 0B       		.uleb128 0xb
 1258 0100 49       		.uleb128 0x49
 1259 0101 13       		.uleb128 0x13
 1260 0102 00       		.byte	0
 1261 0103 00       		.byte	0
 1262 0104 15       		.uleb128 0x15
 1263 0105 2E       		.uleb128 0x2e
 1264 0106 01       		.byte	0x1
 1265 0107 3F       		.uleb128 0x3f
 1266 0108 19       		.uleb128 0x19
 1267 0109 03       		.uleb128 0x3
 1268 010a 0E       		.uleb128 0xe
 1269 010b 3A       		.uleb128 0x3a
 1270 010c 0B       		.uleb128 0xb
 1271 010d 3B       		.uleb128 0x3b
 1272 010e 0B       		.uleb128 0xb
 1273 010f 27       		.uleb128 0x27
 1274 0110 19       		.uleb128 0x19
 1275 0111 49       		.uleb128 0x49
 1276 0112 13       		.uleb128 0x13
 1277 0113 11       		.uleb128 0x11
 1278 0114 01       		.uleb128 0x1
 1279 0115 12       		.uleb128 0x12
 1280 0116 06       		.uleb128 0x6
 1281 0117 40       		.uleb128 0x40
 1282 0118 18       		.uleb128 0x18
 1283 0119 9742     		.uleb128 0x2117
 1284 011b 19       		.uleb128 0x19
 1285 011c 01       		.uleb128 0x1
 1286 011d 13       		.uleb128 0x13
 1287 011e 00       		.byte	0
 1288 011f 00       		.byte	0
 1289 0120 16       		.uleb128 0x16
 1290 0121 05       		.uleb128 0x5
 1291 0122 00       		.byte	0
 1292 0123 03       		.uleb128 0x3
 1293 0124 08       		.uleb128 0x8
 1294 0125 3A       		.uleb128 0x3a
 1295 0126 0B       		.uleb128 0xb
 1296 0127 3B       		.uleb128 0x3b
 1297 0128 0B       		.uleb128 0xb
 1298 0129 49       		.uleb128 0x49
 1299 012a 13       		.uleb128 0x13
 1300 012b 02       		.uleb128 0x2
 1301 012c 17       		.uleb128 0x17
 1302 012d 00       		.byte	0
 1303 012e 00       		.byte	0
 1304 012f 17       		.uleb128 0x17
 1305 0130 34       		.uleb128 0x34
 1306 0131 00       		.byte	0
 1307 0132 03       		.uleb128 0x3
 1308 0133 08       		.uleb128 0x8
 1309 0134 3A       		.uleb128 0x3a
 1310 0135 0B       		.uleb128 0xb
 1311 0136 3B       		.uleb128 0x3b
ARM GAS  /tmp/cclGhJaJ.s 			page 24


 1312 0137 0B       		.uleb128 0xb
 1313 0138 49       		.uleb128 0x49
 1314 0139 13       		.uleb128 0x13
 1315 013a 02       		.uleb128 0x2
 1316 013b 18       		.uleb128 0x18
 1317 013c 00       		.byte	0
 1318 013d 00       		.byte	0
 1319 013e 18       		.uleb128 0x18
 1320 013f 0B       		.uleb128 0xb
 1321 0140 01       		.byte	0x1
 1322 0141 11       		.uleb128 0x11
 1323 0142 01       		.uleb128 0x1
 1324 0143 12       		.uleb128 0x12
 1325 0144 06       		.uleb128 0x6
 1326 0145 01       		.uleb128 0x1
 1327 0146 13       		.uleb128 0x13
 1328 0147 00       		.byte	0
 1329 0148 00       		.byte	0
 1330 0149 19       		.uleb128 0x19
 1331 014a 1D       		.uleb128 0x1d
 1332 014b 01       		.byte	0x1
 1333 014c 31       		.uleb128 0x31
 1334 014d 13       		.uleb128 0x13
 1335 014e 52       		.uleb128 0x52
 1336 014f 01       		.uleb128 0x1
 1337 0150 55       		.uleb128 0x55
 1338 0151 17       		.uleb128 0x17
 1339 0152 58       		.uleb128 0x58
 1340 0153 0B       		.uleb128 0xb
 1341 0154 59       		.uleb128 0x59
 1342 0155 0B       		.uleb128 0xb
 1343 0156 01       		.uleb128 0x1
 1344 0157 13       		.uleb128 0x13
 1345 0158 00       		.byte	0
 1346 0159 00       		.byte	0
 1347 015a 1A       		.uleb128 0x1a
 1348 015b 05       		.uleb128 0x5
 1349 015c 00       		.byte	0
 1350 015d 31       		.uleb128 0x31
 1351 015e 13       		.uleb128 0x13
 1352 015f 02       		.uleb128 0x2
 1353 0160 17       		.uleb128 0x17
 1354 0161 00       		.byte	0
 1355 0162 00       		.byte	0
 1356 0163 1B       		.uleb128 0x1b
 1357 0164 05       		.uleb128 0x5
 1358 0165 00       		.byte	0
 1359 0166 31       		.uleb128 0x31
 1360 0167 13       		.uleb128 0x13
 1361 0168 02       		.uleb128 0x2
 1362 0169 18       		.uleb128 0x18
 1363 016a 00       		.byte	0
 1364 016b 00       		.byte	0
 1365 016c 1C       		.uleb128 0x1c
 1366 016d 898201   		.uleb128 0x4109
 1367 0170 01       		.byte	0x1
 1368 0171 11       		.uleb128 0x11
ARM GAS  /tmp/cclGhJaJ.s 			page 25


 1369 0172 01       		.uleb128 0x1
 1370 0173 31       		.uleb128 0x31
 1371 0174 13       		.uleb128 0x13
 1372 0175 01       		.uleb128 0x1
 1373 0176 13       		.uleb128 0x13
 1374 0177 00       		.byte	0
 1375 0178 00       		.byte	0
 1376 0179 1D       		.uleb128 0x1d
 1377 017a 8A8201   		.uleb128 0x410a
 1378 017d 00       		.byte	0
 1379 017e 02       		.uleb128 0x2
 1380 017f 18       		.uleb128 0x18
 1381 0180 9142     		.uleb128 0x2111
 1382 0182 18       		.uleb128 0x18
 1383 0183 00       		.byte	0
 1384 0184 00       		.byte	0
 1385 0185 1E       		.uleb128 0x1e
 1386 0186 898201   		.uleb128 0x4109
 1387 0189 00       		.byte	0
 1388 018a 11       		.uleb128 0x11
 1389 018b 01       		.uleb128 0x1
 1390 018c 31       		.uleb128 0x31
 1391 018d 13       		.uleb128 0x13
 1392 018e 00       		.byte	0
 1393 018f 00       		.byte	0
 1394 0190 1F       		.uleb128 0x1f
 1395 0191 0B       		.uleb128 0xb
 1396 0192 01       		.byte	0x1
 1397 0193 55       		.uleb128 0x55
 1398 0194 17       		.uleb128 0x17
 1399 0195 00       		.byte	0
 1400 0196 00       		.byte	0
 1401 0197 20       		.uleb128 0x20
 1402 0198 34       		.uleb128 0x34
 1403 0199 00       		.byte	0
 1404 019a 31       		.uleb128 0x31
 1405 019b 13       		.uleb128 0x13
 1406 019c 02       		.uleb128 0x2
 1407 019d 17       		.uleb128 0x17
 1408 019e 00       		.byte	0
 1409 019f 00       		.byte	0
 1410 01a0 21       		.uleb128 0x21
 1411 01a1 0B       		.uleb128 0xb
 1412 01a2 01       		.byte	0x1
 1413 01a3 55       		.uleb128 0x55
 1414 01a4 17       		.uleb128 0x17
 1415 01a5 01       		.uleb128 0x1
 1416 01a6 13       		.uleb128 0x13
 1417 01a7 00       		.byte	0
 1418 01a8 00       		.byte	0
 1419 01a9 22       		.uleb128 0x22
 1420 01aa 898201   		.uleb128 0x4109
 1421 01ad 01       		.byte	0x1
 1422 01ae 11       		.uleb128 0x11
 1423 01af 01       		.uleb128 0x1
 1424 01b0 31       		.uleb128 0x31
 1425 01b1 13       		.uleb128 0x13
ARM GAS  /tmp/cclGhJaJ.s 			page 26


 1426 01b2 00       		.byte	0
 1427 01b3 00       		.byte	0
 1428 01b4 23       		.uleb128 0x23
 1429 01b5 2E       		.uleb128 0x2e
 1430 01b6 01       		.byte	0x1
 1431 01b7 3F       		.uleb128 0x3f
 1432 01b8 19       		.uleb128 0x19
 1433 01b9 03       		.uleb128 0x3
 1434 01ba 0E       		.uleb128 0xe
 1435 01bb 3A       		.uleb128 0x3a
 1436 01bc 0B       		.uleb128 0xb
 1437 01bd 3B       		.uleb128 0x3b
 1438 01be 0B       		.uleb128 0xb
 1439 01bf 27       		.uleb128 0x27
 1440 01c0 19       		.uleb128 0x19
 1441 01c1 11       		.uleb128 0x11
 1442 01c2 01       		.uleb128 0x1
 1443 01c3 12       		.uleb128 0x12
 1444 01c4 06       		.uleb128 0x6
 1445 01c5 40       		.uleb128 0x40
 1446 01c6 18       		.uleb128 0x18
 1447 01c7 9742     		.uleb128 0x2117
 1448 01c9 19       		.uleb128 0x19
 1449 01ca 01       		.uleb128 0x1
 1450 01cb 13       		.uleb128 0x13
 1451 01cc 00       		.byte	0
 1452 01cd 00       		.byte	0
 1453 01ce 24       		.uleb128 0x24
 1454 01cf 34       		.uleb128 0x34
 1455 01d0 00       		.byte	0
 1456 01d1 03       		.uleb128 0x3
 1457 01d2 0E       		.uleb128 0xe
 1458 01d3 3A       		.uleb128 0x3a
 1459 01d4 0B       		.uleb128 0xb
 1460 01d5 3B       		.uleb128 0x3b
 1461 01d6 0B       		.uleb128 0xb
 1462 01d7 49       		.uleb128 0x49
 1463 01d8 13       		.uleb128 0x13
 1464 01d9 3F       		.uleb128 0x3f
 1465 01da 19       		.uleb128 0x19
 1466 01db 3C       		.uleb128 0x3c
 1467 01dc 19       		.uleb128 0x19
 1468 01dd 00       		.byte	0
 1469 01de 00       		.byte	0
 1470 01df 25       		.uleb128 0x25
 1471 01e0 2E       		.uleb128 0x2e
 1472 01e1 01       		.byte	0x1
 1473 01e2 3F       		.uleb128 0x3f
 1474 01e3 19       		.uleb128 0x19
 1475 01e4 03       		.uleb128 0x3
 1476 01e5 0E       		.uleb128 0xe
 1477 01e6 3A       		.uleb128 0x3a
 1478 01e7 0B       		.uleb128 0xb
 1479 01e8 3B       		.uleb128 0x3b
 1480 01e9 0B       		.uleb128 0xb
 1481 01ea 27       		.uleb128 0x27
 1482 01eb 19       		.uleb128 0x19
ARM GAS  /tmp/cclGhJaJ.s 			page 27


 1483 01ec 3C       		.uleb128 0x3c
 1484 01ed 19       		.uleb128 0x19
 1485 01ee 01       		.uleb128 0x1
 1486 01ef 13       		.uleb128 0x13
 1487 01f0 00       		.byte	0
 1488 01f1 00       		.byte	0
 1489 01f2 26       		.uleb128 0x26
 1490 01f3 05       		.uleb128 0x5
 1491 01f4 00       		.byte	0
 1492 01f5 49       		.uleb128 0x49
 1493 01f6 13       		.uleb128 0x13
 1494 01f7 00       		.byte	0
 1495 01f8 00       		.byte	0
 1496 01f9 27       		.uleb128 0x27
 1497 01fa 2E       		.uleb128 0x2e
 1498 01fb 01       		.byte	0x1
 1499 01fc 3F       		.uleb128 0x3f
 1500 01fd 19       		.uleb128 0x19
 1501 01fe 03       		.uleb128 0x3
 1502 01ff 0E       		.uleb128 0xe
 1503 0200 3A       		.uleb128 0x3a
 1504 0201 0B       		.uleb128 0xb
 1505 0202 3B       		.uleb128 0x3b
 1506 0203 0B       		.uleb128 0xb
 1507 0204 27       		.uleb128 0x27
 1508 0205 19       		.uleb128 0x19
 1509 0206 49       		.uleb128 0x49
 1510 0207 13       		.uleb128 0x13
 1511 0208 3C       		.uleb128 0x3c
 1512 0209 19       		.uleb128 0x19
 1513 020a 01       		.uleb128 0x1
 1514 020b 13       		.uleb128 0x13
 1515 020c 00       		.byte	0
 1516 020d 00       		.byte	0
 1517 020e 28       		.uleb128 0x28
 1518 020f 2E       		.uleb128 0x2e
 1519 0210 01       		.byte	0x1
 1520 0211 3F       		.uleb128 0x3f
 1521 0212 19       		.uleb128 0x19
 1522 0213 03       		.uleb128 0x3
 1523 0214 0E       		.uleb128 0xe
 1524 0215 3A       		.uleb128 0x3a
 1525 0216 0B       		.uleb128 0xb
 1526 0217 3B       		.uleb128 0x3b
 1527 0218 0B       		.uleb128 0xb
 1528 0219 27       		.uleb128 0x27
 1529 021a 19       		.uleb128 0x19
 1530 021b 3C       		.uleb128 0x3c
 1531 021c 19       		.uleb128 0x19
 1532 021d 00       		.byte	0
 1533 021e 00       		.byte	0
 1534 021f 00       		.byte	0
 1535              		.section	.debug_loc,"",%progbits
 1536              	.Ldebug_loc0:
 1537              	.LLST0:
 1538 0000 00000000 		.4byte	.LVL0
 1539 0004 2A000000 		.4byte	.LVL3
ARM GAS  /tmp/cclGhJaJ.s 			page 28


 1540 0008 0100     		.2byte	0x1
 1541 000a 50       		.byte	0x50
 1542 000b 2A000000 		.4byte	.LVL3
 1543 000f 3A000000 		.4byte	.LVL6
 1544 0013 0400     		.2byte	0x4
 1545 0015 F3       		.byte	0xf3
 1546 0016 01       		.uleb128 0x1
 1547 0017 50       		.byte	0x50
 1548 0018 9F       		.byte	0x9f
 1549 0019 3A000000 		.4byte	.LVL6
 1550 001d 3D000000 		.4byte	.LVL7-1
 1551 0021 0100     		.2byte	0x1
 1552 0023 50       		.byte	0x50
 1553 0024 3D000000 		.4byte	.LVL7-1
 1554 0028 40000000 		.4byte	.LFE7
 1555 002c 0400     		.2byte	0x4
 1556 002e F3       		.byte	0xf3
 1557 002f 01       		.uleb128 0x1
 1558 0030 50       		.byte	0x50
 1559 0031 9F       		.byte	0x9f
 1560 0032 00000000 		.4byte	0
 1561 0036 00000000 		.4byte	0
 1562              	.LLST1:
 1563 003a 00000000 		.4byte	.LVL0
 1564 003e 2A000000 		.4byte	.LVL3
 1565 0042 0100     		.2byte	0x1
 1566 0044 51       		.byte	0x51
 1567 0045 2A000000 		.4byte	.LVL3
 1568 0049 32000000 		.4byte	.LVL5
 1569 004d 0400     		.2byte	0x4
 1570 004f F3       		.byte	0xf3
 1571 0050 01       		.uleb128 0x1
 1572 0051 51       		.byte	0x51
 1573 0052 9F       		.byte	0x9f
 1574 0053 32000000 		.4byte	.LVL5
 1575 0057 3A000000 		.4byte	.LVL6
 1576 005b 0100     		.2byte	0x1
 1577 005d 50       		.byte	0x50
 1578 005e 3A000000 		.4byte	.LVL6
 1579 0062 3D000000 		.4byte	.LVL7-1
 1580 0066 0100     		.2byte	0x1
 1581 0068 51       		.byte	0x51
 1582 0069 3D000000 		.4byte	.LVL7-1
 1583 006d 40000000 		.4byte	.LFE7
 1584 0071 0400     		.2byte	0x4
 1585 0073 F3       		.byte	0xf3
 1586 0074 01       		.uleb128 0x1
 1587 0075 51       		.byte	0x51
 1588 0076 9F       		.byte	0x9f
 1589 0077 00000000 		.4byte	0
 1590 007b 00000000 		.4byte	0
 1591              	.LLST2:
 1592 007f 1A000000 		.4byte	.LVL2
 1593 0083 2A000000 		.4byte	.LVL3
 1594 0087 0100     		.2byte	0x1
 1595 0089 52       		.byte	0x52
 1596 008a 2A000000 		.4byte	.LVL3
ARM GAS  /tmp/cclGhJaJ.s 			page 29


 1597 008e 3A000000 		.4byte	.LVL6
 1598 0092 0600     		.2byte	0x6
 1599 0094 F3       		.byte	0xf3
 1600 0095 01       		.uleb128 0x1
 1601 0096 50       		.byte	0x50
 1602 0097 23       		.byte	0x23
 1603 0098 2C       		.uleb128 0x2c
 1604 0099 9F       		.byte	0x9f
 1605 009a 3A000000 		.4byte	.LVL6
 1606 009e 3D000000 		.4byte	.LVL7-1
 1607 00a2 0100     		.2byte	0x1
 1608 00a4 52       		.byte	0x52
 1609 00a5 3D000000 		.4byte	.LVL7-1
 1610 00a9 40000000 		.4byte	.LFE7
 1611 00ad 0600     		.2byte	0x6
 1612 00af F3       		.byte	0xf3
 1613 00b0 01       		.uleb128 0x1
 1614 00b1 50       		.byte	0x50
 1615 00b2 23       		.byte	0x23
 1616 00b3 2C       		.uleb128 0x2c
 1617 00b4 9F       		.byte	0x9f
 1618 00b5 00000000 		.4byte	0
 1619 00b9 00000000 		.4byte	0
 1620              	.LLST3:
 1621 00bd 1C000000 		.4byte	.LVL8
 1622 00c1 2E000000 		.4byte	.LVL9
 1623 00c5 0100     		.2byte	0x1
 1624 00c7 52       		.byte	0x52
 1625 00c8 00000000 		.4byte	0
 1626 00cc 00000000 		.4byte	0
 1627              	.LLST4:
 1628 00d0 1C000000 		.4byte	.LVL8
 1629 00d4 2E000000 		.4byte	.LVL9
 1630 00d8 0100     		.2byte	0x1
 1631 00da 50       		.byte	0x50
 1632 00db 00000000 		.4byte	0
 1633 00df 00000000 		.4byte	0
 1634              	.LLST5:
 1635 00e3 00000000 		.4byte	.LVL11
 1636 00e7 0B000000 		.4byte	.LVL12-1
 1637 00eb 0100     		.2byte	0x1
 1638 00ed 50       		.byte	0x50
 1639 00ee 0B000000 		.4byte	.LVL12-1
 1640 00f2 14000000 		.4byte	.LFE9
 1641 00f6 0400     		.2byte	0x4
 1642 00f8 F3       		.byte	0xf3
 1643 00f9 01       		.uleb128 0x1
 1644 00fa 50       		.byte	0x50
 1645 00fb 9F       		.byte	0x9f
 1646 00fc 00000000 		.4byte	0
 1647 0100 00000000 		.4byte	0
 1648              	.LLST6:
 1649 0104 00000000 		.4byte	.LVL11
 1650 0108 0B000000 		.4byte	.LVL12-1
 1651 010c 0100     		.2byte	0x1
 1652 010e 51       		.byte	0x51
 1653 010f 0B000000 		.4byte	.LVL12-1
ARM GAS  /tmp/cclGhJaJ.s 			page 30


 1654 0113 14000000 		.4byte	.LFE9
 1655 0117 0400     		.2byte	0x4
 1656 0119 F3       		.byte	0xf3
 1657 011a 01       		.uleb128 0x1
 1658 011b 51       		.byte	0x51
 1659 011c 9F       		.byte	0x9f
 1660 011d 00000000 		.4byte	0
 1661 0121 00000000 		.4byte	0
 1662              		.section	.debug_aranges,"",%progbits
 1663 0000 2C000000 		.4byte	0x2c
 1664 0004 0200     		.2byte	0x2
 1665 0006 00000000 		.4byte	.Ldebug_info0
 1666 000a 04       		.byte	0x4
 1667 000b 00       		.byte	0
 1668 000c 0000     		.2byte	0
 1669 000e 0000     		.2byte	0
 1670 0010 00000000 		.4byte	.LFB7
 1671 0014 40000000 		.4byte	.LFE7-.LFB7
 1672 0018 00000000 		.4byte	.LFB8
 1673 001c 3E000000 		.4byte	.LFE8-.LFB8
 1674 0020 00000000 		.4byte	.LFB9
 1675 0024 14000000 		.4byte	.LFE9-.LFB9
 1676 0028 00000000 		.4byte	0
 1677 002c 00000000 		.4byte	0
 1678              		.section	.debug_ranges,"",%progbits
 1679              	.Ldebug_ranges0:
 1680 0000 1A000000 		.4byte	.LBB11
 1681 0004 1C000000 		.4byte	.LBE11
 1682 0008 20000000 		.4byte	.LBB14
 1683 000c 28000000 		.4byte	.LBE14
 1684 0010 00000000 		.4byte	0
 1685 0014 00000000 		.4byte	0
 1686 0018 1C000000 		.4byte	.LBB17
 1687 001c 1E000000 		.4byte	.LBE17
 1688 0020 20000000 		.4byte	.LBB20
 1689 0024 24000000 		.4byte	.LBE20
 1690 0028 00000000 		.4byte	0
 1691 002c 00000000 		.4byte	0
 1692 0030 24000000 		.4byte	.LBB21
 1693 0034 26000000 		.4byte	.LBE21
 1694 0038 28000000 		.4byte	.LBB22
 1695 003c 2C000000 		.4byte	.LBE22
 1696 0040 00000000 		.4byte	0
 1697 0044 00000000 		.4byte	0
 1698 0048 00000000 		.4byte	.LFB7
 1699 004c 40000000 		.4byte	.LFE7
 1700 0050 00000000 		.4byte	.LFB8
 1701 0054 3E000000 		.4byte	.LFE8
 1702 0058 00000000 		.4byte	.LFB9
 1703 005c 14000000 		.4byte	.LFE9
 1704 0060 00000000 		.4byte	0
 1705 0064 00000000 		.4byte	0
 1706              		.section	.debug_line,"",%progbits
 1707              	.Ldebug_line0:
 1708 0000 75010000 		.section	.debug_str,"MS",%progbits,1
 1708      02000201 
 1708      00000201 
ARM GAS  /tmp/cclGhJaJ.s 			page 31


 1708      FB0E0D00 
 1708      01010101 
 1709              	.LASF34:
 1710 0000 705F6D73 		.ascii	"p_msg\000"
 1710      6700
 1711              	.LASF66:
 1712 0006 71756575 		.ascii	"queue_insert\000"
 1712      655F696E 
 1712      73657274 
 1712      00
 1713              	.LASF56:
 1714 0013 7264796D 		.ascii	"rdymsg\000"
 1714      736700
 1715              	.LASF11:
 1716 001a 6C6F6E67 		.ascii	"long long unsigned int\000"
 1716      206C6F6E 
 1716      6720756E 
 1716      7369676E 
 1716      65642069 
 1717              	.LASF57:
 1718 0031 65786974 		.ascii	"exitcode\000"
 1718      636F6465 
 1718      00
 1719              	.LASF23:
 1720 003a 705F7072 		.ascii	"p_prio\000"
 1720      696F00
 1721              	.LASF10:
 1722 0041 6C6F6E67 		.ascii	"long long int\000"
 1722      206C6F6E 
 1722      6720696E 
 1722      7400
 1723              	.LASF1:
 1724 004f 7369676E 		.ascii	"signed char\000"
 1724      65642063 
 1724      68617200 
 1725              	.LASF38:
 1726 005b 705F6D70 		.ascii	"p_mpool\000"
 1726      6F6F6C00 
 1727              	.LASF53:
 1728 0063 6D5F7175 		.ascii	"m_queue\000"
 1728      65756500 
 1729              	.LASF7:
 1730 006b 6C6F6E67 		.ascii	"long int\000"
 1730      20696E74 
 1730      00
 1731              	.LASF61:
 1732 0074 63684D73 		.ascii	"chMsgSend\000"
 1732      6753656E 
 1732      6400
 1733              	.LASF14:
 1734 007e 74737461 		.ascii	"tstate_t\000"
 1734      74655F74 
 1734      00
 1735              	.LASF25:
 1736 0087 705F6E65 		.ascii	"p_newer\000"
 1736      77657200 
 1737              	.LASF48:
ARM GAS  /tmp/cclGhJaJ.s 			page 32


 1738 008f 725F6E65 		.ascii	"r_newer\000"
 1738      77657200 
 1739              	.LASF41:
 1740 0097 72656761 		.ascii	"regarm_t\000"
 1740      726D5F74 
 1740      00
 1741              	.LASF63:
 1742 00a0 474E5520 		.ascii	"GNU C 4.8.1 -mcpu=cortex-m3 -mno-thumb-interwork -m"
 1742      4320342E 
 1742      382E3120 
 1742      2D6D6370 
 1742      753D636F 
 1743 00d3 7468756D 		.ascii	"thumb -mfloat-abi=soft -ggdb -O2 -fomit-frame-point"
 1743      62202D6D 
 1743      666C6F61 
 1743      742D6162 
 1743      693D736F 
 1744 0106 6572202D 		.ascii	"er -ffunction-sections -fdata-sections -fno-common\000"
 1744      6666756E 
 1744      6374696F 
 1744      6E2D7365 
 1744      6374696F 
 1745              	.LASF65:
 1746 0139 2F686F6D 		.ascii	"/home/daniofb/Programming/ChibiOS-RT/demos/ARMCM3-L"
 1746      652F6461 
 1746      6E696F66 
 1746      622F5072 
 1746      6F677261 
 1747 016c 50433137 		.ascii	"PC1768-AKAIKABA\000"
 1747      36382D41 
 1747      4B41494B 
 1747      41424100 
 1748              	.LASF0:
 1749 017c 756E7369 		.ascii	"unsigned int\000"
 1749      676E6564 
 1749      20696E74 
 1749      00
 1750              	.LASF9:
 1751 0189 6C6F6E67 		.ascii	"long unsigned int\000"
 1751      20756E73 
 1751      69676E65 
 1751      6420696E 
 1751      7400
 1752              	.LASF43:
 1753 019b 636F6E74 		.ascii	"context\000"
 1753      65787400 
 1754              	.LASF4:
 1755 01a3 73686F72 		.ascii	"short unsigned int\000"
 1755      7420756E 
 1755      7369676E 
 1755      65642069 
 1755      6E7400
 1756              	.LASF17:
 1757 01b6 6D73675F 		.ascii	"msg_t\000"
 1757      7400
 1758              	.LASF13:
 1759 01bc 746D6F64 		.ascii	"tmode_t\000"
ARM GAS  /tmp/cclGhJaJ.s 			page 33


 1759      655F7400 
 1760              	.LASF40:
 1761 01c4 54687265 		.ascii	"ThreadsList\000"
 1761      6164734C 
 1761      69737400 
 1762              	.LASF18:
 1763 01d0 6576656E 		.ascii	"eventmask_t\000"
 1763      746D6173 
 1763      6B5F7400 
 1764              	.LASF52:
 1765 01dc 4D757465 		.ascii	"Mutex\000"
 1765      7800
 1766              	.LASF44:
 1767 01e2 73697A65 		.ascii	"sizetype\000"
 1767      74797065 
 1767      00
 1768              	.LASF26:
 1769 01eb 705F6F6C 		.ascii	"p_older\000"
 1769      64657200 
 1770              	.LASF47:
 1771 01f3 725F6374 		.ascii	"r_ctx\000"
 1771      7800
 1772              	.LASF39:
 1773 01f9 54687265 		.ascii	"ThreadsQueue\000"
 1773      61647351 
 1773      75657565 
 1773      00
 1774              	.LASF50:
 1775 0206 725F6375 		.ascii	"r_current\000"
 1775      7272656E 
 1775      7400
 1776              	.LASF49:
 1777 0210 725F6F6C 		.ascii	"r_older\000"
 1777      64657200 
 1778              	.LASF15:
 1779 0218 74726566 		.ascii	"trefs_t\000"
 1779      735F7400 
 1780              	.LASF22:
 1781 0220 705F7072 		.ascii	"p_prev\000"
 1781      657600
 1782              	.LASF16:
 1783 0227 74707269 		.ascii	"tprio_t\000"
 1783      6F5F7400 
 1784              	.LASF12:
 1785 022f 5F426F6F 		.ascii	"_Bool\000"
 1785      6C00
 1786              	.LASF6:
 1787 0235 696E7433 		.ascii	"int32_t\000"
 1787      325F7400 
 1788              	.LASF2:
 1789 023d 756E7369 		.ascii	"unsigned char\000"
 1789      676E6564 
 1789      20636861 
 1789      7200
 1790              	.LASF36:
 1791 024b 705F6D74 		.ascii	"p_mtxlist\000"
 1791      786C6973 
ARM GAS  /tmp/cclGhJaJ.s 			page 34


 1791      7400
 1792              	.LASF3:
 1793 0255 73686F72 		.ascii	"short int\000"
 1793      7420696E 
 1793      7400
 1794              	.LASF28:
 1795 025f 705F7374 		.ascii	"p_state\000"
 1795      61746500 
 1796              	.LASF46:
 1797 0267 725F7072 		.ascii	"r_prio\000"
 1797      696F00
 1798              	.LASF59:
 1799 026e 65776D61 		.ascii	"ewmask\000"
 1799      736B00
 1800              	.LASF21:
 1801 0275 705F6E65 		.ascii	"p_next\000"
 1801      787400
 1802              	.LASF29:
 1803 027c 705F666C 		.ascii	"p_flags\000"
 1803      61677300 
 1804              	.LASF20:
 1805 0284 54687265 		.ascii	"Thread\000"
 1805      616400
 1806              	.LASF68:
 1807 028b 63684D73 		.ascii	"chMsgRelease\000"
 1807      6752656C 
 1807      65617365 
 1807      00
 1808              	.LASF70:
 1809 0298 63685363 		.ascii	"chSchGoSleepS\000"
 1809      68476F53 
 1809      6C656570 
 1809      5300
 1810              	.LASF35:
 1811 02a6 705F6570 		.ascii	"p_epending\000"
 1811      656E6469 
 1811      6E6700
 1812              	.LASF8:
 1813 02b1 75696E74 		.ascii	"uint32_t\000"
 1813      33325F74 
 1813      00
 1814              	.LASF45:
 1815 02ba 725F7175 		.ascii	"r_queue\000"
 1815      65756500 
 1816              	.LASF71:
 1817 02c2 63685363 		.ascii	"chSchReadyI\000"
 1817      68526561 
 1817      64794900 
 1818              	.LASF60:
 1819 02ce 63686172 		.ascii	"char\000"
 1819      00
 1820              	.LASF67:
 1821 02d3 6669666F 		.ascii	"fifo_remove\000"
 1821      5F72656D 
 1821      6F766500 
 1822              	.LASF55:
 1823 02df 6D5F6E65 		.ascii	"m_next\000"
ARM GAS  /tmp/cclGhJaJ.s 			page 35


 1823      787400
 1824              	.LASF19:
 1825 02e6 73797374 		.ascii	"systime_t\000"
 1825      696D655F 
 1825      7400
 1826              	.LASF37:
 1827 02f0 705F7265 		.ascii	"p_realprio\000"
 1827      616C7072 
 1827      696F00
 1828              	.LASF31:
 1829 02fb 705F7469 		.ascii	"p_time\000"
 1829      6D6500
 1830              	.LASF42:
 1831 0302 696E7463 		.ascii	"intctx\000"
 1831      747800
 1832              	.LASF33:
 1833 0309 705F6D73 		.ascii	"p_msgqueue\000"
 1833      67717565 
 1833      756500
 1834              	.LASF72:
 1835 0314 63685363 		.ascii	"chSchWakeupS\000"
 1835      6857616B 
 1835      65757053 
 1835      00
 1836              	.LASF62:
 1837 0321 63684D73 		.ascii	"chMsgWait\000"
 1837      67576169 
 1837      7400
 1838              	.LASF30:
 1839 032b 705F7265 		.ascii	"p_refs\000"
 1839      667300
 1840              	.LASF51:
 1841 0332 52656164 		.ascii	"ReadyList\000"
 1841      794C6973 
 1841      7400
 1842              	.LASF69:
 1843 033c 726C6973 		.ascii	"rlist\000"
 1843      7400
 1844              	.LASF5:
 1845 0342 75696E74 		.ascii	"uint8_t\000"
 1845      385F7400 
 1846              	.LASF58:
 1847 034a 77746F62 		.ascii	"wtobjp\000"
 1847      6A7000
 1848              	.LASF27:
 1849 0351 705F6E61 		.ascii	"p_name\000"
 1849      6D6500
 1850              	.LASF64:
 1851 0358 2E2E2F2E 		.ascii	"../../os/kernel/src/chmsg.c\000"
 1851      2E2F6F73 
 1851      2F6B6572 
 1851      6E656C2F 
 1851      7372632F 
 1852              	.LASF54:
 1853 0374 6D5F6F77 		.ascii	"m_owner\000"
 1853      6E657200 
 1854              	.LASF24:
ARM GAS  /tmp/cclGhJaJ.s 			page 36


 1855 037c 705F6374 		.ascii	"p_ctx\000"
 1855      7800
 1856              	.LASF32:
 1857 0382 705F7761 		.ascii	"p_waiting\000"
 1857      6974696E 
 1857      6700
 1858              		.ident	"GCC: (GNU) 4.8.1"
ARM GAS  /tmp/cclGhJaJ.s 			page 37


DEFINED SYMBOLS
                            *ABS*:0000000000000000 chmsg.c
     /tmp/cclGhJaJ.s:19     .text.chMsgSend:0000000000000000 $t
     /tmp/cclGhJaJ.s:24     .text.chMsgSend:0000000000000000 chMsgSend
     /tmp/cclGhJaJ.s:109    .text.chMsgWait:0000000000000000 $t
     /tmp/cclGhJaJ.s:114    .text.chMsgWait:0000000000000000 chMsgWait
     /tmp/cclGhJaJ.s:186    .text.chMsgRelease:0000000000000000 $t
     /tmp/cclGhJaJ.s:191    .text.chMsgRelease:0000000000000000 chMsgRelease
                     .debug_frame:0000000000000010 $d

UNDEFINED SYMBOLS
rlist
chSchGoSleepS
chSchReadyI
chSchWakeupS
