ARM GAS  /tmp/cc2pg7lx.s 			page 1


   1              		.syntax unified
   2              		.cpu cortex-m3
   3              		.fpu softvfp
   4              		.eabi_attribute 20, 1
   5              		.eabi_attribute 21, 1
   6              		.eabi_attribute 23, 3
   7              		.eabi_attribute 24, 1
   8              		.eabi_attribute 25, 1
   9              		.eabi_attribute 26, 1
  10              		.eabi_attribute 30, 2
  11              		.eabi_attribute 34, 1
  12              		.eabi_attribute 18, 4
  13              		.thumb
  14              		.file	"chmtx.c"
  15              		.text
  16              	.Ltext0:
  17              		.cfi_sections	.debug_frame
  18              		.section	.text.chMtxInit,"ax",%progbits
  19              		.align	2
  20              		.global	chMtxInit
  21              		.thumb
  22              		.thumb_func
  23              		.type	chMtxInit, %function
  24              	chMtxInit:
  25              	.LFB7:
  26              		.file 1 "../../os/kernel/src/chmtx.c"
  27              		.loc 1 79 0
  28              		.cfi_startproc
  29              		@ args = 0, pretend = 0, frame = 0
  30              		@ frame_needed = 0, uses_anonymous_args = 0
  31              		@ link register save eliminated.
  32              	.LVL0:
  33              		.loc 1 84 0
  34 0000 0023     		movs	r3, #0
  35              		.loc 1 83 0
  36 0002 4060     		str	r0, [r0, #4]
  37 0004 0060     		str	r0, [r0]
  38              		.loc 1 84 0
  39 0006 8360     		str	r3, [r0, #8]
  40 0008 7047     		bx	lr
  41              		.cfi_endproc
  42              	.LFE7:
  43              		.size	chMtxInit, .-chMtxInit
  44 000a 00BF     		.section	.text.chMtxLockS,"ax",%progbits
  45              		.align	2
  46              		.global	chMtxLockS
  47              		.thumb
  48              		.thumb_func
  49              		.type	chMtxLockS, %function
  50              	chMtxLockS:
  51              	.LFB9:
  52              		.loc 1 114 0
  53              		.cfi_startproc
  54              		@ args = 0, pretend = 0, frame = 0
  55              		@ frame_needed = 0, uses_anonymous_args = 0
  56              	.LVL1:
  57 0000 F8B5     		push	{r3, r4, r5, r6, r7, lr}
ARM GAS  /tmp/cc2pg7lx.s 			page 2


  58              		.cfi_def_cfa_offset 24
  59              		.cfi_offset 3, -24
  60              		.cfi_offset 4, -20
  61              		.cfi_offset 5, -16
  62              		.cfi_offset 6, -12
  63              		.cfi_offset 7, -8
  64              		.cfi_offset 14, -4
  65              		.loc 1 121 0
  66 0002 8268     		ldr	r2, [r0, #8]
  67              		.loc 1 115 0
  68 0004 40F20003 		movw	r3, #:lower16:rlist
  69 0008 C0F20003 		movt	r3, #:upper16:rlist
  70              		.loc 1 114 0
  71 000c 0546     		mov	r5, r0
  72              		.loc 1 115 0
  73 000e 9C69     		ldr	r4, [r3, #24]
  74              	.LVL2:
  75              		.loc 1 121 0
  76 0010 002A     		cmp	r2, #0
  77 0012 54D0     		beq	.L3
  78              	.LVL3:
  79              	.LBB33:
  80              		.loc 1 128 0 discriminator 1
  81 0014 A168     		ldr	r1, [r4, #8]
  82 0016 9368     		ldr	r3, [r2, #8]
  83 0018 9942     		cmp	r1, r3
  84 001a 06D9     		bls	.L5
  85              	.LVL4:
  86              	.L14:
  87              		.loc 1 132 0
  88 001c 137F     		ldrb	r3, [r2, #28]	@ zero_extendqisi2
  89              		.loc 1 130 0
  90 001e 9160     		str	r1, [r2, #8]
  91              		.loc 1 132 0
  92 0020 042B     		cmp	r3, #4
  93 0022 33D0     		beq	.L6
  94 0024 052B     		cmp	r3, #5
  95 0026 1DD0     		beq	.L7
  96 0028 9BB1     		cbz	r3, .L22
  97              	.LVL5:
  98              	.L5:
  99              	.LBB34:
 100              	.LBB35:
 101              		.file 2 "../../os/kernel/include/chinline.h"
 102              		.loc 2 36 0
 103 002a 2B46     		mov	r3, r5
 104 002c 03E0     		b	.L20
 105              	.LVL6:
 106              	.L18:
 107              		.loc 2 39 0
 108 002e 9968     		ldr	r1, [r3, #8]
 109 0030 A268     		ldr	r2, [r4, #8]
 110 0032 9142     		cmp	r1, r2
 111 0034 02D3     		bcc	.L19
 112              	.L20:
 113              		.loc 2 38 0
 114 0036 1B68     		ldr	r3, [r3]
ARM GAS  /tmp/cc2pg7lx.s 			page 3


 115              	.LVL7:
 116              		.loc 2 39 0
 117 0038 9D42     		cmp	r5, r3
 118 003a F8D1     		bne	.L18
 119              	.L19:
 120              		.loc 2 41 0
 121 003c 5A68     		ldr	r2, [r3, #4]
 122              		.loc 2 40 0
 123 003e 2360     		str	r3, [r4]
 124              		.loc 2 41 0
 125 0040 6260     		str	r2, [r4, #4]
 126              		.loc 2 42 0
 127 0042 5C60     		str	r4, [r3, #4]
 128 0044 1460     		str	r4, [r2]
 129              	.LBE35:
 130              	.LBE34:
 131              		.loc 1 167 0
 132 0046 6562     		str	r5, [r4, #36]
 133              		.loc 1 168 0
 134 0048 0420     		movs	r0, #4
 135              	.LBE33:
 136              		.loc 1 180 0
 137 004a BDE8F840 		pop	{r3, r4, r5, r6, r7, lr}
 138              	.LVL8:
 139              	.LBB58:
 140              		.loc 1 168 0
 141 004e FFF7FEBF 		b	chSchGoSleepS
 142              	.LVL9:
 143              	.L22:
 144              	.LBB36:
 145              	.LBB37:
 146              		.loc 2 68 0
 147 0052 92E80A00 		ldmia	r2, {r1, r3}
 148 0056 1960     		str	r1, [r3]
 149              	.LBE37:
 150              	.LBE36:
 151              		.loc 1 160 0
 152 0058 1046     		mov	r0, r2
 153              	.LBB39:
 154              	.LBB38:
 155              		.loc 2 69 0
 156 005a 1268     		ldr	r2, [r2]
 157              	.LVL10:
 158 005c 5360     		str	r3, [r2, #4]
 159              	.LBE38:
 160              	.LBE39:
 161              		.loc 1 160 0
 162 005e FFF7FEFF 		bl	chSchReadyI
 163              	.LVL11:
 164              		.loc 1 161 0
 165 0062 E2E7     		b	.L5
 166              	.LVL12:
 167              	.L7:
 168              	.LBB40:
 169              	.LBB41:
 170              		.loc 2 68 0
 171 0064 1368     		ldr	r3, [r2]
ARM GAS  /tmp/cc2pg7lx.s 			page 4


 172 0066 5068     		ldr	r0, [r2, #4]
 173              	.LBE41:
 174              	.LBE40:
 175              		.loc 1 151 0
 176 0068 566A     		ldr	r6, [r2, #36]
 177              	.LVL13:
 178              	.LBB44:
 179              	.LBB42:
 180              		.loc 2 68 0
 181 006a 0360     		str	r3, [r0]
 182              		.loc 2 69 0
 183 006c 1768     		ldr	r7, [r2]
 184              	.LBE42:
 185              	.LBE44:
 186              	.LBB45:
 187              	.LBB46:
 188              		.loc 2 36 0
 189 006e 3346     		mov	r3, r6
 190              	.LBE46:
 191              	.LBE45:
 192              	.LBB48:
 193              	.LBB43:
 194              		.loc 2 69 0
 195 0070 7860     		str	r0, [r7, #4]
 196 0072 02E0     		b	.L17
 197              	.LVL14:
 198              	.L15:
 199              	.LBE43:
 200              	.LBE48:
 201              	.LBB49:
 202              	.LBB47:
 203              		.loc 2 39 0
 204 0074 9868     		ldr	r0, [r3, #8]
 205 0076 8842     		cmp	r0, r1
 206 0078 02D3     		bcc	.L16
 207              	.L17:
 208              		.loc 2 38 0
 209 007a 1B68     		ldr	r3, [r3]
 210              	.LVL15:
 211              		.loc 2 39 0
 212 007c 9E42     		cmp	r6, r3
 213 007e F9D1     		bne	.L15
 214              	.L16:
 215              		.loc 2 41 0
 216 0080 5968     		ldr	r1, [r3, #4]
 217              		.loc 2 40 0
 218 0082 1360     		str	r3, [r2]
 219              		.loc 2 41 0
 220 0084 5160     		str	r1, [r2, #4]
 221              		.loc 2 42 0
 222 0086 5A60     		str	r2, [r3, #4]
 223 0088 0A60     		str	r2, [r1]
 224 008a CEE7     		b	.L5
 225              	.LVL16:
 226              	.L6:
 227              	.LBE47:
 228              	.LBE49:
ARM GAS  /tmp/cc2pg7lx.s 			page 5


 229              	.LBB50:
 230              	.LBB51:
 231              		.loc 2 68 0
 232 008c 1368     		ldr	r3, [r2]
 233 008e 5068     		ldr	r0, [r2, #4]
 234              	.LBE51:
 235              	.LBE50:
 236              		.loc 1 135 0
 237 0090 566A     		ldr	r6, [r2, #36]
 238              	.LVL17:
 239              	.LBB54:
 240              	.LBB52:
 241              		.loc 2 68 0
 242 0092 0360     		str	r3, [r0]
 243              		.loc 2 69 0
 244 0094 1768     		ldr	r7, [r2]
 245              	.LBE52:
 246              	.LBE54:
 247              		.loc 1 135 0
 248 0096 3346     		mov	r3, r6
 249              	.LBB55:
 250              	.LBB53:
 251              		.loc 2 69 0
 252 0098 7860     		str	r0, [r7, #4]
 253 009a 02E0     		b	.L13
 254              	.LVL18:
 255              	.L9:
 256              	.LBE53:
 257              	.LBE55:
 258              	.LBB56:
 259              	.LBB57:
 260              		.loc 2 39 0
 261 009c 9868     		ldr	r0, [r3, #8]
 262 009e 8842     		cmp	r0, r1
 263 00a0 02D3     		bcc	.L12
 264              	.L13:
 265              		.loc 2 38 0
 266 00a2 1B68     		ldr	r3, [r3]
 267              	.LVL19:
 268              		.loc 2 39 0
 269 00a4 9E42     		cmp	r6, r3
 270 00a6 F9D1     		bne	.L9
 271              	.L12:
 272              		.loc 2 41 0
 273 00a8 5968     		ldr	r1, [r3, #4]
 274              		.loc 2 40 0
 275 00aa 1360     		str	r3, [r2]
 276              		.loc 2 41 0
 277 00ac 5160     		str	r1, [r2, #4]
 278              		.loc 2 42 0
 279 00ae 5A60     		str	r2, [r3, #4]
 280 00b0 0A60     		str	r2, [r1]
 281              	.LBE57:
 282              	.LBE56:
 283              		.loc 1 136 0
 284 00b2 B268     		ldr	r2, [r6, #8]
 285              	.LVL20:
ARM GAS  /tmp/cc2pg7lx.s 			page 6


 286              		.loc 1 128 0
 287 00b4 A168     		ldr	r1, [r4, #8]
 288 00b6 9368     		ldr	r3, [r2, #8]
 289              	.LVL21:
 290 00b8 8B42     		cmp	r3, r1
 291 00ba AFD3     		bcc	.L14
 292 00bc B5E7     		b	.L5
 293              	.LVL22:
 294              	.L3:
 295              	.LBE58:
 296              		.loc 1 177 0
 297 00be E36B     		ldr	r3, [r4, #60]
 298              		.loc 1 176 0
 299 00c0 8460     		str	r4, [r0, #8]
 300              		.loc 1 177 0
 301 00c2 C360     		str	r3, [r0, #12]
 302              		.loc 1 178 0
 303 00c4 E063     		str	r0, [r4, #60]
 304 00c6 F8BD     		pop	{r3, r4, r5, r6, r7, pc}
 305              		.cfi_endproc
 306              	.LFE9:
 307              		.size	chMtxLockS, .-chMtxLockS
 308              		.section	.text.chMtxLock,"ax",%progbits
 309              		.align	2
 310              		.global	chMtxLock
 311              		.thumb
 312              		.thumb_func
 313              		.type	chMtxLock, %function
 314              	chMtxLock:
 315              	.LFB8:
 316              		.loc 1 96 0
 317              		.cfi_startproc
 318              		@ args = 0, pretend = 0, frame = 0
 319              		@ frame_needed = 0, uses_anonymous_args = 0
 320              	.LVL23:
 321 0000 08B5     		push	{r3, lr}
 322              		.cfi_def_cfa_offset 8
 323              		.cfi_offset 3, -8
 324              		.cfi_offset 14, -4
 325              	.LBB59:
 326              		.loc 1 98 0
 327 0002 4023     		movs	r3, #64
 328              	@ 98 "../../os/kernel/src/chmtx.c" 1
 329 0004 83F31188 		msr     BASEPRI, r3
 330              	@ 0 "" 2
 331              		.thumb
 332              	.LBE59:
 333              		.loc 1 100 0
 334 0008 FFF7FEFF 		bl	chMtxLockS
 335              	.LVL24:
 336              	.LBB60:
 337              		.loc 1 102 0
 338 000c 0023     		movs	r3, #0
 339              	@ 102 "../../os/kernel/src/chmtx.c" 1
 340 000e 83F31188 		msr     BASEPRI, r3
 341              	@ 0 "" 2
 342              		.thumb
ARM GAS  /tmp/cc2pg7lx.s 			page 7


 343 0012 08BD     		pop	{r3, pc}
 344              	.LBE60:
 345              		.cfi_endproc
 346              	.LFE8:
 347              		.size	chMtxLock, .-chMtxLock
 348              		.section	.text.chMtxTryLock,"ax",%progbits
 349              		.align	2
 350              		.global	chMtxTryLock
 351              		.thumb
 352              		.thumb_func
 353              		.type	chMtxTryLock, %function
 354              	chMtxTryLock:
 355              	.LFB10:
 356              		.loc 1 199 0
 357              		.cfi_startproc
 358              		@ args = 0, pretend = 0, frame = 0
 359              		@ frame_needed = 0, uses_anonymous_args = 0
 360              		@ link register save eliminated.
 361              	.LVL25:
 362              		.loc 1 199 0
 363 0000 0246     		mov	r2, r0
 364              	.LBB61:
 365              		.loc 1 202 0
 366 0002 4023     		movs	r3, #64
 367              	@ 202 "../../os/kernel/src/chmtx.c" 1
 368 0004 83F31188 		msr     BASEPRI, r3
 369              	@ 0 "" 2
 370              	.LVL26:
 371              		.thumb
 372              	.LBE61:
 373              	.LBB62:
 374              	.LBB63:
 375              		.loc 1 232 0
 376 0008 8368     		ldr	r3, [r0, #8]
 377              		.loc 1 233 0
 378 000a 0020     		movs	r0, #0
 379              	.LVL27:
 380              		.loc 1 232 0
 381 000c 1BB1     		cbz	r3, .L27
 382              	.LBE63:
 383              	.LBE62:
 384              	.LBB65:
 385              		.loc 1 206 0
 386 000e 0023     		movs	r3, #0
 387              	@ 206 "../../os/kernel/src/chmtx.c" 1
 388 0010 83F31188 		msr     BASEPRI, r3
 389              	@ 0 "" 2
 390              		.thumb
 391              	.LBE65:
 392              		.loc 1 208 0
 393 0014 7047     		bx	lr
 394              	.L27:
 395              	.LBB66:
 396              	.LBB64:
 397              		.loc 1 234 0
 398 0016 40F20003 		movw	r3, #:lower16:rlist
 399 001a C0F20003 		movt	r3, #:upper16:rlist
ARM GAS  /tmp/cc2pg7lx.s 			page 8


 400 001e 9B69     		ldr	r3, [r3, #24]
 401              		.loc 1 237 0
 402 0020 0120     		movs	r0, #1
 403              		.loc 1 235 0
 404 0022 D96B     		ldr	r1, [r3, #60]
 405              		.loc 1 234 0
 406 0024 9360     		str	r3, [r2, #8]
 407              		.loc 1 235 0
 408 0026 D160     		str	r1, [r2, #12]
 409              		.loc 1 236 0
 410 0028 DA63     		str	r2, [r3, #60]
 411              	.LBE64:
 412              	.LBE66:
 413              	.LBB67:
 414              		.loc 1 206 0
 415 002a 0023     		movs	r3, #0
 416              	@ 206 "../../os/kernel/src/chmtx.c" 1
 417 002c 83F31188 		msr     BASEPRI, r3
 418              	@ 0 "" 2
 419              		.thumb
 420              	.LBE67:
 421              		.loc 1 208 0
 422 0030 7047     		bx	lr
 423              		.cfi_endproc
 424              	.LFE10:
 425              		.size	chMtxTryLock, .-chMtxTryLock
 426 0032 00BF     		.section	.text.chMtxTryLockS,"ax",%progbits
 427              		.align	2
 428              		.global	chMtxTryLockS
 429              		.thumb
 430              		.thumb_func
 431              		.type	chMtxTryLockS, %function
 432              	chMtxTryLockS:
 433              	.LFB11:
 434              		.loc 1 227 0
 435              		.cfi_startproc
 436              		@ args = 0, pretend = 0, frame = 0
 437              		@ frame_needed = 0, uses_anonymous_args = 0
 438              		@ link register save eliminated.
 439              	.LVL28:
 440              		.loc 1 232 0
 441 0000 8268     		ldr	r2, [r0, #8]
 442              		.loc 1 227 0
 443 0002 0346     		mov	r3, r0
 444              		.loc 1 232 0
 445 0004 0AB1     		cbz	r2, .L31
 446              		.loc 1 233 0
 447 0006 0020     		movs	r0, #0
 448              	.LVL29:
 449              		.loc 1 238 0
 450 0008 7047     		bx	lr
 451              	.LVL30:
 452              	.L31:
 453              		.loc 1 234 0
 454 000a 40F20002 		movw	r2, #:lower16:rlist
 455 000e C0F20002 		movt	r2, #:upper16:rlist
 456 0012 9269     		ldr	r2, [r2, #24]
ARM GAS  /tmp/cc2pg7lx.s 			page 9


 457              		.loc 1 237 0
 458 0014 0120     		movs	r0, #1
 459              	.LVL31:
 460              		.loc 1 235 0
 461 0016 D16B     		ldr	r1, [r2, #60]
 462              		.loc 1 234 0
 463 0018 9A60     		str	r2, [r3, #8]
 464              		.loc 1 235 0
 465 001a D960     		str	r1, [r3, #12]
 466              		.loc 1 236 0
 467 001c D363     		str	r3, [r2, #60]
 468              		.loc 1 237 0
 469 001e 7047     		bx	lr
 470              		.cfi_endproc
 471              	.LFE11:
 472              		.size	chMtxTryLockS, .-chMtxTryLockS
 473              		.section	.text.chMtxUnlock,"ax",%progbits
 474              		.align	2
 475              		.global	chMtxUnlock
 476              		.thumb
 477              		.thumb_func
 478              		.type	chMtxUnlock, %function
 479              	chMtxUnlock:
 480              	.LFB12:
 481              		.loc 1 250 0
 482              		.cfi_startproc
 483              		@ args = 0, pretend = 0, frame = 0
 484              		@ frame_needed = 0, uses_anonymous_args = 0
 485 0000 38B5     		push	{r3, r4, r5, lr}
 486              		.cfi_def_cfa_offset 16
 487              		.cfi_offset 3, -16
 488              		.cfi_offset 4, -12
 489              		.cfi_offset 5, -8
 490              		.cfi_offset 14, -4
 491              		.loc 1 251 0
 492 0002 40F20003 		movw	r3, #:lower16:rlist
 493 0006 C0F20003 		movt	r3, #:upper16:rlist
 494 000a 9869     		ldr	r0, [r3, #24]
 495              	.LVL32:
 496              	.LBB68:
 497              		.loc 1 254 0
 498 000c 4023     		movs	r3, #64
 499              	@ 254 "../../os/kernel/src/chmtx.c" 1
 500 000e 83F31188 		msr     BASEPRI, r3
 501              	@ 0 "" 2
 502              		.thumb
 503              	.LBE68:
 504              		.loc 1 263 0
 505 0012 C46B     		ldr	r4, [r0, #60]
 506              	.LVL33:
 507              		.loc 1 266 0
 508 0014 2568     		ldr	r5, [r4]
 509              		.loc 1 264 0
 510 0016 E368     		ldr	r3, [r4, #12]
 511              		.loc 1 266 0
 512 0018 A542     		cmp	r5, r4
 513              		.loc 1 264 0
ARM GAS  /tmp/cc2pg7lx.s 			page 10


 514 001a C363     		str	r3, [r0, #60]
 515              		.loc 1 266 0
 516 001c 1CD0     		beq	.L33
 517              	.LBB69:
 518              		.loc 1 271 0
 519 001e 016C     		ldr	r1, [r0, #64]
 520              	.LVL34:
 521              		.loc 1 273 0
 522 0020 4BB1     		cbz	r3, .L34
 523              	.L36:
 524              		.loc 1 277 0
 525 0022 1A68     		ldr	r2, [r3]
 526 0024 9A42     		cmp	r2, r3
 527 0026 03D0     		beq	.L35
 528              		.loc 1 277 0 is_stmt 0 discriminator 1
 529 0028 9268     		ldr	r2, [r2, #8]
 530 002a 9142     		cmp	r1, r2
 531 002c 38BF     		it	cc
 532 002e 1146     		movcc	r1, r2
 533              	.LVL35:
 534              	.L35:
 535              		.loc 1 279 0 is_stmt 1
 536 0030 DB68     		ldr	r3, [r3, #12]
 537              	.LVL36:
 538              		.loc 1 273 0
 539 0032 002B     		cmp	r3, #0
 540 0034 F5D1     		bne	.L36
 541              	.L34:
 542              	.LBB70:
 543              	.LBB71:
 544              		.loc 2 55 0
 545 0036 2B68     		ldr	r3, [r5]
 546              	.LVL37:
 547              	.LBE71:
 548              	.LBE70:
 549              		.loc 1 288 0
 550 0038 EA6B     		ldr	r2, [r5, #60]
 551              		.loc 1 283 0
 552 003a 8160     		str	r1, [r0, #8]
 553              	.LVL38:
 554              	.LBB74:
 555              	.LBB72:
 556              		.loc 2 55 0
 557 003c 2360     		str	r3, [r4]
 558              	.LBE72:
 559              	.LBE74:
 560              		.loc 1 290 0
 561 003e 2846     		mov	r0, r5
 562              	.LVL39:
 563              	.LBB75:
 564              	.LBB73:
 565              		.loc 2 55 0
 566 0040 5C60     		str	r4, [r3, #4]
 567              	.LBE73:
 568              	.LBE75:
 569              		.loc 1 290 0
 570 0042 0021     		movs	r1, #0
ARM GAS  /tmp/cc2pg7lx.s 			page 11


 571              	.LVL40:
 572              		.loc 1 287 0
 573 0044 A560     		str	r5, [r4, #8]
 574              		.loc 1 288 0
 575 0046 E260     		str	r2, [r4, #12]
 576              		.loc 1 289 0
 577 0048 EC63     		str	r4, [r5, #60]
 578              		.loc 1 290 0
 579 004a FFF7FEFF 		bl	chSchWakeupS
 580              	.LVL41:
 581              	.LBE69:
 582              	.LBB76:
 583              		.loc 1 294 0
 584 004e 0023     		movs	r3, #0
 585              	@ 294 "../../os/kernel/src/chmtx.c" 1
 586 0050 83F31188 		msr     BASEPRI, r3
 587              	@ 0 "" 2
 588              		.thumb
 589              	.LBE76:
 590              		.loc 1 296 0
 591 0054 2046     		mov	r0, r4
 592 0056 38BD     		pop	{r3, r4, r5, pc}
 593              	.LVL42:
 594              	.L33:
 595              		.loc 1 293 0
 596 0058 0023     		movs	r3, #0
 597 005a A360     		str	r3, [r4, #8]
 598              	.LBB77:
 599              		.loc 1 294 0
 600 005c 0023     		movs	r3, #0
 601              	@ 294 "../../os/kernel/src/chmtx.c" 1
 602 005e 83F31188 		msr     BASEPRI, r3
 603              	@ 0 "" 2
 604              		.thumb
 605              	.LBE77:
 606              		.loc 1 296 0
 607 0062 2046     		mov	r0, r4
 608              	.LVL43:
 609 0064 38BD     		pop	{r3, r4, r5, pc}
 610              		.cfi_endproc
 611              	.LFE12:
 612              		.size	chMtxUnlock, .-chMtxUnlock
 613 0066 00BF     		.section	.text.chMtxUnlockS,"ax",%progbits
 614              		.align	2
 615              		.global	chMtxUnlockS
 616              		.thumb
 617              		.thumb_func
 618              		.type	chMtxUnlockS, %function
 619              	chMtxUnlockS:
 620              	.LFB13:
 621              		.loc 1 310 0
 622              		.cfi_startproc
 623              		@ args = 0, pretend = 0, frame = 0
 624              		@ frame_needed = 0, uses_anonymous_args = 0
 625 0000 38B5     		push	{r3, r4, r5, lr}
 626              		.cfi_def_cfa_offset 16
 627              		.cfi_offset 3, -16
ARM GAS  /tmp/cc2pg7lx.s 			page 12


 628              		.cfi_offset 4, -12
 629              		.cfi_offset 5, -8
 630              		.cfi_offset 14, -4
 631              		.loc 1 311 0
 632 0002 40F20003 		movw	r3, #:lower16:rlist
 633 0006 C0F20003 		movt	r3, #:upper16:rlist
 634 000a 9869     		ldr	r0, [r3, #24]
 635              	.LVL44:
 636              		.loc 1 324 0
 637 000c C46B     		ldr	r4, [r0, #60]
 638              	.LVL45:
 639              		.loc 1 327 0
 640 000e 2568     		ldr	r5, [r4]
 641              		.loc 1 325 0
 642 0010 E368     		ldr	r3, [r4, #12]
 643              		.loc 1 327 0
 644 0012 A542     		cmp	r5, r4
 645              		.loc 1 325 0
 646 0014 C363     		str	r3, [r0, #60]
 647              		.loc 1 327 0
 648 0016 18D0     		beq	.L45
 649              	.LBB78:
 650              		.loc 1 332 0
 651 0018 016C     		ldr	r1, [r0, #64]
 652              	.LVL46:
 653              		.loc 1 334 0
 654 001a 4BB1     		cbz	r3, .L46
 655              	.L48:
 656              		.loc 1 338 0
 657 001c 1A68     		ldr	r2, [r3]
 658 001e 9A42     		cmp	r2, r3
 659 0020 03D0     		beq	.L47
 660              		.loc 1 338 0 is_stmt 0 discriminator 1
 661 0022 9268     		ldr	r2, [r2, #8]
 662 0024 9142     		cmp	r1, r2
 663 0026 38BF     		it	cc
 664 0028 1146     		movcc	r1, r2
 665              	.LVL47:
 666              	.L47:
 667              		.loc 1 340 0 is_stmt 1
 668 002a DB68     		ldr	r3, [r3, #12]
 669              	.LVL48:
 670              		.loc 1 334 0
 671 002c 002B     		cmp	r3, #0
 672 002e F5D1     		bne	.L48
 673              	.L46:
 674              		.loc 1 347 0
 675 0030 EA6B     		ldr	r2, [r5, #60]
 676              	.LBB79:
 677              	.LBB80:
 678              		.loc 2 55 0
 679 0032 2B68     		ldr	r3, [r5]
 680              	.LVL49:
 681              	.LBE80:
 682              	.LBE79:
 683              		.loc 1 342 0
 684 0034 8160     		str	r1, [r0, #8]
ARM GAS  /tmp/cc2pg7lx.s 			page 13


 685              	.LVL50:
 686              	.LBB83:
 687              	.LBB81:
 688              		.loc 2 55 0
 689 0036 2360     		str	r3, [r4]
 690              	.LBE81:
 691              	.LBE83:
 692              		.loc 1 349 0
 693 0038 2846     		mov	r0, r5
 694              	.LVL51:
 695              	.LBB84:
 696              	.LBB82:
 697              		.loc 2 55 0
 698 003a 5C60     		str	r4, [r3, #4]
 699              	.LBE82:
 700              	.LBE84:
 701              		.loc 1 346 0
 702 003c A560     		str	r5, [r4, #8]
 703              		.loc 1 347 0
 704 003e E260     		str	r2, [r4, #12]
 705              		.loc 1 348 0
 706 0040 EC63     		str	r4, [r5, #60]
 707              		.loc 1 349 0
 708 0042 FFF7FEFF 		bl	chSchReadyI
 709              	.LVL52:
 710              	.LBE78:
 711              		.loc 1 354 0
 712 0046 2046     		mov	r0, r4
 713 0048 38BD     		pop	{r3, r4, r5, pc}
 714              	.LVL53:
 715              	.L45:
 716              		.loc 1 352 0
 717 004a 0023     		movs	r3, #0
 718 004c A360     		str	r3, [r4, #8]
 719              		.loc 1 354 0
 720 004e 2046     		mov	r0, r4
 721              	.LVL54:
 722 0050 38BD     		pop	{r3, r4, r5, pc}
 723              		.cfi_endproc
 724              	.LFE13:
 725              		.size	chMtxUnlockS, .-chMtxUnlockS
 726 0052 00BF     		.section	.text.chMtxUnlockAll,"ax",%progbits
 727              		.align	2
 728              		.global	chMtxUnlockAll
 729              		.thumb
 730              		.thumb_func
 731              		.type	chMtxUnlockAll, %function
 732              	chMtxUnlockAll:
 733              	.LFB14:
 734              		.loc 1 367 0
 735              		.cfi_startproc
 736              		@ args = 0, pretend = 0, frame = 0
 737              		@ frame_needed = 0, uses_anonymous_args = 0
 738              		.loc 1 368 0
 739 0000 40F20003 		movw	r3, #:lower16:rlist
 740 0004 C0F20003 		movt	r3, #:upper16:rlist
 741              		.loc 1 367 0
ARM GAS  /tmp/cc2pg7lx.s 			page 14


 742 0008 70B5     		push	{r4, r5, r6, lr}
 743              		.cfi_def_cfa_offset 16
 744              		.cfi_offset 4, -16
 745              		.cfi_offset 5, -12
 746              		.cfi_offset 6, -8
 747              		.cfi_offset 14, -4
 748              		.loc 1 368 0
 749 000a 9C69     		ldr	r4, [r3, #24]
 750              	.LVL55:
 751              	.LBB85:
 752              		.loc 1 370 0
 753 000c 4023     		movs	r3, #64
 754              	@ 370 "../../os/kernel/src/chmtx.c" 1
 755 000e 83F31188 		msr     BASEPRI, r3
 756              	@ 0 "" 2
 757              		.thumb
 758              	.LBE85:
 759              		.loc 1 371 0
 760 0012 E36B     		ldr	r3, [r4, #60]
 761 0014 C3B1     		cbz	r3, .L57
 762              	.LBB86:
 763              		.loc 1 383 0
 764 0016 0026     		movs	r6, #0
 765              	.L61:
 766              	.LVL56:
 767              		.loc 1 375 0
 768 0018 1A68     		ldr	r2, [r3]
 769              	.LVL57:
 770              		.loc 1 374 0
 771 001a D968     		ldr	r1, [r3, #12]
 772              		.loc 1 375 0
 773 001c 9A42     		cmp	r2, r3
 774              		.loc 1 374 0
 775 001e E163     		str	r1, [r4, #60]
 776              		.loc 1 383 0
 777 0020 08BF     		it	eq
 778 0022 9E60     		streq	r6, [r3, #8]
 779              		.loc 1 375 0
 780 0024 09D0     		beq	.L59
 781              	.LBB87:
 782              		.loc 1 378 0
 783 0026 D56B     		ldr	r5, [r2, #60]
 784              	.LBB88:
 785              	.LBB89:
 786              		.loc 2 55 0
 787 0028 1168     		ldr	r1, [r2]
 788              	.LBE89:
 789              	.LBE88:
 790              		.loc 1 380 0
 791 002a 1046     		mov	r0, r2
 792              	.LBB91:
 793              	.LBB90:
 794              		.loc 2 55 0
 795 002c 1960     		str	r1, [r3]
 796 002e 4B60     		str	r3, [r1, #4]
 797              	.LBE90:
 798              	.LBE91:
ARM GAS  /tmp/cc2pg7lx.s 			page 15


 799              		.loc 1 377 0
 800 0030 9A60     		str	r2, [r3, #8]
 801              		.loc 1 378 0
 802 0032 DD60     		str	r5, [r3, #12]
 803              		.loc 1 379 0
 804 0034 D363     		str	r3, [r2, #60]
 805              		.loc 1 380 0
 806 0036 FFF7FEFF 		bl	chSchReadyI
 807              	.LVL58:
 808              	.L59:
 809              	.LBE87:
 810              	.LBE86:
 811              		.loc 1 384 0
 812 003a E36B     		ldr	r3, [r4, #60]
 813 003c 002B     		cmp	r3, #0
 814 003e EBD1     		bne	.L61
 815              		.loc 1 385 0
 816 0040 236C     		ldr	r3, [r4, #64]
 817 0042 A360     		str	r3, [r4, #8]
 818              		.loc 1 386 0
 819 0044 FFF7FEFF 		bl	chSchRescheduleS
 820              	.LVL59:
 821              	.L57:
 822              	.LBB92:
 823              		.loc 1 388 0
 824 0048 0023     		movs	r3, #0
 825              	@ 388 "../../os/kernel/src/chmtx.c" 1
 826 004a 83F31188 		msr     BASEPRI, r3
 827              	@ 0 "" 2
 828              		.thumb
 829 004e 70BD     		pop	{r4, r5, r6, pc}
 830              	.LBE92:
 831              		.cfi_endproc
 832              	.LFE14:
 833              		.size	chMtxUnlockAll, .-chMtxUnlockAll
 834              		.text
 835              	.Letext0:
 836              		.file 3 "/home/daniofb/arm-cm3-eabi/arm-cm3-eabi/sys-include/stdint.h"
 837              		.file 4 "../../os/ports/GCC/ARMCMx/chtypes.h"
 838              		.file 5 "../../os/kernel/include/chlists.h"
 839              		.file 6 "../../os/kernel/include/chthreads.h"
 840              		.file 7 "../../os/ports/GCC/ARMCMx/chcore_v7m.h"
 841              		.file 8 "../../os/kernel/include/chschd.h"
 842              		.file 9 "../../os/kernel/include/chmtx.h"