ARM GAS  /tmp/ccwLy8iU.s 			page 1


   1              		.syntax unified
   2              		.cpu cortex-m3
   3              		.fpu softvfp
   4              		.eabi_attribute 20, 1
   5              		.eabi_attribute 21, 1
   6              		.eabi_attribute 23, 3
   7              		.eabi_attribute 24, 1
   8              		.eabi_attribute 25, 1
   9              		.eabi_attribute 26, 1
  10              		.eabi_attribute 30, 2
  11              		.eabi_attribute 34, 1
  12              		.eabi_attribute 18, 4
  13              		.thumb
  14              		.file	"chsys.c"
  15              		.text
  16              	.Ltext0:
  17              		.cfi_sections	.debug_frame
  18              		.section	.text._idle_thread,"ax",%progbits
  19              		.align	2
  20              		.global	_idle_thread
  21              		.thumb
  22              		.thumb_func
  23              		.type	_idle_thread, %function
  24              	_idle_thread:
  25              	.LFB7:
  26              		.file 1 "../../os/kernel/src/chsys.c"
  27              		.loc 1 54 0
  28              		.cfi_startproc
  29              		@ Volatile: function does not return.
  30              		@ args = 0, pretend = 0, frame = 0
  31              		@ frame_needed = 0, uses_anonymous_args = 0
  32              		@ link register save eliminated.
  33              	.LVL0:
  34              		.loc 1 57 0
  35 0000 40F20003 		movw	r3, #:lower16:rlist
  36 0004 C0F20003 		movt	r3, #:upper16:rlist
  37 0008 9A69     		ldr	r2, [r3, #24]
  38 000a 40F20003 		movw	r3, #:lower16:.LC0
  39 000e C0F20003 		movt	r3, #:upper16:.LC0
  40 0012 9361     		str	r3, [r2, #24]
  41              	.L2:
  42 0014 FEE7     		b	.L2
  43              		.cfi_endproc
  44              	.LFE7:
  45              		.size	_idle_thread, .-_idle_thread
  46 0016 00BF     		.section	.text.chSysInit,"ax",%progbits
  47              		.align	2
  48              		.global	chSysInit
  49              		.thumb
  50              		.thumb_func
  51              		.type	chSysInit, %function
  52              	chSysInit:
  53              	.LFB8:
  54              		.loc 1 77 0
  55              		.cfi_startproc
  56              		@ args = 0, pretend = 0, frame = 0
  57              		@ frame_needed = 0, uses_anonymous_args = 0
ARM GAS  /tmp/ccwLy8iU.s 			page 2


  58 0000 10B5     		push	{r4, lr}
  59              		.cfi_def_cfa_offset 8
  60              		.cfi_offset 4, -8
  61              		.cfi_offset 14, -4
  62 0002 82B0     		sub	sp, sp, #8
  63              		.cfi_def_cfa_offset 16
  64              		.loc 1 83 0
  65 0004 FFF7FEFF 		bl	_port_init
  66              	.LVL1:
  67              		.loc 1 84 0
  68 0008 FFF7FEFF 		bl	_scheduler_init
  69              	.LVL2:
  70              		.loc 1 85 0
  71 000c FFF7FEFF 		bl	_vt_init
  72              	.LVL3:
  73              		.loc 1 87 0
  74 0010 FFF7FEFF 		bl	_core_init
  75              	.LVL4:
  76              		.loc 1 90 0
  77 0014 FFF7FEFF 		bl	_heap_init
  78              	.LVL5:
  79              		.loc 1 97 0
  80 0018 40F20000 		movw	r0, #:lower16:.LANCHOR0
  81 001c 4021     		movs	r1, #64
  82 001e C0F20000 		movt	r0, #:upper16:.LANCHOR0
  83 0022 FFF7FEFF 		bl	_thread_init
  84              	.LVL6:
  85 0026 40F20003 		movw	r3, #:lower16:rlist
  86 002a C0F20003 		movt	r3, #:upper16:rlist
  87              		.loc 1 98 0
  88 002e 0122     		movs	r2, #1
  89              		.loc 1 97 0
  90 0030 9861     		str	r0, [r3, #24]
  91              		.loc 1 98 0
  92 0032 0277     		strb	r2, [r0, #28]
  93              	.LBB2:
  94              		.loc 1 104 0
  95 0034 0023     		movs	r3, #0
  96              	@ 104 "../../os/kernel/src/chsys.c" 1
  97 0036 83F31188 		msr     BASEPRI, r3                    
  98 003a 62B6     		cpsie   i
  99              	@ 0 "" 2
 100              		.thumb
 101              	.LBE2:
 102              		.loc 1 108 0
 103 003c 40F20003 		movw	r3, #:lower16:rlist
 104 0040 C0F20003 		movt	r3, #:upper16:rlist
 105 0044 9C69     		ldr	r4, [r3, #24]
 106 0046 40F20002 		movw	r2, #:lower16:ch_debug
 107 004a C0F20002 		movt	r2, #:upper16:ch_debug
 108              		.loc 1 114 0
 109 004e 0021     		movs	r1, #0
 110 0050 40F20000 		movw	r0, #:lower16:.LANCHOR1
 111 0054 40F20003 		movw	r3, #:lower16:_idle_thread
 112              		.loc 1 108 0
 113 0058 A261     		str	r2, [r4, #24]
 114              		.loc 1 114 0
ARM GAS  /tmp/ccwLy8iU.s 			page 3


 115 005a C0F20003 		movt	r3, #:upper16:_idle_thread
 116 005e 0091     		str	r1, [sp]
 117 0060 0122     		movs	r2, #1
 118 0062 C021     		movs	r1, #192
 119 0064 C0F20000 		movt	r0, #:upper16:.LANCHOR1
 120 0068 FFF7FEFF 		bl	chThdCreateStatic
 121              	.LVL7:
 122              		.loc 1 117 0
 123 006c 02B0     		add	sp, sp, #8
 124              		@ sp needed
 125 006e 10BD     		pop	{r4, pc}
 126              		.cfi_endproc
 127              	.LFE8:
 128              		.size	chSysInit, .-chSysInit
 129              		.section	.text.chSysTimerHandlerI,"ax",%progbits
 130              		.align	2
 131              		.global	chSysTimerHandlerI
 132              		.thumb
 133              		.thumb_func
 134              		.type	chSysTimerHandlerI, %function
 135              	chSysTimerHandlerI:
 136              	.LFB9:
 137              		.loc 1 130 0
 138              		.cfi_startproc
 139              		@ args = 0, pretend = 0, frame = 0
 140              		@ frame_needed = 0, uses_anonymous_args = 0
 141              		.loc 1 141 0
 142 0000 40F20003 		movw	r3, #:lower16:rlist
 143 0004 C0F20003 		movt	r3, #:upper16:rlist
 144 0008 9B69     		ldr	r3, [r3, #24]
 145              		.loc 1 143 0
 146 000a 40F20001 		movw	r1, #:lower16:vtlist
 147              		.loc 1 141 0
 148 000e 1A6A     		ldr	r2, [r3, #32]
 149              		.loc 1 143 0
 150 0010 C0F20001 		movt	r1, #:upper16:vtlist
 151              		.loc 1 141 0
 152 0014 0132     		adds	r2, r2, #1
 153              		.loc 1 130 0
 154 0016 70B5     		push	{r4, r5, r6, lr}
 155              		.cfi_def_cfa_offset 16
 156              		.cfi_offset 4, -16
 157              		.cfi_offset 5, -12
 158              		.cfi_offset 6, -8
 159              		.cfi_offset 14, -4
 160              		.loc 1 141 0
 161 0018 1A62     		str	r2, [r3, #32]
 162              		.loc 1 143 0
 163 001a CB68     		ldr	r3, [r1, #12]
 164 001c 0A68     		ldr	r2, [r1]
 165 001e 0133     		adds	r3, r3, #1
 166 0020 8A42     		cmp	r2, r1
 167 0022 CB60     		str	r3, [r1, #12]
 168 0024 19D0     		beq	.L5
 169              	.LBB3:
 170              		.loc 1 143 0 is_stmt 0 discriminator 1
 171 0026 9668     		ldr	r6, [r2, #8]
ARM GAS  /tmp/ccwLy8iU.s 			page 4


 172 0028 013E     		subs	r6, r6, #1
 173 002a 9660     		str	r6, [r2, #8]
 174              	.LVL8:
 175 002c AEB9     		cbnz	r6, .L5
 176              		.loc 1 143 0
 177 002e 0D46     		mov	r5, r1
 178              	.L8:
 179              	.LBB4:
 180              		.loc 1 143 0 discriminator 2
 181 0030 1068     		ldr	r0, [r2]
 182 0032 D468     		ldr	r4, [r2, #12]
 183              	.LVL9:
 184 0034 0860     		str	r0, [r1]
 185 0036 D660     		str	r6, [r2, #12]
 186              	.LBB5:
 187 0038 0023     		movs	r3, #0
 188              	.LBE5:
 189 003a 4160     		str	r1, [r0, #4]
 190              	.LBB6:
 191              	@ 143 "../../os/kernel/src/chsys.c" 1
 192 003c 83F31188 		msr     BASEPRI, r3
 193              	@ 0 "" 2
 194              		.thumb
 195              	.LBE6:
 196 0040 1069     		ldr	r0, [r2, #16]
 197 0042 A047     		blx	r4
 198              	.LVL10:
 199              	.LBB7:
 200 0044 4023     		movs	r3, #64
 201              	@ 143 "../../os/kernel/src/chsys.c" 1
 202 0046 83F31188 		msr     BASEPRI, r3
 203              	@ 0 "" 2
 204              		.thumb
 205              	.LBE7:
 206              	.LBE4:
 207 004a 2A68     		ldr	r2, [r5]
 208              	.LVL11:
 209 004c 40F20001 		movw	r1, #:lower16:vtlist
 210 0050 9368     		ldr	r3, [r2, #8]
 211 0052 C0F20001 		movt	r1, #:upper16:vtlist
 212 0056 002B     		cmp	r3, #0
 213 0058 EAD0     		beq	.L8
 214              	.LVL12:
 215              	.L5:
 216 005a 70BD     		pop	{r4, r5, r6, pc}
 217              	.LBE3:
 218              		.cfi_endproc
 219              	.LFE9:
 220              		.size	chSysTimerHandlerI, .-chSysTimerHandlerI
 221              		.global	_idle_thread_wa
 222              		.section	.bss.mainthread.4776,"aw",%nobits
 223              		.align	2
 224              		.set	.LANCHOR0,. + 0
 225              		.type	mainthread.4776, %object
 226              		.size	mainthread.4776, 72
 227              	mainthread.4776:
 228 0000 00000000 		.space	72
ARM GAS  /tmp/ccwLy8iU.s 			page 5


 228      00000000 
 228      00000000 
 228      00000000 
 228      00000000 
 229              		.section	.rodata.str1.4,"aMS",%progbits,1
 230              		.align	2
 231              	.LC0:
 232 0000 69646C65 		.ascii	"idle\000"
 232      00
 233 0005 000000   		.section	.bss._idle_thread_wa,"aw",%nobits
 234              		.align	3
 235              		.set	.LANCHOR1,. + 0
 236              		.type	_idle_thread_wa, %object
 237              		.size	_idle_thread_wa, 192
 238              	_idle_thread_wa:
 239 0000 00000000 		.space	192
 239      00000000 
 239      00000000 
 239      00000000 
 239      00000000 
 240              		.text
 241              	.Letext0:
 242              		.file 2 "/home/daniofb/arm-cm3-eabi/lib/gcc/arm-cm3-eabi/4.8.1/include/stddef.h"
 243              		.file 3 "/home/daniofb/arm-cm3-eabi/arm-cm3-eabi/sys-include/stdint.h"
 244              		.file 4 "../../os/ports/GCC/ARMCMx/chtypes.h"
 245              		.file 5 "../../os/kernel/include/chlists.h"
 246              		.file 6 "../../os/kernel/include/chthreads.h"
 247              		.file 7 "../../os/ports/GCC/ARMCMx/chcore_v7m.h"
 248              		.file 8 "../../os/kernel/include/chvt.h"
 249              		.file 9 "../../os/kernel/include/chschd.h"
 250              		.file 10 "../../os/kernel/include/chmtx.h"
 251              		.file 11 "../../os/kernel/include/chregistry.h"
 252              		.file 12 "../../os/kernel/include/chmemcore.h"
 253              		.file 13 "../../os/kernel/include/chheap.h"