ARM GAS  /tmp/ccwLy8iU.s 			page 1


   1              		.syntax unified
   2              		.cpu cortex-m3
   3              		.fpu softvfp
   4              		.eabi_attribute 20, 1
   5              		.eabi_attribute 21, 1
   6              		.eabi_attribute 23, 3
   7              		.eabi_attribute 24, 1
   8              		.eabi_attribute 25, 1
   9              		.eabi_attribute 26, 1
  10              		.eabi_attribute 30, 2
  11              		.eabi_attribute 34, 1
  12              		.eabi_attribute 18, 4
  13              		.thumb
  14              		.file	"chsys.c"
  15              		.text
  16              	.Ltext0:
  17              		.cfi_sections	.debug_frame
  18              		.section	.text._idle_thread,"ax",%progbits
  19              		.align	2
  20              		.global	_idle_thread
  21              		.thumb
  22              		.thumb_func
  23              		.type	_idle_thread, %function
  24              	_idle_thread:
  25              	.LFB7:
  26              		.file 1 "../../os/kernel/src/chsys.c"
  27              		.loc 1 54 0
  28              		.cfi_startproc
  29              		@ Volatile: function does not return.
  30              		@ args = 0, pretend = 0, frame = 0
  31              		@ frame_needed = 0, uses_anonymous_args = 0
  32              		@ link register save eliminated.
  33              	.LVL0:
  34              		.loc 1 57 0
  35 0000 40F20003 		movw	r3, #:lower16:rlist
  36 0004 C0F20003 		movt	r3, #:upper16:rlist
  37 0008 9A69     		ldr	r2, [r3, #24]
  38 000a 40F20003 		movw	r3, #:lower16:.LC0
  39 000e C0F20003 		movt	r3, #:upper16:.LC0
  40 0012 9361     		str	r3, [r2, #24]
  41              	.L2:
  42 0014 FEE7     		b	.L2
  43              		.cfi_endproc
  44              	.LFE7:
  45              		.size	_idle_thread, .-_idle_thread
  46 0016 00BF     		.section	.text.chSysInit,"ax",%progbits
  47              		.align	2
  48              		.global	chSysInit
  49              		.thumb
  50              		.thumb_func
  51              		.type	chSysInit, %function
  52              	chSysInit:
  53              	.LFB8:
  54              		.loc 1 77 0
  55              		.cfi_startproc
  56              		@ args = 0, pretend = 0, frame = 0
  57              		@ frame_needed = 0, uses_anonymous_args = 0
ARM GAS  /tmp/ccwLy8iU.s 			page 2


  58 0000 10B5     		push	{r4, lr}
  59              		.cfi_def_cfa_offset 8
  60              		.cfi_offset 4, -8
  61              		.cfi_offset 14, -4
  62 0002 82B0     		sub	sp, sp, #8
  63              		.cfi_def_cfa_offset 16
  64              		.loc 1 83 0
  65 0004 FFF7FEFF 		bl	_port_init
  66              	.LVL1:
  67              		.loc 1 84 0
  68 0008 FFF7FEFF 		bl	_scheduler_init
  69              	.LVL2:
  70              		.loc 1 85 0
  71 000c FFF7FEFF 		bl	_vt_init
  72              	.LVL3:
  73              		.loc 1 87 0
  74 0010 FFF7FEFF 		bl	_core_init
  75              	.LVL4:
  76              		.loc 1 90 0
  77 0014 FFF7FEFF 		bl	_heap_init
  78              	.LVL5:
  79              		.loc 1 97 0
  80 0018 40F20000 		movw	r0, #:lower16:.LANCHOR0
  81 001c 4021     		movs	r1, #64
  82 001e C0F20000 		movt	r0, #:upper16:.LANCHOR0
  83 0022 FFF7FEFF 		bl	_thread_init
  84              	.LVL6:
  85 0026 40F20003 		movw	r3, #:lower16:rlist
  86 002a C0F20003 		movt	r3, #:upper16:rlist
  87              		.loc 1 98 0
  88 002e 0122     		movs	r2, #1
  89              		.loc 1 97 0
  90 0030 9861     		str	r0, [r3, #24]
  91              		.loc 1 98 0
  92 0032 0277     		strb	r2, [r0, #28]
  93              	.LBB2:
  94              		.loc 1 104 0
  95 0034 0023     		movs	r3, #0
  96              	@ 104 "../../os/kernel/src/chsys.c" 1
  97 0036 83F31188 		msr     BASEPRI, r3                    
  98 003a 62B6     		cpsie   i
  99              	@ 0 "" 2
 100              		.thumb
 101              	.LBE2:
 102              		.loc 1 108 0
 103 003c 40F20003 		movw	r3, #:lower16:rlist
 104 0040 C0F20003 		movt	r3, #:upper16:rlist
 105 0044 9C69     		ldr	r4, [r3, #24]
 106 0046 40F20002 		movw	r2, #:lower16:ch_debug
 107 004a C0F20002 		movt	r2, #:upper16:ch_debug
 108              		.loc 1 114 0
 109 004e 0021     		movs	r1, #0
 110 0050 40F20000 		movw	r0, #:lower16:.LANCHOR1
 111 0054 40F20003 		movw	r3, #:lower16:_idle_thread
 112              		.loc 1 108 0
 113 0058 A261     		str	r2, [r4, #24]
 114              		.loc 1 114 0
ARM GAS  /tmp/ccwLy8iU.s 			page 3


 115 005a C0F20003 		movt	r3, #:upper16:_idle_thread
 116 005e 0091     		str	r1, [sp]
 117 0060 0122     		movs	r2, #1
 118 0062 C021     		movs	r1, #192
 119 0064 C0F20000 		movt	r0, #:upper16:.LANCHOR1
 120 0068 FFF7FEFF 		bl	chThdCreateStatic
 121              	.LVL7:
 122              		.loc 1 117 0
 123 006c 02B0     		add	sp, sp, #8
 124              		@ sp needed
 125 006e 10BD     		pop	{r4, pc}
 126              		.cfi_endproc
 127              	.LFE8:
 128              		.size	chSysInit, .-chSysInit
 129              		.section	.text.chSysTimerHandlerI,"ax",%progbits
 130              		.align	2
 131              		.global	chSysTimerHandlerI
 132              		.thumb
 133              		.thumb_func
 134              		.type	chSysTimerHandlerI, %function
 135              	chSysTimerHandlerI:
 136              	.LFB9:
 137              		.loc 1 130 0
 138              		.cfi_startproc
 139              		@ args = 0, pretend = 0, frame = 0
 140              		@ frame_needed = 0, uses_anonymous_args = 0
 141              		.loc 1 141 0
 142 0000 40F20003 		movw	r3, #:lower16:rlist
 143 0004 C0F20003 		movt	r3, #:upper16:rlist
 144 0008 9B69     		ldr	r3, [r3, #24]
 145              		.loc 1 143 0
 146 000a 40F20001 		movw	r1, #:lower16:vtlist
 147              		.loc 1 141 0
 148 000e 1A6A     		ldr	r2, [r3, #32]
 149              		.loc 1 143 0
 150 0010 C0F20001 		movt	r1, #:upper16:vtlist
 151              		.loc 1 141 0
 152 0014 0132     		adds	r2, r2, #1
 153              		.loc 1 130 0
 154 0016 70B5     		push	{r4, r5, r6, lr}
 155              		.cfi_def_cfa_offset 16
 156              		.cfi_offset 4, -16
 157              		.cfi_offset 5, -12
 158              		.cfi_offset 6, -8
 159              		.cfi_offset 14, -4
 160              		.loc 1 141 0
 161 0018 1A62     		str	r2, [r3, #32]
 162              		.loc 1 143 0
 163 001a CB68     		ldr	r3, [r1, #12]
 164 001c 0A68     		ldr	r2, [r1]
 165 001e 0133     		adds	r3, r3, #1
 166 0020 8A42     		cmp	r2, r1
 167 0022 CB60     		str	r3, [r1, #12]
 168 0024 19D0     		beq	.L5
 169              	.LBB3:
 170              		.loc 1 143 0 is_stmt 0 discriminator 1
 171 0026 9668     		ldr	r6, [r2, #8]
ARM GAS  /tmp/ccwLy8iU.s 			page 4


 172 0028 013E     		subs	r6, r6, #1
 173 002a 9660     		str	r6, [r2, #8]
 174              	.LVL8:
 175 002c AEB9     		cbnz	r6, .L5
 176              		.loc 1 143 0
 177 002e 0D46     		mov	r5, r1
 178              	.L8:
 179              	.LBB4:
 180              		.loc 1 143 0 discriminator 2
 181 0030 1068     		ldr	r0, [r2]
 182 0032 D468     		ldr	r4, [r2, #12]
 183              	.LVL9:
 184 0034 0860     		str	r0, [r1]
 185 0036 D660     		str	r6, [r2, #12]
 186              	.LBB5:
 187 0038 0023     		movs	r3, #0
 188              	.LBE5:
 189 003a 4160     		str	r1, [r0, #4]
 190              	.LBB6:
 191              	@ 143 "../../os/kernel/src/chsys.c" 1
 192 003c 83F31188 		msr     BASEPRI, r3
 193              	@ 0 "" 2
 194              		.thumb
 195              	.LBE6:
 196 0040 1069     		ldr	r0, [r2, #16]
 197 0042 A047     		blx	r4
 198              	.LVL10:
 199              	.LBB7:
 200 0044 4023     		movs	r3, #64
 201              	@ 143 "../../os/kernel/src/chsys.c" 1
 202 0046 83F31188 		msr     BASEPRI, r3
 203              	@ 0 "" 2
 204              		.thumb
 205              	.LBE7:
 206              	.LBE4:
 207 004a 2A68     		ldr	r2, [r5]
 208              	.LVL11:
 209 004c 40F20001 		movw	r1, #:lower16:vtlist
 210 0050 9368     		ldr	r3, [r2, #8]
 211 0052 C0F20001 		movt	r1, #:upper16:vtlist
 212 0056 002B     		cmp	r3, #0
 213 0058 EAD0     		beq	.L8
 214              	.LVL12:
 215              	.L5:
 216 005a 70BD     		pop	{r4, r5, r6, pc}
 217              	.LBE3:
 218              		.cfi_endproc
 219              	.LFE9:
 220              		.size	chSysTimerHandlerI, .-chSysTimerHandlerI
 221              		.global	_idle_thread_wa
 222              		.section	.bss.mainthread.4776,"aw",%nobits
 223              		.align	2
 224              		.set	.LANCHOR0,. + 0
 225              		.type	mainthread.4776, %object
 226              		.size	mainthread.4776, 72
 227              	mainthread.4776:
 228 0000 00000000 		.space	72
ARM GAS  /tmp/ccwLy8iU.s 			page 5


 228      00000000 
 228      00000000 
 228      00000000 
 228      00000000 
 229              		.section	.rodata.str1.4,"aMS",%progbits,1
 230              		.align	2
 231              	.LC0:
 232 0000 69646C65 		.ascii	"idle\000"
 232      00
 233 0005 000000   		.section	.bss._idle_thread_wa,"aw",%nobits
 234              		.align	3
 235              		.set	.LANCHOR1,. + 0
 236              		.type	_idle_thread_wa, %object
 237              		.size	_idle_thread_wa, 192
 238              	_idle_thread_wa:
 239 0000 00000000 		.space	192
 239      00000000 
 239      00000000 
 239      00000000 
 239      00000000 
 240              		.text
 241              	.Letext0:
 242              		.file 2 "/home/daniofb/arm-cm3-eabi/lib/gcc/arm-cm3-eabi/4.8.1/include/stddef.h"
 243              		.file 3 "/home/daniofb/arm-cm3-eabi/arm-cm3-eabi/sys-include/stdint.h"
 244              		.file 4 "../../os/ports/GCC/ARMCMx/chtypes.h"
 245              		.file 5 "../../os/kernel/include/chlists.h"
 246              		.file 6 "../../os/kernel/include/chthreads.h"
 247              		.file 7 "../../os/ports/GCC/ARMCMx/chcore_v7m.h"
 248              		.file 8 "../../os/kernel/include/chvt.h"
 249              		.file 9 "../../os/kernel/include/chschd.h"
 250              		.file 10 "../../os/kernel/include/chmtx.h"
 251              		.file 11 "../../os/kernel/include/chregistry.h"
 252              		.file 12 "../../os/kernel/include/chmemcore.h"
 253              		.file 13 "../../os/kernel/include/chheap.h"
 254              		.section	.debug_info,"",%progbits
 255              	.Ldebug_info0:
 256 0000 D5070000 		.4byte	0x7d5
 257 0004 0400     		.2byte	0x4
 258 0006 00000000 		.4byte	.Ldebug_abbrev0
 259 000a 04       		.byte	0x4
 260 000b 01       		.uleb128 0x1
 261 000c 5E010000 		.4byte	.LASF107
 262 0010 01       		.byte	0x1
 263 0011 C8040000 		.4byte	.LASF108
 264 0015 02020000 		.4byte	.LASF109
 265 0019 18000000 		.4byte	.Ldebug_ranges0+0x18
 266 001d 00000000 		.4byte	0
 267 0021 00000000 		.4byte	.Ldebug_line0
 268 0025 02       		.uleb128 0x2
 269 0026 04       		.byte	0x4
 270 0027 05       		.byte	0x5
 271 0028 696E7400 		.ascii	"int\000"
 272 002c 03       		.uleb128 0x3
 273 002d 1B000000 		.4byte	.LASF2
 274 0031 02       		.byte	0x2
 275 0032 D4       		.byte	0xd4
 276 0033 37000000 		.4byte	0x37
ARM GAS  /tmp/ccwLy8iU.s 			page 6


 277 0037 04       		.uleb128 0x4
 278 0038 04       		.byte	0x4
 279 0039 07       		.byte	0x7
 280 003a 45020000 		.4byte	.LASF0
 281 003e 04       		.uleb128 0x4
 282 003f 01       		.byte	0x1
 283 0040 06       		.byte	0x6
 284 0041 B7000000 		.4byte	.LASF1
 285 0045 03       		.uleb128 0x3
 286 0046 E4040000 		.4byte	.LASF3
 287 004a 03       		.byte	0x3
 288 004b 2A       		.byte	0x2a
 289 004c 50000000 		.4byte	0x50
 290 0050 04       		.uleb128 0x4
 291 0051 01       		.byte	0x1
 292 0052 08       		.byte	0x8
 293 0053 9D030000 		.4byte	.LASF4
 294 0057 04       		.uleb128 0x4
 295 0058 02       		.byte	0x2
 296 0059 05       		.byte	0x5
 297 005a C0030000 		.4byte	.LASF5
 298 005e 03       		.uleb128 0x3
 299 005f 10010000 		.4byte	.LASF6
 300 0063 03       		.byte	0x3
 301 0064 36       		.byte	0x36
 302 0065 69000000 		.4byte	0x69
 303 0069 04       		.uleb128 0x4
 304 006a 02       		.byte	0x2
 305 006b 07       		.byte	0x7
 306 006c 8A020000 		.4byte	.LASF7
 307 0070 03       		.uleb128 0x3
 308 0071 95030000 		.4byte	.LASF8
 309 0075 03       		.byte	0x3
 310 0076 4F       		.byte	0x4f
 311 0077 7B000000 		.4byte	0x7b
 312 007b 04       		.uleb128 0x4
 313 007c 04       		.byte	0x4
 314 007d 05       		.byte	0x5
 315 007e FE000000 		.4byte	.LASF9
 316 0082 03       		.uleb128 0x3
 317 0083 29040000 		.4byte	.LASF10
 318 0087 03       		.byte	0x3
 319 0088 50       		.byte	0x50
 320 0089 8D000000 		.4byte	0x8d
 321 008d 04       		.uleb128 0x4
 322 008e 04       		.byte	0x4
 323 008f 07       		.byte	0x7
 324 0090 67020000 		.4byte	.LASF11
 325 0094 04       		.uleb128 0x4
 326 0095 08       		.byte	0x8
 327 0096 05       		.byte	0x5
 328 0097 A9000000 		.4byte	.LASF12
 329 009b 03       		.uleb128 0x3
 330 009c 29000000 		.4byte	.LASF13
 331 00a0 03       		.byte	0x3
 332 00a1 78       		.byte	0x78
 333 00a2 A6000000 		.4byte	0xa6
ARM GAS  /tmp/ccwLy8iU.s 			page 7


 334 00a6 04       		.uleb128 0x4
 335 00a7 08       		.byte	0x8
 336 00a8 07       		.byte	0x7
 337 00a9 4C000000 		.4byte	.LASF14
 338 00ad 04       		.uleb128 0x4
 339 00ae 01       		.byte	0x1
 340 00af 02       		.byte	0x2
 341 00b0 8F030000 		.4byte	.LASF15
 342 00b4 03       		.uleb128 0x3
 343 00b5 A3020000 		.4byte	.LASF16
 344 00b9 04       		.byte	0x4
 345 00ba 25       		.byte	0x25
 346 00bb 45000000 		.4byte	0x45
 347 00bf 03       		.uleb128 0x3
 348 00c0 07010000 		.4byte	.LASF17
 349 00c4 04       		.byte	0x4
 350 00c5 26       		.byte	0x26
 351 00c6 45000000 		.4byte	0x45
 352 00ca 03       		.uleb128 0x3
 353 00cb 6D030000 		.4byte	.LASF18
 354 00cf 04       		.byte	0x4
 355 00d0 27       		.byte	0x27
 356 00d1 45000000 		.4byte	0x45
 357 00d5 03       		.uleb128 0x3
 358 00d6 87030000 		.4byte	.LASF19
 359 00da 04       		.byte	0x4
 360 00db 29       		.byte	0x29
 361 00dc 82000000 		.4byte	0x82
 362 00e0 03       		.uleb128 0x3
 363 00e1 9D020000 		.4byte	.LASF20
 364 00e5 04       		.byte	0x4
 365 00e6 2A       		.byte	0x2a
 366 00e7 70000000 		.4byte	0x70
 367 00eb 03       		.uleb128 0x3
 368 00ec B7020000 		.4byte	.LASF21
 369 00f0 04       		.byte	0x4
 370 00f1 2C       		.byte	0x2c
 371 00f2 82000000 		.4byte	0x82
 372 00f6 03       		.uleb128 0x3
 373 00f7 5F040000 		.4byte	.LASF22
 374 00fb 04       		.byte	0x4
 375 00fc 2E       		.byte	0x2e
 376 00fd 82000000 		.4byte	0x82
 377 0101 03       		.uleb128 0x3
 378 0102 0A040000 		.4byte	.LASF23
 379 0106 05       		.byte	0x5
 380 0107 23       		.byte	0x23
 381 0108 0C010000 		.4byte	0x10c
 382 010c 05       		.uleb128 0x5
 383 010d 0A040000 		.4byte	.LASF23
 384 0111 48       		.byte	0x48
 385 0112 06       		.byte	0x6
 386 0113 57       		.byte	0x57
 387 0114 FD010000 		.4byte	0x1fd
 388 0118 06       		.uleb128 0x6
 389 0119 EC030000 		.4byte	.LASF24
 390 011d 06       		.byte	0x6
ARM GAS  /tmp/ccwLy8iU.s 			page 8


 391 011e 58       		.byte	0x58
 392 011f 1E020000 		.4byte	0x21e
 393 0123 00       		.byte	0
 394 0124 06       		.uleb128 0x6
 395 0125 80030000 		.4byte	.LASF25
 396 0129 06       		.byte	0x6
 397 012a 5A       		.byte	0x5a
 398 012b 1E020000 		.4byte	0x21e
 399 012f 04       		.byte	0x4
 400 0130 06       		.uleb128 0x6
 401 0131 85000000 		.4byte	.LASF26
 402 0135 06       		.byte	0x6
 403 0136 5C       		.byte	0x5c
 404 0137 D5000000 		.4byte	0xd5
 405 013b 08       		.byte	0x8
 406 013c 06       		.uleb128 0x6
 407 013d 2A050000 		.4byte	.LASF27
 408 0141 06       		.byte	0x6
 409 0142 5D       		.byte	0x5d
 410 0143 E3020000 		.4byte	0x2e3
 411 0147 0C       		.byte	0xc
 412 0148 06       		.uleb128 0x6
 413 0149 23010000 		.4byte	.LASF28
 414 014d 06       		.byte	0x6
 415 014e 5F       		.byte	0x5f
 416 014f 1E020000 		.4byte	0x21e
 417 0153 10       		.byte	0x10
 418 0154 06       		.uleb128 0x6
 419 0155 2B030000 		.4byte	.LASF29
 420 0159 06       		.byte	0x6
 421 015a 60       		.byte	0x60
 422 015b 1E020000 		.4byte	0x21e
 423 015f 14       		.byte	0x14
 424 0160 06       		.uleb128 0x6
 425 0161 FE040000 		.4byte	.LASF30
 426 0165 06       		.byte	0x6
 427 0166 67       		.byte	0x67
 428 0167 9D040000 		.4byte	0x49d
 429 016b 18       		.byte	0x18
 430 016c 06       		.uleb128 0x6
 431 016d CA030000 		.4byte	.LASF31
 432 0171 06       		.byte	0x6
 433 0172 72       		.byte	0x72
 434 0173 BF000000 		.4byte	0xbf
 435 0177 1C       		.byte	0x1c
 436 0178 06       		.uleb128 0x6
 437 0179 02040000 		.4byte	.LASF32
 438 017d 06       		.byte	0x6
 439 017e 76       		.byte	0x76
 440 017f B4000000 		.4byte	0xb4
 441 0183 1D       		.byte	0x1d
 442 0184 06       		.uleb128 0x6
 443 0185 B1040000 		.4byte	.LASF33
 444 0189 06       		.byte	0x6
 445 018a 7B       		.byte	0x7b
 446 018b CA000000 		.4byte	0xca
 447 018f 1E       		.byte	0x1e
ARM GAS  /tmp/ccwLy8iU.s 			page 9


 448 0190 06       		.uleb128 0x6
 449 0191 86040000 		.4byte	.LASF34
 450 0195 06       		.byte	0x6
 451 0196 88       		.byte	0x88
 452 0197 BA030000 		.4byte	0x3ba
 453 019b 20       		.byte	0x20
 454 019c 07       		.uleb128 0x7
 455 019d 705F7500 		.ascii	"p_u\000"
 456 01a1 06       		.byte	0x6
 457 01a2 AD       		.byte	0xad
 458 01a3 68040000 		.4byte	0x468
 459 01a7 24       		.byte	0x24
 460 01a8 06       		.uleb128 0x6
 461 01a9 30050000 		.4byte	.LASF35
 462 01ad 06       		.byte	0x6
 463 01ae B2       		.byte	0xb2
 464 01af 44020000 		.4byte	0x244
 465 01b3 28       		.byte	0x28
 466 01b4 06       		.uleb128 0x6
 467 01b5 94040000 		.4byte	.LASF36
 468 01b9 06       		.byte	0x6
 469 01ba B8       		.byte	0xb8
 470 01bb 24020000 		.4byte	0x224
 471 01bf 2C       		.byte	0x2c
 472 01c0 06       		.uleb128 0x6
 473 01c1 15000000 		.4byte	.LASF37
 474 01c5 06       		.byte	0x6
 475 01c6 BC       		.byte	0xbc
 476 01c7 E0000000 		.4byte	0xe0
 477 01cb 34       		.byte	0x34
 478 01cc 06       		.uleb128 0x6
 479 01cd 1E040000 		.4byte	.LASF38
 480 01d1 06       		.byte	0x6
 481 01d2 C2       		.byte	0xc2
 482 01d3 EB000000 		.4byte	0xeb
 483 01d7 38       		.byte	0x38
 484 01d8 06       		.uleb128 0x6
 485 01d9 B6030000 		.4byte	.LASF39
 486 01dd 06       		.byte	0x6
 487 01de C9       		.byte	0xc9
 488 01df AF040000 		.4byte	0x4af
 489 01e3 3C       		.byte	0x3c
 490 01e4 06       		.uleb128 0x6
 491 01e5 69040000 		.4byte	.LASF40
 492 01e9 06       		.byte	0x6
 493 01ea CD       		.byte	0xcd
 494 01eb D5000000 		.4byte	0xd5
 495 01ef 40       		.byte	0x40
 496 01f0 06       		.uleb128 0x6
 497 01f1 E0000000 		.4byte	.LASF41
 498 01f5 06       		.byte	0x6
 499 01f6 D3       		.byte	0xd3
 500 01f7 5A020000 		.4byte	0x25a
 501 01fb 44       		.byte	0x44
 502 01fc 00       		.byte	0
 503 01fd 08       		.uleb128 0x8
 504 01fe 08       		.byte	0x8
ARM GAS  /tmp/ccwLy8iU.s 			page 10


 505 01ff 05       		.byte	0x5
 506 0200 5A       		.byte	0x5a
 507 0201 1E020000 		.4byte	0x21e
 508 0205 06       		.uleb128 0x6
 509 0206 EC030000 		.4byte	.LASF24
 510 020a 05       		.byte	0x5
 511 020b 5B       		.byte	0x5b
 512 020c 1E020000 		.4byte	0x21e
 513 0210 00       		.byte	0
 514 0211 06       		.uleb128 0x6
 515 0212 80030000 		.4byte	.LASF25
 516 0216 05       		.byte	0x5
 517 0217 5D       		.byte	0x5d
 518 0218 1E020000 		.4byte	0x21e
 519 021c 04       		.byte	0x4
 520 021d 00       		.byte	0
 521 021e 09       		.uleb128 0x9
 522 021f 04       		.byte	0x4
 523 0220 01010000 		.4byte	0x101
 524 0224 03       		.uleb128 0x3
 525 0225 39030000 		.4byte	.LASF42
 526 0229 05       		.byte	0x5
 527 022a 5F       		.byte	0x5f
 528 022b FD010000 		.4byte	0x1fd
 529 022f 08       		.uleb128 0x8
 530 0230 04       		.byte	0x4
 531 0231 05       		.byte	0x5
 532 0232 64       		.byte	0x64
 533 0233 44020000 		.4byte	0x244
 534 0237 06       		.uleb128 0x6
 535 0238 EC030000 		.4byte	.LASF24
 536 023c 05       		.byte	0x5
 537 023d 66       		.byte	0x66
 538 023e 1E020000 		.4byte	0x21e
 539 0242 00       		.byte	0
 540 0243 00       		.byte	0
 541 0244 03       		.uleb128 0x3
 542 0245 AB020000 		.4byte	.LASF43
 543 0249 05       		.byte	0x5
 544 024a 69       		.byte	0x69
 545 024b 2F020000 		.4byte	0x22f
 546 024f 03       		.uleb128 0x3
 547 0250 43010000 		.4byte	.LASF44
 548 0254 07       		.byte	0x7
 549 0255 DE       		.byte	0xde
 550 0256 5A020000 		.4byte	0x25a
 551 025a 0A       		.uleb128 0xa
 552 025b 04       		.byte	0x4
 553 025c 03       		.uleb128 0x3
 554 025d C9020000 		.4byte	.LASF45
 555 0261 07       		.byte	0x7
 556 0262 E4       		.byte	0xe4
 557 0263 9B000000 		.4byte	0x9b
 558 0267 0B       		.uleb128 0xb
 559 0268 8D040000 		.4byte	.LASF46
 560 026c 24       		.byte	0x24
 561 026d 07       		.byte	0x7
ARM GAS  /tmp/ccwLy8iU.s 			page 11


 562 026e 0501     		.2byte	0x105
 563 0270 E3020000 		.4byte	0x2e3
 564 0274 0C       		.uleb128 0xc
 565 0275 723400   		.ascii	"r4\000"
 566 0278 07       		.byte	0x7
 567 0279 1801     		.2byte	0x118
 568 027b 4F020000 		.4byte	0x24f
 569 027f 00       		.byte	0
 570 0280 0C       		.uleb128 0xc
 571 0281 723500   		.ascii	"r5\000"
 572 0284 07       		.byte	0x7
 573 0285 1901     		.2byte	0x119
 574 0287 4F020000 		.4byte	0x24f
 575 028b 04       		.byte	0x4
 576 028c 0C       		.uleb128 0xc
 577 028d 723600   		.ascii	"r6\000"
 578 0290 07       		.byte	0x7
 579 0291 1A01     		.2byte	0x11a
 580 0293 4F020000 		.4byte	0x24f
 581 0297 08       		.byte	0x8
 582 0298 0C       		.uleb128 0xc
 583 0299 723700   		.ascii	"r7\000"
 584 029c 07       		.byte	0x7
 585 029d 1B01     		.2byte	0x11b
 586 029f 4F020000 		.4byte	0x24f
 587 02a3 0C       		.byte	0xc
 588 02a4 0C       		.uleb128 0xc
 589 02a5 723800   		.ascii	"r8\000"
 590 02a8 07       		.byte	0x7
 591 02a9 1C01     		.2byte	0x11c
 592 02ab 4F020000 		.4byte	0x24f
 593 02af 10       		.byte	0x10
 594 02b0 0C       		.uleb128 0xc
 595 02b1 723900   		.ascii	"r9\000"
 596 02b4 07       		.byte	0x7
 597 02b5 1D01     		.2byte	0x11d
 598 02b7 4F020000 		.4byte	0x24f
 599 02bb 14       		.byte	0x14
 600 02bc 0C       		.uleb128 0xc
 601 02bd 72313000 		.ascii	"r10\000"
 602 02c1 07       		.byte	0x7
 603 02c2 1E01     		.2byte	0x11e
 604 02c4 4F020000 		.4byte	0x24f
 605 02c8 18       		.byte	0x18
 606 02c9 0C       		.uleb128 0xc
 607 02ca 72313100 		.ascii	"r11\000"
 608 02ce 07       		.byte	0x7
 609 02cf 1F01     		.2byte	0x11f
 610 02d1 4F020000 		.4byte	0x24f
 611 02d5 1C       		.byte	0x1c
 612 02d6 0C       		.uleb128 0xc
 613 02d7 6C7200   		.ascii	"lr\000"
 614 02da 07       		.byte	0x7
 615 02db 2001     		.2byte	0x120
 616 02dd 4F020000 		.4byte	0x24f
 617 02e1 20       		.byte	0x20
 618 02e2 00       		.byte	0
ARM GAS  /tmp/ccwLy8iU.s 			page 12


 619 02e3 0B       		.uleb128 0xb
 620 02e4 82020000 		.4byte	.LASF47
 621 02e8 04       		.byte	0x4
 622 02e9 07       		.byte	0x7
 623 02ea 2A01     		.2byte	0x12a
 624 02ec FE020000 		.4byte	0x2fe
 625 02f0 0C       		.uleb128 0xc
 626 02f1 72313300 		.ascii	"r13\000"
 627 02f5 07       		.byte	0x7
 628 02f6 2B01     		.2byte	0x12b
 629 02f8 FE020000 		.4byte	0x2fe
 630 02fc 00       		.byte	0
 631 02fd 00       		.byte	0
 632 02fe 09       		.uleb128 0x9
 633 02ff 04       		.byte	0x4
 634 0300 67020000 		.4byte	0x267
 635 0304 04       		.uleb128 0x4
 636 0305 04       		.byte	0x4
 637 0306 07       		.byte	0x7
 638 0307 02030000 		.4byte	.LASF48
 639 030b 03       		.uleb128 0x3
 640 030c 74040000 		.4byte	.LASF49
 641 0310 08       		.byte	0x8
 642 0311 51       		.byte	0x51
 643 0312 16030000 		.4byte	0x316
 644 0316 09       		.uleb128 0x9
 645 0317 04       		.byte	0x4
 646 0318 1C030000 		.4byte	0x31c
 647 031c 0D       		.uleb128 0xd
 648 031d 27030000 		.4byte	0x327
 649 0321 0E       		.uleb128 0xe
 650 0322 5A020000 		.4byte	0x25a
 651 0326 00       		.byte	0
 652 0327 03       		.uleb128 0x3
 653 0328 46040000 		.4byte	.LASF50
 654 032c 08       		.byte	0x8
 655 032d 56       		.byte	0x56
 656 032e 32030000 		.4byte	0x332
 657 0332 05       		.uleb128 0x5
 658 0333 46040000 		.4byte	.LASF50
 659 0337 14       		.byte	0x14
 660 0338 08       		.byte	0x8
 661 0339 5D       		.byte	0x5d
 662 033a 7B030000 		.4byte	0x37b
 663 033e 06       		.uleb128 0x6
 664 033f 5F020000 		.4byte	.LASF51
 665 0343 08       		.byte	0x8
 666 0344 5E       		.byte	0x5e
 667 0345 7B030000 		.4byte	0x37b
 668 0349 00       		.byte	0
 669 034a 06       		.uleb128 0x6
 670 034b 4C010000 		.4byte	.LASF52
 671 034f 08       		.byte	0x8
 672 0350 60       		.byte	0x60
 673 0351 7B030000 		.4byte	0x37b
 674 0355 04       		.byte	0x4
 675 0356 06       		.uleb128 0x6
ARM GAS  /tmp/ccwLy8iU.s 			page 13


 676 0357 FA020000 		.4byte	.LASF53
 677 035b 08       		.byte	0x8
 678 035c 62       		.byte	0x62
 679 035d F6000000 		.4byte	0xf6
 680 0361 08       		.byte	0x8
 681 0362 06       		.uleb128 0x6
 682 0363 0B030000 		.4byte	.LASF54
 683 0367 08       		.byte	0x8
 684 0368 63       		.byte	0x63
 685 0369 0B030000 		.4byte	0x30b
 686 036d 0C       		.byte	0xc
 687 036e 06       		.uleb128 0x6
 688 036f 9F040000 		.4byte	.LASF55
 689 0373 08       		.byte	0x8
 690 0374 65       		.byte	0x65
 691 0375 5A020000 		.4byte	0x25a
 692 0379 10       		.byte	0x10
 693 037a 00       		.byte	0
 694 037b 09       		.uleb128 0x9
 695 037c 04       		.byte	0x4
 696 037d 27030000 		.4byte	0x327
 697 0381 08       		.uleb128 0x8
 698 0382 10       		.byte	0x10
 699 0383 08       		.byte	0x8
 700 0384 6F       		.byte	0x6f
 701 0385 BA030000 		.4byte	0x3ba
 702 0389 06       		.uleb128 0x6
 703 038a 5F020000 		.4byte	.LASF51
 704 038e 08       		.byte	0x8
 705 038f 70       		.byte	0x70
 706 0390 7B030000 		.4byte	0x37b
 707 0394 00       		.byte	0
 708 0395 06       		.uleb128 0x6
 709 0396 4C010000 		.4byte	.LASF52
 710 039a 08       		.byte	0x8
 711 039b 72       		.byte	0x72
 712 039c 7B030000 		.4byte	0x37b
 713 03a0 04       		.byte	0x4
 714 03a1 06       		.uleb128 0x6
 715 03a2 FA020000 		.4byte	.LASF53
 716 03a6 08       		.byte	0x8
 717 03a7 74       		.byte	0x74
 718 03a8 F6000000 		.4byte	0xf6
 719 03ac 08       		.byte	0x8
 720 03ad 06       		.uleb128 0x6
 721 03ae 05050000 		.4byte	.LASF56
 722 03b2 08       		.byte	0x8
 723 03b3 75       		.byte	0x75
 724 03b4 BA030000 		.4byte	0x3ba
 725 03b8 0C       		.byte	0xc
 726 03b9 00       		.byte	0
 727 03ba 0F       		.uleb128 0xf
 728 03bb F6000000 		.4byte	0xf6
 729 03bf 03       		.uleb128 0x3
 730 03c0 1B050000 		.4byte	.LASF57
 731 03c4 08       		.byte	0x8
 732 03c5 76       		.byte	0x76
ARM GAS  /tmp/ccwLy8iU.s 			page 14


 733 03c6 81030000 		.4byte	0x381
 734 03ca 08       		.uleb128 0x8
 735 03cb 1C       		.byte	0x1c
 736 03cc 09       		.byte	0x9
 737 03cd 57       		.byte	0x57
 738 03ce 1B040000 		.4byte	0x41b
 739 03d2 06       		.uleb128 0x6
 740 03d3 3E040000 		.4byte	.LASF58
 741 03d7 09       		.byte	0x9
 742 03d8 58       		.byte	0x58
 743 03d9 24020000 		.4byte	0x224
 744 03dd 00       		.byte	0
 745 03de 06       		.uleb128 0x6
 746 03df DE030000 		.4byte	.LASF59
 747 03e3 09       		.byte	0x9
 748 03e4 59       		.byte	0x59
 749 03e5 D5000000 		.4byte	0xd5
 750 03e9 08       		.byte	0x8
 751 03ea 06       		.uleb128 0x6
 752 03eb 33030000 		.4byte	.LASF60
 753 03ef 09       		.byte	0x9
 754 03f0 5B       		.byte	0x5b
 755 03f1 E3020000 		.4byte	0x2e3
 756 03f5 0C       		.byte	0xc
 757 03f6 06       		.uleb128 0x6
 758 03f7 3B010000 		.4byte	.LASF61
 759 03fb 09       		.byte	0x9
 760 03fc 5E       		.byte	0x5e
 761 03fd 1E020000 		.4byte	0x21e
 762 0401 10       		.byte	0x10
 763 0402 06       		.uleb128 0x6
 764 0403 58030000 		.4byte	.LASF62
 765 0407 09       		.byte	0x9
 766 0408 5F       		.byte	0x5f
 767 0409 1E020000 		.4byte	0x21e
 768 040d 14       		.byte	0x14
 769 040e 06       		.uleb128 0x6
 770 040f 4E030000 		.4byte	.LASF63
 771 0413 09       		.byte	0x9
 772 0414 62       		.byte	0x62
 773 0415 1E020000 		.4byte	0x21e
 774 0419 18       		.byte	0x18
 775 041a 00       		.byte	0
 776 041b 03       		.uleb128 0x3
 777 041c B8040000 		.4byte	.LASF64
 778 0420 09       		.byte	0x9
 779 0421 64       		.byte	0x64
 780 0422 CA030000 		.4byte	0x3ca
 781 0426 05       		.uleb128 0x5
 782 0427 C3020000 		.4byte	.LASF65
 783 042b 10       		.byte	0x10
 784 042c 0A       		.byte	0xa
 785 042d 25       		.byte	0x25
 786 042e 57040000 		.4byte	0x457
 787 0432 06       		.uleb128 0x6
 788 0433 E8000000 		.4byte	.LASF66
 789 0437 0A       		.byte	0xa
ARM GAS  /tmp/ccwLy8iU.s 			page 15


 790 0438 26       		.byte	0x26
 791 0439 24020000 		.4byte	0x224
 792 043d 00       		.byte	0
 793 043e 06       		.uleb128 0x6
 794 043f 22050000 		.4byte	.LASF67
 795 0443 0A       		.byte	0xa
 796 0444 28       		.byte	0x28
 797 0445 1E020000 		.4byte	0x21e
 798 0449 08       		.byte	0x8
 799 044a 06       		.uleb128 0x6
 800 044b 58040000 		.4byte	.LASF68
 801 044f 0A       		.byte	0xa
 802 0450 2A       		.byte	0x2a
 803 0451 57040000 		.4byte	0x457
 804 0455 0C       		.byte	0xc
 805 0456 00       		.byte	0
 806 0457 09       		.uleb128 0x9
 807 0458 04       		.byte	0x4
 808 0459 26040000 		.4byte	0x426
 809 045d 03       		.uleb128 0x3
 810 045e C3020000 		.4byte	.LASF65
 811 0462 0A       		.byte	0xa
 812 0463 2C       		.byte	0x2c
 813 0464 26040000 		.4byte	0x426
 814 0468 10       		.uleb128 0x10
 815 0469 04       		.byte	0x4
 816 046a 06       		.byte	0x6
 817 046b 8F       		.byte	0x8f
 818 046c 9D040000 		.4byte	0x49d
 819 0470 11       		.uleb128 0x11
 820 0471 22000000 		.4byte	.LASF69
 821 0475 06       		.byte	0x6
 822 0476 96       		.byte	0x96
 823 0477 E0000000 		.4byte	0xe0
 824 047b 11       		.uleb128 0x11
 825 047c 71000000 		.4byte	.LASF70
 826 0480 06       		.byte	0x6
 827 0481 9D       		.byte	0x9d
 828 0482 E0000000 		.4byte	0xe0
 829 0486 11       		.uleb128 0x11
 830 0487 F7040000 		.4byte	.LASF71
 831 048b 06       		.byte	0x6
 832 048c A4       		.byte	0xa4
 833 048d 5A020000 		.4byte	0x25a
 834 0491 11       		.uleb128 0x11
 835 0492 E5030000 		.4byte	.LASF72
 836 0496 06       		.byte	0x6
 837 0497 AB       		.byte	0xab
 838 0498 EB000000 		.4byte	0xeb
 839 049c 00       		.byte	0
 840 049d 09       		.uleb128 0x9
 841 049e 04       		.byte	0x4
 842 049f A3040000 		.4byte	0x4a3
 843 04a3 12       		.uleb128 0x12
 844 04a4 A8040000 		.4byte	0x4a8
 845 04a8 04       		.uleb128 0x4
 846 04a9 01       		.byte	0x1
ARM GAS  /tmp/ccwLy8iU.s 			page 16


 847 04aa 08       		.byte	0x8
 848 04ab 53040000 		.4byte	.LASF73
 849 04af 09       		.uleb128 0x9
 850 04b0 04       		.byte	0x4
 851 04b1 5D040000 		.4byte	0x45d
 852 04b5 03       		.uleb128 0x3
 853 04b6 00000000 		.4byte	.LASF74
 854 04ba 06       		.byte	0x6
 855 04bb DE       		.byte	0xde
 856 04bc C0040000 		.4byte	0x4c0
 857 04c0 09       		.uleb128 0x9
 858 04c1 04       		.byte	0x4
 859 04c2 C6040000 		.4byte	0x4c6
 860 04c6 13       		.uleb128 0x13
 861 04c7 E0000000 		.4byte	0xe0
 862 04cb D5040000 		.4byte	0x4d5
 863 04cf 0E       		.uleb128 0xe
 864 04d0 5A020000 		.4byte	0x25a
 865 04d4 00       		.byte	0
 866 04d5 08       		.uleb128 0x8
 867 04d6 16       		.byte	0x16
 868 04d7 0B       		.byte	0xb
 869 04d8 25       		.byte	0x25
 870 04d9 B6050000 		.4byte	0x5b6
 871 04dd 06       		.uleb128 0x6
 872 04de F0000000 		.4byte	.LASF75
 873 04e2 0B       		.byte	0xb
 874 04e3 26       		.byte	0x26
 875 04e4 B6050000 		.4byte	0x5b6
 876 04e8 00       		.byte	0
 877 04e9 06       		.uleb128 0x6
 878 04ea E6020000 		.4byte	.LASF76
 879 04ee 0B       		.byte	0xb
 880 04ef 27       		.byte	0x27
 881 04f0 45000000 		.4byte	0x45
 882 04f4 04       		.byte	0x4
 883 04f5 06       		.uleb128 0x6
 884 04f6 46030000 		.4byte	.LASF77
 885 04fa 0B       		.byte	0xb
 886 04fb 28       		.byte	0x28
 887 04fc 45000000 		.4byte	0x45
 888 0500 05       		.byte	0x5
 889 0501 06       		.uleb128 0x6
 890 0502 10050000 		.4byte	.LASF78
 891 0506 0B       		.byte	0xb
 892 0507 29       		.byte	0x29
 893 0508 5E000000 		.4byte	0x5e
 894 050c 06       		.byte	0x6
 895 050d 06       		.uleb128 0x6
 896 050e 75030000 		.4byte	.LASF79
 897 0512 0B       		.byte	0xb
 898 0513 2A       		.byte	0x2a
 899 0514 45000000 		.4byte	0x45
 900 0518 08       		.byte	0x8
 901 0519 06       		.uleb128 0x6
 902 051a 13030000 		.4byte	.LASF80
 903 051e 0B       		.byte	0xb
ARM GAS  /tmp/ccwLy8iU.s 			page 17


 904 051f 2B       		.byte	0x2b
 905 0520 45000000 		.4byte	0x45
 906 0524 09       		.byte	0x9
 907 0525 06       		.uleb128 0x6
 908 0526 63000000 		.4byte	.LASF81
 909 052a 0B       		.byte	0xb
 910 052b 2C       		.byte	0x2c
 911 052c 45000000 		.4byte	0x45
 912 0530 0A       		.byte	0xa
 913 0531 06       		.uleb128 0x6
 914 0532 32040000 		.4byte	.LASF82
 915 0536 0B       		.byte	0xb
 916 0537 2D       		.byte	0x2d
 917 0538 45000000 		.4byte	0x45
 918 053c 0B       		.byte	0xb
 919 053d 06       		.uleb128 0x6
 920 053e A6040000 		.4byte	.LASF83
 921 0542 0B       		.byte	0xb
 922 0543 2E       		.byte	0x2e
 923 0544 45000000 		.4byte	0x45
 924 0548 0C       		.byte	0xc
 925 0549 06       		.uleb128 0x6
 926 054a 11040000 		.4byte	.LASF84
 927 054e 0B       		.byte	0xb
 928 054f 2F       		.byte	0x2f
 929 0550 45000000 		.4byte	0x45
 930 0554 0D       		.byte	0xd
 931 0555 06       		.uleb128 0x6
 932 0556 08000000 		.4byte	.LASF85
 933 055a 0B       		.byte	0xb
 934 055b 30       		.byte	0x30
 935 055c 45000000 		.4byte	0x45
 936 0560 0E       		.byte	0xe
 937 0561 06       		.uleb128 0x6
 938 0562 1F030000 		.4byte	.LASF86
 939 0566 0B       		.byte	0xb
 940 0567 31       		.byte	0x31
 941 0568 45000000 		.4byte	0x45
 942 056c 0F       		.byte	0xf
 943 056d 06       		.uleb128 0x6
 944 056e C3000000 		.4byte	.LASF87
 945 0572 0B       		.byte	0xb
 946 0573 32       		.byte	0x32
 947 0574 45000000 		.4byte	0x45
 948 0578 10       		.byte	0x10
 949 0579 06       		.uleb128 0x6
 950 057a 8C000000 		.4byte	.LASF88
 951 057e 0B       		.byte	0xb
 952 057f 34       		.byte	0x34
 953 0580 45000000 		.4byte	0x45
 954 0584 11       		.byte	0x11
 955 0585 06       		.uleb128 0x6
 956 0586 D3000000 		.4byte	.LASF89
 957 058a 0B       		.byte	0xb
 958 058b 35       		.byte	0x35
 959 058c 45000000 		.4byte	0x45
 960 0590 12       		.byte	0x12
ARM GAS  /tmp/ccwLy8iU.s 			page 18


 961 0591 06       		.uleb128 0x6
 962 0592 EE020000 		.4byte	.LASF90
 963 0596 0B       		.byte	0xb
 964 0597 36       		.byte	0x36
 965 0598 45000000 		.4byte	0x45
 966 059c 13       		.byte	0x13
 967 059d 06       		.uleb128 0x6
 968 059e F3030000 		.4byte	.LASF91
 969 05a2 0B       		.byte	0xb
 970 05a3 37       		.byte	0x37
 971 05a4 45000000 		.4byte	0x45
 972 05a8 14       		.byte	0x14
 973 05a9 06       		.uleb128 0x6
 974 05aa D2030000 		.4byte	.LASF92
 975 05ae 0B       		.byte	0xb
 976 05af 39       		.byte	0x39
 977 05b0 45000000 		.4byte	0x45
 978 05b4 15       		.byte	0x15
 979 05b5 00       		.byte	0
 980 05b6 14       		.uleb128 0x14
 981 05b7 A8040000 		.4byte	0x4a8
 982 05bb C6050000 		.4byte	0x5c6
 983 05bf 15       		.uleb128 0x15
 984 05c0 04030000 		.4byte	0x304
 985 05c4 03       		.byte	0x3
 986 05c5 00       		.byte	0
 987 05c6 03       		.uleb128 0x3
 988 05c7 19010000 		.4byte	.LASF93
 989 05cb 0B       		.byte	0xb
 990 05cc 3A       		.byte	0x3a
 991 05cd D5040000 		.4byte	0x4d5
 992 05d1 16       		.uleb128 0x16
 993 05d2 60030000 		.4byte	.LASF94
 994 05d6 01       		.byte	0x1
 995 05d7 36       		.byte	0x36
 996 05d8 00000000 		.4byte	.LFB7
 997 05dc 16000000 		.4byte	.LFE7-.LFB7
 998 05e0 01       		.uleb128 0x1
 999 05e1 9C       		.byte	0x9c
 1000 05e2 F2050000 		.4byte	0x5f2
 1001 05e6 17       		.uleb128 0x17
 1002 05e7 7000     		.ascii	"p\000"
 1003 05e9 01       		.byte	0x1
 1004 05ea 36       		.byte	0x36
 1005 05eb 5A020000 		.4byte	0x25a
 1006 05ef 01       		.uleb128 0x1
 1007 05f0 50       		.byte	0x50
 1008 05f1 00       		.byte	0
 1009 05f2 16       		.uleb128 0x16
 1010 05f3 54010000 		.4byte	.LASF95
 1011 05f7 01       		.byte	0x1
 1012 05f8 4D       		.byte	0x4d
 1013 05f9 00000000 		.4byte	.LFB8
 1014 05fd 70000000 		.4byte	.LFE8-.LFB8
 1015 0601 01       		.uleb128 0x1
 1016 0602 9C       		.byte	0x9c
 1017 0603 AB060000 		.4byte	0x6ab
ARM GAS  /tmp/ccwLy8iU.s 			page 19


 1018 0607 18       		.uleb128 0x18
 1019 0608 7A000000 		.4byte	.LASF96
 1020 060c 01       		.byte	0x1
 1021 060d 4E       		.byte	0x4e
 1022 060e 01010000 		.4byte	0x101
 1023 0612 05       		.uleb128 0x5
 1024 0613 03       		.byte	0x3
 1025 0614 00000000 		.4byte	mainthread.4776
 1026 0618 19       		.uleb128 0x19
 1027 0619 34000000 		.4byte	.LBB2
 1028 061d 08000000 		.4byte	.LBE2-.LBB2
 1029 0621 33060000 		.4byte	0x633
 1030 0625 1A       		.uleb128 0x1a
 1031 0626 746D7000 		.ascii	"tmp\000"
 1032 062a 01       		.byte	0x1
 1033 062b 68       		.byte	0x68
 1034 062c 82000000 		.4byte	0x82
 1035 0630 01       		.uleb128 0x1
 1036 0631 53       		.byte	0x53
 1037 0632 00       		.byte	0
 1038 0633 1B       		.uleb128 0x1b
 1039 0634 08000000 		.4byte	.LVL1
 1040 0638 73070000 		.4byte	0x773
 1041 063c 1B       		.uleb128 0x1b
 1042 063d 0C000000 		.4byte	.LVL2
 1043 0641 7B070000 		.4byte	0x77b
 1044 0645 1B       		.uleb128 0x1b
 1045 0646 10000000 		.4byte	.LVL3
 1046 064a 82070000 		.4byte	0x782
 1047 064e 1B       		.uleb128 0x1b
 1048 064f 14000000 		.4byte	.LVL4
 1049 0653 89070000 		.4byte	0x789
 1050 0657 1B       		.uleb128 0x1b
 1051 0658 18000000 		.4byte	.LVL5
 1052 065c 90070000 		.4byte	0x790
 1053 0660 1C       		.uleb128 0x1c
 1054 0661 26000000 		.4byte	.LVL6
 1055 0665 97070000 		.4byte	0x797
 1056 0669 7D060000 		.4byte	0x67d
 1057 066d 1D       		.uleb128 0x1d
 1058 066e 01       		.uleb128 0x1
 1059 066f 51       		.byte	0x51
 1060 0670 02       		.uleb128 0x2
 1061 0671 08       		.byte	0x8
 1062 0672 40       		.byte	0x40
 1063 0673 1D       		.uleb128 0x1d
 1064 0674 01       		.uleb128 0x1
 1065 0675 50       		.byte	0x50
 1066 0676 05       		.uleb128 0x5
 1067 0677 03       		.byte	0x3
 1068 0678 00000000 		.4byte	.LANCHOR0
 1069 067c 00       		.byte	0
 1070 067d 1E       		.uleb128 0x1e
 1071 067e 6C000000 		.4byte	.LVL7
 1072 0682 B2070000 		.4byte	0x7b2
 1073 0686 1D       		.uleb128 0x1d
 1074 0687 01       		.uleb128 0x1
ARM GAS  /tmp/ccwLy8iU.s 			page 20


 1075 0688 53       		.byte	0x53
 1076 0689 05       		.uleb128 0x5
 1077 068a 03       		.byte	0x3
 1078 068b 00000000 		.4byte	_idle_thread
 1079 068f 1D       		.uleb128 0x1d
 1080 0690 01       		.uleb128 0x1
 1081 0691 52       		.byte	0x52
 1082 0692 01       		.uleb128 0x1
 1083 0693 31       		.byte	0x31
 1084 0694 1D       		.uleb128 0x1d
 1085 0695 01       		.uleb128 0x1
 1086 0696 51       		.byte	0x51
 1087 0697 02       		.uleb128 0x2
 1088 0698 08       		.byte	0x8
 1089 0699 C0       		.byte	0xc0
 1090 069a 1D       		.uleb128 0x1d
 1091 069b 01       		.uleb128 0x1
 1092 069c 50       		.byte	0x50
 1093 069d 05       		.uleb128 0x5
 1094 069e 03       		.byte	0x3
 1095 069f 00000000 		.4byte	.LANCHOR1
 1096 06a3 1D       		.uleb128 0x1d
 1097 06a4 02       		.uleb128 0x2
 1098 06a5 7D       		.byte	0x7d
 1099 06a6 00       		.sleb128 0
 1100 06a7 01       		.uleb128 0x1
 1101 06a8 30       		.byte	0x30
 1102 06a9 00       		.byte	0
 1103 06aa 00       		.byte	0
 1104 06ab 16       		.uleb128 0x16
 1105 06ac 39000000 		.4byte	.LASF97
 1106 06b0 01       		.byte	0x1
 1107 06b1 82       		.byte	0x82
 1108 06b2 00000000 		.4byte	.LFB9
 1109 06b6 5C000000 		.4byte	.LFE9-.LFB9
 1110 06ba 01       		.uleb128 0x1
 1111 06bb 9C       		.byte	0x9c
 1112 06bc 2C070000 		.4byte	0x72c
 1113 06c0 1F       		.uleb128 0x1f
 1114 06c1 26000000 		.4byte	.LBB3
 1115 06c5 36000000 		.4byte	.LBE3-.LBB3
 1116 06c9 20       		.uleb128 0x20
 1117 06ca 76747000 		.ascii	"vtp\000"
 1118 06ce 01       		.byte	0x1
 1119 06cf 8F       		.byte	0x8f
 1120 06d0 7B030000 		.4byte	0x37b
 1121 06d4 00000000 		.4byte	.LLST0
 1122 06d8 1F       		.uleb128 0x1f
 1123 06d9 30000000 		.4byte	.LBB4
 1124 06dd 1A000000 		.4byte	.LBE4-.LBB4
 1125 06e1 20       		.uleb128 0x20
 1126 06e2 666E00   		.ascii	"fn\000"
 1127 06e5 01       		.byte	0x1
 1128 06e6 8F       		.byte	0x8f
 1129 06e7 0B030000 		.4byte	0x30b
 1130 06eb 1E000000 		.4byte	.LLST1
 1131 06ef 21       		.uleb128 0x21
ARM GAS  /tmp/ccwLy8iU.s 			page 21


 1132 06f0 00000000 		.4byte	.Ldebug_ranges0+0
 1133 06f4 06070000 		.4byte	0x706
 1134 06f8 1A       		.uleb128 0x1a
 1135 06f9 746D7000 		.ascii	"tmp\000"
 1136 06fd 01       		.byte	0x1
 1137 06fe 8F       		.byte	0x8f
 1138 06ff 82000000 		.4byte	0x82
 1139 0703 01       		.uleb128 0x1
 1140 0704 53       		.byte	0x53
 1141 0705 00       		.byte	0
 1142 0706 19       		.uleb128 0x19
 1143 0707 44000000 		.4byte	.LBB7
 1144 070b 06000000 		.4byte	.LBE7-.LBB7
 1145 070f 21070000 		.4byte	0x721
 1146 0713 1A       		.uleb128 0x1a
 1147 0714 746D7000 		.ascii	"tmp\000"
 1148 0718 01       		.byte	0x1
 1149 0719 8F       		.byte	0x8f
 1150 071a 82000000 		.4byte	0x82
 1151 071e 01       		.uleb128 0x1
 1152 071f 53       		.byte	0x53
 1153 0720 00       		.byte	0
 1154 0721 22       		.uleb128 0x22
 1155 0722 44000000 		.4byte	.LVL10
 1156 0726 02       		.uleb128 0x2
 1157 0727 74       		.byte	0x74
 1158 0728 00       		.sleb128 0
 1159 0729 00       		.byte	0
 1160 072a 00       		.byte	0
 1161 072b 00       		.byte	0
 1162 072c 23       		.uleb128 0x23
 1163 072d 32000000 		.4byte	.LASF98
 1164 0731 08       		.byte	0x8
 1165 0732 D4       		.byte	0xd4
 1166 0733 BF030000 		.4byte	0x3bf
 1167 0737 23       		.uleb128 0x23
 1168 0738 C2040000 		.4byte	.LASF99
 1169 073c 09       		.byte	0x9
 1170 073d 68       		.byte	0x68
 1171 073e 1B040000 		.4byte	0x41b
 1172 0742 23       		.uleb128 0x23
 1173 0743 79020000 		.4byte	.LASF100
 1174 0747 0B       		.byte	0xb
 1175 0748 77       		.byte	0x77
 1176 0749 4D070000 		.4byte	0x74d
 1177 074d 12       		.uleb128 0x12
 1178 074e C6050000 		.4byte	0x5c6
 1179 0752 14       		.uleb128 0x14
 1180 0753 5C020000 		.4byte	0x25c
 1181 0757 62070000 		.4byte	0x762
 1182 075b 15       		.uleb128 0x15
 1183 075c 04030000 		.4byte	0x304
 1184 0760 17       		.byte	0x17
 1185 0761 00       		.byte	0
 1186 0762 24       		.uleb128 0x24
 1187 0763 2B010000 		.4byte	.LASF101
 1188 0767 01       		.byte	0x1
ARM GAS  /tmp/ccwLy8iU.s 			page 22


 1189 0768 2A       		.byte	0x2a
 1190 0769 52070000 		.4byte	0x752
 1191 076d 05       		.uleb128 0x5
 1192 076e 03       		.byte	0x3
 1193 076f 00000000 		.4byte	_idle_thread_wa
 1194 0773 25       		.uleb128 0x25
 1195 0774 EC040000 		.4byte	.LASF102
 1196 0778 07       		.byte	0x7
 1197 0779 FB01     		.2byte	0x1fb
 1198 077b 26       		.uleb128 0x26
 1199 077c 99000000 		.4byte	.LASF103
 1200 0780 09       		.byte	0x9
 1201 0781 87       		.byte	0x87
 1202 0782 26       		.uleb128 0x26
 1203 0783 7D040000 		.4byte	.LASF104
 1204 0787 08       		.byte	0x8
 1205 0788 DC       		.byte	0xdc
 1206 0789 26       		.uleb128 0x26
 1207 078a AB030000 		.4byte	.LASF105
 1208 078e 0C       		.byte	0xc
 1209 078f 4A       		.byte	0x4a
 1210 0790 26       		.uleb128 0x26
 1211 0791 F7010000 		.4byte	.LASF106
 1212 0795 0D       		.byte	0xd
 1213 0796 4E       		.byte	0x4e
 1214 0797 27       		.uleb128 0x27
 1215 0798 52020000 		.4byte	.LASF110
 1216 079c 06       		.byte	0x6
 1217 079d 6301     		.2byte	0x163
 1218 079f 1E020000 		.4byte	0x21e
 1219 07a3 B2070000 		.4byte	0x7b2
 1220 07a7 0E       		.uleb128 0xe
 1221 07a8 1E020000 		.4byte	0x21e
 1222 07ac 0E       		.uleb128 0xe
 1223 07ad D5000000 		.4byte	0xd5
 1224 07b1 00       		.byte	0
 1225 07b2 28       		.uleb128 0x28
 1226 07b3 D4020000 		.4byte	.LASF111
 1227 07b7 06       		.byte	0x6
 1228 07b8 6901     		.2byte	0x169
 1229 07ba 1E020000 		.4byte	0x21e
 1230 07be 0E       		.uleb128 0xe
 1231 07bf 5A020000 		.4byte	0x25a
 1232 07c3 0E       		.uleb128 0xe
 1233 07c4 2C000000 		.4byte	0x2c
 1234 07c8 0E       		.uleb128 0xe
 1235 07c9 D5000000 		.4byte	0xd5
 1236 07cd 0E       		.uleb128 0xe
 1237 07ce B5040000 		.4byte	0x4b5
 1238 07d2 0E       		.uleb128 0xe
 1239 07d3 5A020000 		.4byte	0x25a
 1240 07d7 00       		.byte	0
 1241 07d8 00       		.byte	0
 1242              		.section	.debug_abbrev,"",%progbits
 1243              	.Ldebug_abbrev0:
 1244 0000 01       		.uleb128 0x1
 1245 0001 11       		.uleb128 0x11
ARM GAS  /tmp/ccwLy8iU.s 			page 23


 1246 0002 01       		.byte	0x1
 1247 0003 25       		.uleb128 0x25
 1248 0004 0E       		.uleb128 0xe
 1249 0005 13       		.uleb128 0x13
 1250 0006 0B       		.uleb128 0xb
 1251 0007 03       		.uleb128 0x3
 1252 0008 0E       		.uleb128 0xe
 1253 0009 1B       		.uleb128 0x1b
 1254 000a 0E       		.uleb128 0xe
 1255 000b 55       		.uleb128 0x55
 1256 000c 17       		.uleb128 0x17
 1257 000d 11       		.uleb128 0x11
 1258 000e 01       		.uleb128 0x1
 1259 000f 10       		.uleb128 0x10
 1260 0010 17       		.uleb128 0x17
 1261 0011 00       		.byte	0
 1262 0012 00       		.byte	0
 1263 0013 02       		.uleb128 0x2
 1264 0014 24       		.uleb128 0x24
 1265 0015 00       		.byte	0
 1266 0016 0B       		.uleb128 0xb
 1267 0017 0B       		.uleb128 0xb
 1268 0018 3E       		.uleb128 0x3e
 1269 0019 0B       		.uleb128 0xb
 1270 001a 03       		.uleb128 0x3
 1271 001b 08       		.uleb128 0x8
 1272 001c 00       		.byte	0
 1273 001d 00       		.byte	0
 1274 001e 03       		.uleb128 0x3
 1275 001f 16       		.uleb128 0x16
 1276 0020 00       		.byte	0
 1277 0021 03       		.uleb128 0x3
 1278 0022 0E       		.uleb128 0xe
 1279 0023 3A       		.uleb128 0x3a
 1280 0024 0B       		.uleb128 0xb
 1281 0025 3B       		.uleb128 0x3b
 1282 0026 0B       		.uleb128 0xb
 1283 0027 49       		.uleb128 0x49
 1284 0028 13       		.uleb128 0x13
 1285 0029 00       		.byte	0
 1286 002a 00       		.byte	0
 1287 002b 04       		.uleb128 0x4
 1288 002c 24       		.uleb128 0x24
 1289 002d 00       		.byte	0
 1290 002e 0B       		.uleb128 0xb
 1291 002f 0B       		.uleb128 0xb
 1292 0030 3E       		.uleb128 0x3e
 1293 0031 0B       		.uleb128 0xb
 1294 0032 03       		.uleb128 0x3
 1295 0033 0E       		.uleb128 0xe
 1296 0034 00       		.byte	0
 1297 0035 00       		.byte	0
 1298 0036 05       		.uleb128 0x5
 1299 0037 13       		.uleb128 0x13
 1300 0038 01       		.byte	0x1
 1301 0039 03       		.uleb128 0x3
 1302 003a 0E       		.uleb128 0xe
ARM GAS  /tmp/ccwLy8iU.s 			page 24


 1303 003b 0B       		.uleb128 0xb
 1304 003c 0B       		.uleb128 0xb
 1305 003d 3A       		.uleb128 0x3a
 1306 003e 0B       		.uleb128 0xb
 1307 003f 3B       		.uleb128 0x3b
 1308 0040 0B       		.uleb128 0xb
 1309 0041 01       		.uleb128 0x1
 1310 0042 13       		.uleb128 0x13
 1311 0043 00       		.byte	0
 1312 0044 00       		.byte	0
 1313 0045 06       		.uleb128 0x6
 1314 0046 0D       		.uleb128 0xd
 1315 0047 00       		.byte	0
 1316 0048 03       		.uleb128 0x3
 1317 0049 0E       		.uleb128 0xe
 1318 004a 3A       		.uleb128 0x3a
 1319 004b 0B       		.uleb128 0xb
 1320 004c 3B       		.uleb128 0x3b
 1321 004d 0B       		.uleb128 0xb
 1322 004e 49       		.uleb128 0x49
 1323 004f 13       		.uleb128 0x13
 1324 0050 38       		.uleb128 0x38
 1325 0051 0B       		.uleb128 0xb
 1326 0052 00       		.byte	0
 1327 0053 00       		.byte	0
 1328 0054 07       		.uleb128 0x7
 1329 0055 0D       		.uleb128 0xd
 1330 0056 00       		.byte	0
 1331 0057 03       		.uleb128 0x3
 1332 0058 08       		.uleb128 0x8
 1333 0059 3A       		.uleb128 0x3a
 1334 005a 0B       		.uleb128 0xb
 1335 005b 3B       		.uleb128 0x3b
 1336 005c 0B       		.uleb128 0xb
 1337 005d 49       		.uleb128 0x49
 1338 005e 13       		.uleb128 0x13
 1339 005f 38       		.uleb128 0x38
 1340 0060 0B       		.uleb128 0xb
 1341 0061 00       		.byte	0
 1342 0062 00       		.byte	0
 1343 0063 08       		.uleb128 0x8
 1344 0064 13       		.uleb128 0x13
 1345 0065 01       		.byte	0x1
 1346 0066 0B       		.uleb128 0xb
 1347 0067 0B       		.uleb128 0xb
 1348 0068 3A       		.uleb128 0x3a
 1349 0069 0B       		.uleb128 0xb
 1350 006a 3B       		.uleb128 0x3b
 1351 006b 0B       		.uleb128 0xb
 1352 006c 01       		.uleb128 0x1
 1353 006d 13       		.uleb128 0x13
 1354 006e 00       		.byte	0
 1355 006f 00       		.byte	0
 1356 0070 09       		.uleb128 0x9
 1357 0071 0F       		.uleb128 0xf
 1358 0072 00       		.byte	0
 1359 0073 0B       		.uleb128 0xb
ARM GAS  /tmp/ccwLy8iU.s 			page 25


 1360 0074 0B       		.uleb128 0xb
 1361 0075 49       		.uleb128 0x49
 1362 0076 13       		.uleb128 0x13
 1363 0077 00       		.byte	0
 1364 0078 00       		.byte	0
 1365 0079 0A       		.uleb128 0xa
 1366 007a 0F       		.uleb128 0xf
 1367 007b 00       		.byte	0
 1368 007c 0B       		.uleb128 0xb
 1369 007d 0B       		.uleb128 0xb
 1370 007e 00       		.byte	0
 1371 007f 00       		.byte	0
 1372 0080 0B       		.uleb128 0xb
 1373 0081 13       		.uleb128 0x13
 1374 0082 01       		.byte	0x1
 1375 0083 03       		.uleb128 0x3
 1376 0084 0E       		.uleb128 0xe
 1377 0085 0B       		.uleb128 0xb
 1378 0086 0B       		.uleb128 0xb
 1379 0087 3A       		.uleb128 0x3a
 1380 0088 0B       		.uleb128 0xb
 1381 0089 3B       		.uleb128 0x3b
 1382 008a 05       		.uleb128 0x5
 1383 008b 01       		.uleb128 0x1
 1384 008c 13       		.uleb128 0x13
 1385 008d 00       		.byte	0
 1386 008e 00       		.byte	0
 1387 008f 0C       		.uleb128 0xc
 1388 0090 0D       		.uleb128 0xd
 1389 0091 00       		.byte	0
 1390 0092 03       		.uleb128 0x3
 1391 0093 08       		.uleb128 0x8
 1392 0094 3A       		.uleb128 0x3a
 1393 0095 0B       		.uleb128 0xb
 1394 0096 3B       		.uleb128 0x3b
 1395 0097 05       		.uleb128 0x5
 1396 0098 49       		.uleb128 0x49
 1397 0099 13       		.uleb128 0x13
 1398 009a 38       		.uleb128 0x38
 1399 009b 0B       		.uleb128 0xb
 1400 009c 00       		.byte	0
 1401 009d 00       		.byte	0
 1402 009e 0D       		.uleb128 0xd
 1403 009f 15       		.uleb128 0x15
 1404 00a0 01       		.byte	0x1
 1405 00a1 27       		.uleb128 0x27
 1406 00a2 19       		.uleb128 0x19
 1407 00a3 01       		.uleb128 0x1
 1408 00a4 13       		.uleb128 0x13
 1409 00a5 00       		.byte	0
 1410 00a6 00       		.byte	0
 1411 00a7 0E       		.uleb128 0xe
 1412 00a8 05       		.uleb128 0x5
 1413 00a9 00       		.byte	0
 1414 00aa 49       		.uleb128 0x49
 1415 00ab 13       		.uleb128 0x13
 1416 00ac 00       		.byte	0
ARM GAS  /tmp/ccwLy8iU.s 			page 26


 1417 00ad 00       		.byte	0
 1418 00ae 0F       		.uleb128 0xf
 1419 00af 35       		.uleb128 0x35
 1420 00b0 00       		.byte	0
 1421 00b1 49       		.uleb128 0x49
 1422 00b2 13       		.uleb128 0x13
 1423 00b3 00       		.byte	0
 1424 00b4 00       		.byte	0
 1425 00b5 10       		.uleb128 0x10
 1426 00b6 17       		.uleb128 0x17
 1427 00b7 01       		.byte	0x1
 1428 00b8 0B       		.uleb128 0xb
 1429 00b9 0B       		.uleb128 0xb
 1430 00ba 3A       		.uleb128 0x3a
 1431 00bb 0B       		.uleb128 0xb
 1432 00bc 3B       		.uleb128 0x3b
 1433 00bd 0B       		.uleb128 0xb
 1434 00be 01       		.uleb128 0x1
 1435 00bf 13       		.uleb128 0x13
 1436 00c0 00       		.byte	0
 1437 00c1 00       		.byte	0
 1438 00c2 11       		.uleb128 0x11
 1439 00c3 0D       		.uleb128 0xd
 1440 00c4 00       		.byte	0
 1441 00c5 03       		.uleb128 0x3
 1442 00c6 0E       		.uleb128 0xe
 1443 00c7 3A       		.uleb128 0x3a
 1444 00c8 0B       		.uleb128 0xb
 1445 00c9 3B       		.uleb128 0x3b
 1446 00ca 0B       		.uleb128 0xb
 1447 00cb 49       		.uleb128 0x49
 1448 00cc 13       		.uleb128 0x13
 1449 00cd 00       		.byte	0
 1450 00ce 00       		.byte	0
 1451 00cf 12       		.uleb128 0x12
 1452 00d0 26       		.uleb128 0x26
 1453 00d1 00       		.byte	0
 1454 00d2 49       		.uleb128 0x49
 1455 00d3 13       		.uleb128 0x13
 1456 00d4 00       		.byte	0
 1457 00d5 00       		.byte	0
 1458 00d6 13       		.uleb128 0x13
 1459 00d7 15       		.uleb128 0x15
 1460 00d8 01       		.byte	0x1
 1461 00d9 27       		.uleb128 0x27
 1462 00da 19       		.uleb128 0x19
 1463 00db 49       		.uleb128 0x49
 1464 00dc 13       		.uleb128 0x13
 1465 00dd 01       		.uleb128 0x1
 1466 00de 13       		.uleb128 0x13
 1467 00df 00       		.byte	0
 1468 00e0 00       		.byte	0
 1469 00e1 14       		.uleb128 0x14
 1470 00e2 01       		.uleb128 0x1
 1471 00e3 01       		.byte	0x1
 1472 00e4 49       		.uleb128 0x49
 1473 00e5 13       		.uleb128 0x13
ARM GAS  /tmp/ccwLy8iU.s 			page 27


 1474 00e6 01       		.uleb128 0x1
 1475 00e7 13       		.uleb128 0x13
 1476 00e8 00       		.byte	0
 1477 00e9 00       		.byte	0
 1478 00ea 15       		.uleb128 0x15
 1479 00eb 21       		.uleb128 0x21
 1480 00ec 00       		.byte	0
 1481 00ed 49       		.uleb128 0x49
 1482 00ee 13       		.uleb128 0x13
 1483 00ef 2F       		.uleb128 0x2f
 1484 00f0 0B       		.uleb128 0xb
 1485 00f1 00       		.byte	0
 1486 00f2 00       		.byte	0
 1487 00f3 16       		.uleb128 0x16
 1488 00f4 2E       		.uleb128 0x2e
 1489 00f5 01       		.byte	0x1
 1490 00f6 3F       		.uleb128 0x3f
 1491 00f7 19       		.uleb128 0x19
 1492 00f8 03       		.uleb128 0x3
 1493 00f9 0E       		.uleb128 0xe
 1494 00fa 3A       		.uleb128 0x3a
 1495 00fb 0B       		.uleb128 0xb
 1496 00fc 3B       		.uleb128 0x3b
 1497 00fd 0B       		.uleb128 0xb
 1498 00fe 27       		.uleb128 0x27
 1499 00ff 19       		.uleb128 0x19
 1500 0100 11       		.uleb128 0x11
 1501 0101 01       		.uleb128 0x1
 1502 0102 12       		.uleb128 0x12
 1503 0103 06       		.uleb128 0x6
 1504 0104 40       		.uleb128 0x40
 1505 0105 18       		.uleb128 0x18
 1506 0106 9742     		.uleb128 0x2117
 1507 0108 19       		.uleb128 0x19
 1508 0109 01       		.uleb128 0x1
 1509 010a 13       		.uleb128 0x13
 1510 010b 00       		.byte	0
 1511 010c 00       		.byte	0
 1512 010d 17       		.uleb128 0x17
 1513 010e 05       		.uleb128 0x5
 1514 010f 00       		.byte	0
 1515 0110 03       		.uleb128 0x3
 1516 0111 08       		.uleb128 0x8
 1517 0112 3A       		.uleb128 0x3a
 1518 0113 0B       		.uleb128 0xb
 1519 0114 3B       		.uleb128 0x3b
 1520 0115 0B       		.uleb128 0xb
 1521 0116 49       		.uleb128 0x49
 1522 0117 13       		.uleb128 0x13
 1523 0118 02       		.uleb128 0x2
 1524 0119 18       		.uleb128 0x18
 1525 011a 00       		.byte	0
 1526 011b 00       		.byte	0
 1527 011c 18       		.uleb128 0x18
 1528 011d 34       		.uleb128 0x34
 1529 011e 00       		.byte	0
 1530 011f 03       		.uleb128 0x3
ARM GAS  /tmp/ccwLy8iU.s 			page 28


 1531 0120 0E       		.uleb128 0xe
 1532 0121 3A       		.uleb128 0x3a
 1533 0122 0B       		.uleb128 0xb
 1534 0123 3B       		.uleb128 0x3b
 1535 0124 0B       		.uleb128 0xb
 1536 0125 49       		.uleb128 0x49
 1537 0126 13       		.uleb128 0x13
 1538 0127 02       		.uleb128 0x2
 1539 0128 18       		.uleb128 0x18
 1540 0129 00       		.byte	0
 1541 012a 00       		.byte	0
 1542 012b 19       		.uleb128 0x19
 1543 012c 0B       		.uleb128 0xb
 1544 012d 01       		.byte	0x1
 1545 012e 11       		.uleb128 0x11
 1546 012f 01       		.uleb128 0x1
 1547 0130 12       		.uleb128 0x12
 1548 0131 06       		.uleb128 0x6
 1549 0132 01       		.uleb128 0x1
 1550 0133 13       		.uleb128 0x13
 1551 0134 00       		.byte	0
 1552 0135 00       		.byte	0
 1553 0136 1A       		.uleb128 0x1a
 1554 0137 34       		.uleb128 0x34
 1555 0138 00       		.byte	0
 1556 0139 03       		.uleb128 0x3
 1557 013a 08       		.uleb128 0x8
 1558 013b 3A       		.uleb128 0x3a
 1559 013c 0B       		.uleb128 0xb
 1560 013d 3B       		.uleb128 0x3b
 1561 013e 0B       		.uleb128 0xb
 1562 013f 49       		.uleb128 0x49
 1563 0140 13       		.uleb128 0x13
 1564 0141 02       		.uleb128 0x2
 1565 0142 18       		.uleb128 0x18
 1566 0143 00       		.byte	0
 1567 0144 00       		.byte	0
 1568 0145 1B       		.uleb128 0x1b
 1569 0146 898201   		.uleb128 0x4109
 1570 0149 00       		.byte	0
 1571 014a 11       		.uleb128 0x11
 1572 014b 01       		.uleb128 0x1
 1573 014c 31       		.uleb128 0x31
 1574 014d 13       		.uleb128 0x13
 1575 014e 00       		.byte	0
 1576 014f 00       		.byte	0
 1577 0150 1C       		.uleb128 0x1c
 1578 0151 898201   		.uleb128 0x4109
 1579 0154 01       		.byte	0x1
 1580 0155 11       		.uleb128 0x11
 1581 0156 01       		.uleb128 0x1
 1582 0157 31       		.uleb128 0x31
 1583 0158 13       		.uleb128 0x13
 1584 0159 01       		.uleb128 0x1
 1585 015a 13       		.uleb128 0x13
 1586 015b 00       		.byte	0
 1587 015c 00       		.byte	0
ARM GAS  /tmp/ccwLy8iU.s 			page 29


 1588 015d 1D       		.uleb128 0x1d
 1589 015e 8A8201   		.uleb128 0x410a
 1590 0161 00       		.byte	0
 1591 0162 02       		.uleb128 0x2
 1592 0163 18       		.uleb128 0x18
 1593 0164 9142     		.uleb128 0x2111
 1594 0166 18       		.uleb128 0x18
 1595 0167 00       		.byte	0
 1596 0168 00       		.byte	0
 1597 0169 1E       		.uleb128 0x1e
 1598 016a 898201   		.uleb128 0x4109
 1599 016d 01       		.byte	0x1
 1600 016e 11       		.uleb128 0x11
 1601 016f 01       		.uleb128 0x1
 1602 0170 31       		.uleb128 0x31
 1603 0171 13       		.uleb128 0x13
 1604 0172 00       		.byte	0
 1605 0173 00       		.byte	0
 1606 0174 1F       		.uleb128 0x1f
 1607 0175 0B       		.uleb128 0xb
 1608 0176 01       		.byte	0x1
 1609 0177 11       		.uleb128 0x11
 1610 0178 01       		.uleb128 0x1
 1611 0179 12       		.uleb128 0x12
 1612 017a 06       		.uleb128 0x6
 1613 017b 00       		.byte	0
 1614 017c 00       		.byte	0
 1615 017d 20       		.uleb128 0x20
 1616 017e 34       		.uleb128 0x34
 1617 017f 00       		.byte	0
 1618 0180 03       		.uleb128 0x3
 1619 0181 08       		.uleb128 0x8
 1620 0182 3A       		.uleb128 0x3a
 1621 0183 0B       		.uleb128 0xb
 1622 0184 3B       		.uleb128 0x3b
 1623 0185 0B       		.uleb128 0xb
 1624 0186 49       		.uleb128 0x49
 1625 0187 13       		.uleb128 0x13
 1626 0188 02       		.uleb128 0x2
 1627 0189 17       		.uleb128 0x17
 1628 018a 00       		.byte	0
 1629 018b 00       		.byte	0
 1630 018c 21       		.uleb128 0x21
 1631 018d 0B       		.uleb128 0xb
 1632 018e 01       		.byte	0x1
 1633 018f 55       		.uleb128 0x55
 1634 0190 17       		.uleb128 0x17
 1635 0191 01       		.uleb128 0x1
 1636 0192 13       		.uleb128 0x13
 1637 0193 00       		.byte	0
 1638 0194 00       		.byte	0
 1639 0195 22       		.uleb128 0x22
 1640 0196 898201   		.uleb128 0x4109
 1641 0199 00       		.byte	0
 1642 019a 11       		.uleb128 0x11
 1643 019b 01       		.uleb128 0x1
 1644 019c 9342     		.uleb128 0x2113
ARM GAS  /tmp/ccwLy8iU.s 			page 30


 1645 019e 18       		.uleb128 0x18
 1646 019f 00       		.byte	0
 1647 01a0 00       		.byte	0
 1648 01a1 23       		.uleb128 0x23
 1649 01a2 34       		.uleb128 0x34
 1650 01a3 00       		.byte	0
 1651 01a4 03       		.uleb128 0x3
 1652 01a5 0E       		.uleb128 0xe
 1653 01a6 3A       		.uleb128 0x3a
 1654 01a7 0B       		.uleb128 0xb
 1655 01a8 3B       		.uleb128 0x3b
 1656 01a9 0B       		.uleb128 0xb
 1657 01aa 49       		.uleb128 0x49
 1658 01ab 13       		.uleb128 0x13
 1659 01ac 3F       		.uleb128 0x3f
 1660 01ad 19       		.uleb128 0x19
 1661 01ae 3C       		.uleb128 0x3c
 1662 01af 19       		.uleb128 0x19
 1663 01b0 00       		.byte	0
 1664 01b1 00       		.byte	0
 1665 01b2 24       		.uleb128 0x24
 1666 01b3 34       		.uleb128 0x34
 1667 01b4 00       		.byte	0
 1668 01b5 03       		.uleb128 0x3
 1669 01b6 0E       		.uleb128 0xe
 1670 01b7 3A       		.uleb128 0x3a
 1671 01b8 0B       		.uleb128 0xb
 1672 01b9 3B       		.uleb128 0x3b
 1673 01ba 0B       		.uleb128 0xb
 1674 01bb 49       		.uleb128 0x49
 1675 01bc 13       		.uleb128 0x13
 1676 01bd 3F       		.uleb128 0x3f
 1677 01be 19       		.uleb128 0x19
 1678 01bf 02       		.uleb128 0x2
 1679 01c0 18       		.uleb128 0x18
 1680 01c1 00       		.byte	0
 1681 01c2 00       		.byte	0
 1682 01c3 25       		.uleb128 0x25
 1683 01c4 2E       		.uleb128 0x2e
 1684 01c5 00       		.byte	0
 1685 01c6 3F       		.uleb128 0x3f
 1686 01c7 19       		.uleb128 0x19
 1687 01c8 03       		.uleb128 0x3
 1688 01c9 0E       		.uleb128 0xe
 1689 01ca 3A       		.uleb128 0x3a
 1690 01cb 0B       		.uleb128 0xb
 1691 01cc 3B       		.uleb128 0x3b
 1692 01cd 05       		.uleb128 0x5
 1693 01ce 27       		.uleb128 0x27
 1694 01cf 19       		.uleb128 0x19
 1695 01d0 3C       		.uleb128 0x3c
 1696 01d1 19       		.uleb128 0x19
 1697 01d2 00       		.byte	0
 1698 01d3 00       		.byte	0
 1699 01d4 26       		.uleb128 0x26
 1700 01d5 2E       		.uleb128 0x2e
 1701 01d6 00       		.byte	0
ARM GAS  /tmp/ccwLy8iU.s 			page 31


 1702 01d7 3F       		.uleb128 0x3f
 1703 01d8 19       		.uleb128 0x19
 1704 01d9 03       		.uleb128 0x3
 1705 01da 0E       		.uleb128 0xe
 1706 01db 3A       		.uleb128 0x3a
 1707 01dc 0B       		.uleb128 0xb
 1708 01dd 3B       		.uleb128 0x3b
 1709 01de 0B       		.uleb128 0xb
 1710 01df 27       		.uleb128 0x27
 1711 01e0 19       		.uleb128 0x19
 1712 01e1 3C       		.uleb128 0x3c
 1713 01e2 19       		.uleb128 0x19
 1714 01e3 00       		.byte	0
 1715 01e4 00       		.byte	0
 1716 01e5 27       		.uleb128 0x27
 1717 01e6 2E       		.uleb128 0x2e
 1718 01e7 01       		.byte	0x1
 1719 01e8 3F       		.uleb128 0x3f
 1720 01e9 19       		.uleb128 0x19
 1721 01ea 03       		.uleb128 0x3
 1722 01eb 0E       		.uleb128 0xe
 1723 01ec 3A       		.uleb128 0x3a
 1724 01ed 0B       		.uleb128 0xb
 1725 01ee 3B       		.uleb128 0x3b
 1726 01ef 05       		.uleb128 0x5
 1727 01f0 27       		.uleb128 0x27
 1728 01f1 19       		.uleb128 0x19
 1729 01f2 49       		.uleb128 0x49
 1730 01f3 13       		.uleb128 0x13
 1731 01f4 3C       		.uleb128 0x3c
 1732 01f5 19       		.uleb128 0x19
 1733 01f6 01       		.uleb128 0x1
 1734 01f7 13       		.uleb128 0x13
 1735 01f8 00       		.byte	0
 1736 01f9 00       		.byte	0
 1737 01fa 28       		.uleb128 0x28
 1738 01fb 2E       		.uleb128 0x2e
 1739 01fc 01       		.byte	0x1
 1740 01fd 3F       		.uleb128 0x3f
 1741 01fe 19       		.uleb128 0x19
 1742 01ff 03       		.uleb128 0x3
 1743 0200 0E       		.uleb128 0xe
 1744 0201 3A       		.uleb128 0x3a
 1745 0202 0B       		.uleb128 0xb
 1746 0203 3B       		.uleb128 0x3b
 1747 0204 05       		.uleb128 0x5
 1748 0205 27       		.uleb128 0x27
 1749 0206 19       		.uleb128 0x19
 1750 0207 49       		.uleb128 0x49
 1751 0208 13       		.uleb128 0x13
 1752 0209 3C       		.uleb128 0x3c
 1753 020a 19       		.uleb128 0x19
 1754 020b 00       		.byte	0
 1755 020c 00       		.byte	0
 1756 020d 00       		.byte	0
 1757              		.section	.debug_loc,"",%progbits
 1758              	.Ldebug_loc0:
ARM GAS  /tmp/ccwLy8iU.s 			page 32


 1759              	.LLST0:
 1760 0000 2C000000 		.4byte	.LVL8
 1761 0004 43000000 		.4byte	.LVL10-1
 1762 0008 0100     		.2byte	0x1
 1763 000a 52       		.byte	0x52
 1764 000b 4C000000 		.4byte	.LVL11
 1765 000f 5A000000 		.4byte	.LVL12
 1766 0013 0100     		.2byte	0x1
 1767 0015 52       		.byte	0x52
 1768 0016 00000000 		.4byte	0
 1769 001a 00000000 		.4byte	0
 1770              	.LLST1:
 1771 001e 34000000 		.4byte	.LVL9
 1772 0022 5A000000 		.4byte	.LVL12
 1773 0026 0100     		.2byte	0x1
 1774 0028 54       		.byte	0x54
 1775 0029 00000000 		.4byte	0
 1776 002d 00000000 		.4byte	0
 1777              		.section	.debug_aranges,"",%progbits
 1778 0000 2C000000 		.4byte	0x2c
 1779 0004 0200     		.2byte	0x2
 1780 0006 00000000 		.4byte	.Ldebug_info0
 1781 000a 04       		.byte	0x4
 1782 000b 00       		.byte	0
 1783 000c 0000     		.2byte	0
 1784 000e 0000     		.2byte	0
 1785 0010 00000000 		.4byte	.LFB7
 1786 0014 16000000 		.4byte	.LFE7-.LFB7
 1787 0018 00000000 		.4byte	.LFB8
 1788 001c 70000000 		.4byte	.LFE8-.LFB8
 1789 0020 00000000 		.4byte	.LFB9
 1790 0024 5C000000 		.4byte	.LFE9-.LFB9
 1791 0028 00000000 		.4byte	0
 1792 002c 00000000 		.4byte	0
 1793              		.section	.debug_ranges,"",%progbits
 1794              	.Ldebug_ranges0:
 1795 0000 38000000 		.4byte	.LBB5
 1796 0004 3A000000 		.4byte	.LBE5
 1797 0008 3C000000 		.4byte	.LBB6
 1798 000c 40000000 		.4byte	.LBE6
 1799 0010 00000000 		.4byte	0
 1800 0014 00000000 		.4byte	0
 1801 0018 00000000 		.4byte	.LFB7
 1802 001c 16000000 		.4byte	.LFE7
 1803 0020 00000000 		.4byte	.LFB8
 1804 0024 70000000 		.4byte	.LFE8
 1805 0028 00000000 		.4byte	.LFB9
 1806 002c 5C000000 		.4byte	.LFE9
 1807 0030 00000000 		.4byte	0
 1808 0034 00000000 		.4byte	0
 1809              		.section	.debug_line,"",%progbits
 1810              	.Ldebug_line0:
 1811 0000 D4010000 		.section	.debug_str,"MS",%progbits,1
 1811      02007301 
 1811      00000201 
 1811      FB0E0D00 
 1811      01010101 
ARM GAS  /tmp/ccwLy8iU.s 			page 33


 1812              	.LASF74:
 1813 0000 7466756E 		.ascii	"tfunc_t\000"
 1813      635F7400 
 1814              	.LASF85:
 1815 0008 63665F6F 		.ascii	"cf_off_older\000"
 1815      66665F6F 
 1815      6C646572 
 1815      00
 1816              	.LASF37:
 1817 0015 705F6D73 		.ascii	"p_msg\000"
 1817      6700
 1818              	.LASF2:
 1819 001b 73697A65 		.ascii	"size_t\000"
 1819      5F7400
 1820              	.LASF69:
 1821 0022 7264796D 		.ascii	"rdymsg\000"
 1821      736700
 1822              	.LASF13:
 1823 0029 75696E74 		.ascii	"uint64_t\000"
 1823      36345F74 
 1823      00
 1824              	.LASF98:
 1825 0032 76746C69 		.ascii	"vtlist\000"
 1825      737400
 1826              	.LASF97:
 1827 0039 63685379 		.ascii	"chSysTimerHandlerI\000"
 1827      7354696D 
 1827      65724861 
 1827      6E646C65 
 1827      724900
 1828              	.LASF14:
 1829 004c 6C6F6E67 		.ascii	"long long unsigned int\000"
 1829      206C6F6E 
 1829      6720756E 
 1829      7369676E 
 1829      65642069 
 1830              	.LASF81:
 1831 0063 63685F74 		.ascii	"ch_threadsize\000"
 1831      68726561 
 1831      6473697A 
 1831      6500
 1832              	.LASF70:
 1833 0071 65786974 		.ascii	"exitcode\000"
 1833      636F6465 
 1833      00
 1834              	.LASF96:
 1835 007a 6D61696E 		.ascii	"mainthread\000"
 1835      74687265 
 1835      616400
 1836              	.LASF26:
 1837 0085 705F7072 		.ascii	"p_prio\000"
 1837      696F00
 1838              	.LASF88:
 1839 008c 63665F6F 		.ascii	"cf_off_state\000"
 1839      66665F73 
 1839      74617465 
 1839      00
ARM GAS  /tmp/ccwLy8iU.s 			page 34


 1840              	.LASF103:
 1841 0099 5F736368 		.ascii	"_scheduler_init\000"
 1841      6564756C 
 1841      65725F69 
 1841      6E697400 
 1842              	.LASF12:
 1843 00a9 6C6F6E67 		.ascii	"long long int\000"
 1843      206C6F6E 
 1843      6720696E 
 1843      7400
 1844              	.LASF1:
 1845 00b7 7369676E 		.ascii	"signed char\000"
 1845      65642063 
 1845      68617200 
 1846              	.LASF87:
 1847 00c3 63665F6F 		.ascii	"cf_off_stklimit\000"
 1847      66665F73 
 1847      746B6C69 
 1847      6D697400 
 1848              	.LASF89:
 1849 00d3 63665F6F 		.ascii	"cf_off_flags\000"
 1849      66665F66 
 1849      6C616773 
 1849      00
 1850              	.LASF41:
 1851 00e0 705F6D70 		.ascii	"p_mpool\000"
 1851      6F6F6C00 
 1852              	.LASF66:
 1853 00e8 6D5F7175 		.ascii	"m_queue\000"
 1853      65756500 
 1854              	.LASF75:
 1855 00f0 63685F69 		.ascii	"ch_identifier\000"
 1855      64656E74 
 1855      69666965 
 1855      7200
 1856              	.LASF9:
 1857 00fe 6C6F6E67 		.ascii	"long int\000"
 1857      20696E74 
 1857      00
 1858              	.LASF17:
 1859 0107 74737461 		.ascii	"tstate_t\000"
 1859      74655F74 
 1859      00
 1860              	.LASF6:
 1861 0110 75696E74 		.ascii	"uint16_t\000"
 1861      31365F74 
 1861      00
 1862              	.LASF93:
 1863 0119 63686465 		.ascii	"chdebug_t\000"
 1863      6275675F 
 1863      7400
 1864              	.LASF28:
 1865 0123 705F6E65 		.ascii	"p_newer\000"
 1865      77657200 
 1866              	.LASF101:
 1867 012b 5F69646C 		.ascii	"_idle_thread_wa\000"
 1867      655F7468 
ARM GAS  /tmp/ccwLy8iU.s 			page 35


 1867      72656164 
 1867      5F776100 
 1868              	.LASF61:
 1869 013b 725F6E65 		.ascii	"r_newer\000"
 1869      77657200 
 1870              	.LASF44:
 1871 0143 72656761 		.ascii	"regarm_t\000"
 1871      726D5F74 
 1871      00
 1872              	.LASF52:
 1873 014c 76745F70 		.ascii	"vt_prev\000"
 1873      72657600 
 1874              	.LASF95:
 1875 0154 63685379 		.ascii	"chSysInit\000"
 1875      73496E69 
 1875      7400
 1876              	.LASF107:
 1877 015e 474E5520 		.ascii	"GNU C 4.8.1 -mcpu=cortex-m3 -mno-thumb-interwork -m"
 1877      4320342E 
 1877      382E3120 
 1877      2D6D6370 
 1877      753D636F 
 1878 0191 7468756D 		.ascii	"thumb -mfloat-abi=soft -ggdb -O2 -fomit-frame-point"
 1878      62202D6D 
 1878      666C6F61 
 1878      742D6162 
 1878      693D736F 
 1879 01c4 6572202D 		.ascii	"er -ffunction-sections -fdata-sections -fno-common\000"
 1879      6666756E 
 1879      6374696F 
 1879      6E2D7365 
 1879      6374696F 
 1880              	.LASF106:
 1881 01f7 5F686561 		.ascii	"_heap_init\000"
 1881      705F696E 
 1881      697400
 1882              	.LASF109:
 1883 0202 2F686F6D 		.ascii	"/home/daniofb/Programming/ChibiOS-RT/demos/ARMCM3-L"
 1883      652F6461 
 1883      6E696F66 
 1883      622F5072 
 1883      6F677261 
 1884 0235 50433137 		.ascii	"PC1768-AKAIKABA\000"
 1884      36382D41 
 1884      4B41494B 
 1884      41424100 
 1885              	.LASF0:
 1886 0245 756E7369 		.ascii	"unsigned int\000"
 1886      676E6564 
 1886      20696E74 
 1886      00
 1887              	.LASF110:
 1888 0252 5F746872 		.ascii	"_thread_init\000"
 1888      6561645F 
 1888      696E6974 
 1888      00
 1889              	.LASF51:
ARM GAS  /tmp/ccwLy8iU.s 			page 36


 1890 025f 76745F6E 		.ascii	"vt_next\000"
 1890      65787400 
 1891              	.LASF11:
 1892 0267 6C6F6E67 		.ascii	"long unsigned int\000"
 1892      20756E73 
 1892      69676E65 
 1892      6420696E 
 1892      7400
 1893              	.LASF100:
 1894 0279 63685F64 		.ascii	"ch_debug\000"
 1894      65627567 
 1894      00
 1895              	.LASF47:
 1896 0282 636F6E74 		.ascii	"context\000"
 1896      65787400 
 1897              	.LASF7:
 1898 028a 73686F72 		.ascii	"short unsigned int\000"
 1898      7420756E 
 1898      7369676E 
 1898      65642069 
 1898      6E7400
 1899              	.LASF20:
 1900 029d 6D73675F 		.ascii	"msg_t\000"
 1900      7400
 1901              	.LASF16:
 1902 02a3 746D6F64 		.ascii	"tmode_t\000"
 1902      655F7400 
 1903              	.LASF43:
 1904 02ab 54687265 		.ascii	"ThreadsList\000"
 1904      6164734C 
 1904      69737400 
 1905              	.LASF21:
 1906 02b7 6576656E 		.ascii	"eventmask_t\000"
 1906      746D6173 
 1906      6B5F7400 
 1907              	.LASF65:
 1908 02c3 4D757465 		.ascii	"Mutex\000"
 1908      7800
 1909              	.LASF45:
 1910 02c9 73746B61 		.ascii	"stkalign_t\000"
 1910      6C69676E 
 1910      5F7400
 1911              	.LASF111:
 1912 02d4 63685468 		.ascii	"chThdCreateStatic\000"
 1912      64437265 
 1912      61746553 
 1912      74617469 
 1912      6300
 1913              	.LASF76:
 1914 02e6 63685F7A 		.ascii	"ch_zero\000"
 1914      65726F00 
 1915              	.LASF90:
 1916 02ee 63665F6F 		.ascii	"cf_off_refs\000"
 1916      66665F72 
 1916      65667300 
 1917              	.LASF53:
 1918 02fa 76745F74 		.ascii	"vt_time\000"
ARM GAS  /tmp/ccwLy8iU.s 			page 37


 1918      696D6500 
 1919              	.LASF48:
 1920 0302 73697A65 		.ascii	"sizetype\000"
 1920      74797065 
 1920      00
 1921              	.LASF54:
 1922 030b 76745F66 		.ascii	"vt_func\000"
 1922      756E6300 
 1923              	.LASF80:
 1924 0313 63685F74 		.ascii	"ch_timesize\000"
 1924      696D6573 
 1924      697A6500 
 1925              	.LASF86:
 1926 031f 63665F6F 		.ascii	"cf_off_name\000"
 1926      66665F6E 
 1926      616D6500 
 1927              	.LASF29:
 1928 032b 705F6F6C 		.ascii	"p_older\000"
 1928      64657200 
 1929              	.LASF60:
 1930 0333 725F6374 		.ascii	"r_ctx\000"
 1930      7800
 1931              	.LASF42:
 1932 0339 54687265 		.ascii	"ThreadsQueue\000"
 1932      61647351 
 1932      75657565 
 1932      00
 1933              	.LASF77:
 1934 0346 63685F73 		.ascii	"ch_size\000"
 1934      697A6500 
 1935              	.LASF63:
 1936 034e 725F6375 		.ascii	"r_current\000"
 1936      7272656E 
 1936      7400
 1937              	.LASF62:
 1938 0358 725F6F6C 		.ascii	"r_older\000"
 1938      64657200 
 1939              	.LASF94:
 1940 0360 5F69646C 		.ascii	"_idle_thread\000"
 1940      655F7468 
 1940      72656164 
 1940      00
 1941              	.LASF18:
 1942 036d 74726566 		.ascii	"trefs_t\000"
 1942      735F7400 
 1943              	.LASF79:
 1944 0375 63685F70 		.ascii	"ch_ptrsize\000"
 1944      74727369 
 1944      7A6500
 1945              	.LASF25:
 1946 0380 705F7072 		.ascii	"p_prev\000"
 1946      657600
 1947              	.LASF19:
 1948 0387 74707269 		.ascii	"tprio_t\000"
 1948      6F5F7400 
 1949              	.LASF15:
 1950 038f 5F426F6F 		.ascii	"_Bool\000"
ARM GAS  /tmp/ccwLy8iU.s 			page 38


 1950      6C00
 1951              	.LASF8:
 1952 0395 696E7433 		.ascii	"int32_t\000"
 1952      325F7400 
 1953              	.LASF4:
 1954 039d 756E7369 		.ascii	"unsigned char\000"
 1954      676E6564 
 1954      20636861 
 1954      7200
 1955              	.LASF105:
 1956 03ab 5F636F72 		.ascii	"_core_init\000"
 1956      655F696E 
 1956      697400
 1957              	.LASF39:
 1958 03b6 705F6D74 		.ascii	"p_mtxlist\000"
 1958      786C6973 
 1958      7400
 1959              	.LASF5:
 1960 03c0 73686F72 		.ascii	"short int\000"
 1960      7420696E 
 1960      7400
 1961              	.LASF31:
 1962 03ca 705F7374 		.ascii	"p_state\000"
 1962      61746500 
 1963              	.LASF92:
 1964 03d2 63665F6F 		.ascii	"cf_off_time\000"
 1964      66665F74 
 1964      696D6500 
 1965              	.LASF59:
 1966 03de 725F7072 		.ascii	"r_prio\000"
 1966      696F00
 1967              	.LASF72:
 1968 03e5 65776D61 		.ascii	"ewmask\000"
 1968      736B00
 1969              	.LASF24:
 1970 03ec 705F6E65 		.ascii	"p_next\000"
 1970      787400
 1971              	.LASF91:
 1972 03f3 63665F6F 		.ascii	"cf_off_preempt\000"
 1972      66665F70 
 1972      7265656D 
 1972      707400
 1973              	.LASF32:
 1974 0402 705F666C 		.ascii	"p_flags\000"
 1974      61677300 
 1975              	.LASF23:
 1976 040a 54687265 		.ascii	"Thread\000"
 1976      616400
 1977              	.LASF84:
 1978 0411 63665F6F 		.ascii	"cf_off_newer\000"
 1978      66665F6E 
 1978      65776572 
 1978      00
 1979              	.LASF38:
 1980 041e 705F6570 		.ascii	"p_epending\000"
 1980      656E6469 
 1980      6E6700
ARM GAS  /tmp/ccwLy8iU.s 			page 39


 1981              	.LASF10:
 1982 0429 75696E74 		.ascii	"uint32_t\000"
 1982      33325F74 
 1982      00
 1983              	.LASF82:
 1984 0432 63665F6F 		.ascii	"cf_off_prio\000"
 1984      66665F70 
 1984      72696F00 
 1985              	.LASF58:
 1986 043e 725F7175 		.ascii	"r_queue\000"
 1986      65756500 
 1987              	.LASF50:
 1988 0446 56697274 		.ascii	"VirtualTimer\000"
 1988      75616C54 
 1988      696D6572 
 1988      00
 1989              	.LASF73:
 1990 0453 63686172 		.ascii	"char\000"
 1990      00
 1991              	.LASF68:
 1992 0458 6D5F6E65 		.ascii	"m_next\000"
 1992      787400
 1993              	.LASF22:
 1994 045f 73797374 		.ascii	"systime_t\000"
 1994      696D655F 
 1994      7400
 1995              	.LASF40:
 1996 0469 705F7265 		.ascii	"p_realprio\000"
 1996      616C7072 
 1996      696F00
 1997              	.LASF49:
 1998 0474 76746675 		.ascii	"vtfunc_t\000"
 1998      6E635F74 
 1998      00
 1999              	.LASF104:
 2000 047d 5F76745F 		.ascii	"_vt_init\000"
 2000      696E6974 
 2000      00
 2001              	.LASF34:
 2002 0486 705F7469 		.ascii	"p_time\000"
 2002      6D6500
 2003              	.LASF46:
 2004 048d 696E7463 		.ascii	"intctx\000"
 2004      747800
 2005              	.LASF36:
 2006 0494 705F6D73 		.ascii	"p_msgqueue\000"
 2006      67717565 
 2006      756500
 2007              	.LASF55:
 2008 049f 76745F70 		.ascii	"vt_par\000"
 2008      617200
 2009              	.LASF83:
 2010 04a6 63665F6F 		.ascii	"cf_off_ctx\000"
 2010      66665F63 
 2010      747800
 2011              	.LASF33:
 2012 04b1 705F7265 		.ascii	"p_refs\000"
ARM GAS  /tmp/ccwLy8iU.s 			page 40


 2012      667300
 2013              	.LASF64:
 2014 04b8 52656164 		.ascii	"ReadyList\000"
 2014      794C6973 
 2014      7400
 2015              	.LASF99:
 2016 04c2 726C6973 		.ascii	"rlist\000"
 2016      7400
 2017              	.LASF108:
 2018 04c8 2E2E2F2E 		.ascii	"../../os/kernel/src/chsys.c\000"
 2018      2E2F6F73 
 2018      2F6B6572 
 2018      6E656C2F 
 2018      7372632F 
 2019              	.LASF3:
 2020 04e4 75696E74 		.ascii	"uint8_t\000"
 2020      385F7400 
 2021              	.LASF102:
 2022 04ec 5F706F72 		.ascii	"_port_init\000"
 2022      745F696E 
 2022      697400
 2023              	.LASF71:
 2024 04f7 77746F62 		.ascii	"wtobjp\000"
 2024      6A7000
 2025              	.LASF30:
 2026 04fe 705F6E61 		.ascii	"p_name\000"
 2026      6D6500
 2027              	.LASF56:
 2028 0505 76745F73 		.ascii	"vt_systime\000"
 2028      79737469 
 2028      6D6500
 2029              	.LASF78:
 2030 0510 63685F76 		.ascii	"ch_version\000"
 2030      65727369 
 2030      6F6E00
 2031              	.LASF57:
 2032 051b 56544C69 		.ascii	"VTList\000"
 2032      737400
 2033              	.LASF67:
 2034 0522 6D5F6F77 		.ascii	"m_owner\000"
 2034      6E657200 
 2035              	.LASF27:
 2036 052a 705F6374 		.ascii	"p_ctx\000"
 2036      7800
 2037              	.LASF35:
 2038 0530 705F7761 		.ascii	"p_waiting\000"
 2038      6974696E 
 2038      6700
 2039              		.ident	"GCC: (GNU) 4.8.1"
ARM GAS  /tmp/ccwLy8iU.s 			page 41


DEFINED SYMBOLS
                            *ABS*:0000000000000000 chsys.c
     /tmp/ccwLy8iU.s:19     .text._idle_thread:0000000000000000 $t
     /tmp/ccwLy8iU.s:24     .text._idle_thread:0000000000000000 _idle_thread
     /tmp/ccwLy8iU.s:231    .rodata.str1.4:0000000000000000 .LC0
     /tmp/ccwLy8iU.s:47     .text.chSysInit:0000000000000000 $t
     /tmp/ccwLy8iU.s:52     .text.chSysInit:0000000000000000 chSysInit
     /tmp/ccwLy8iU.s:224    .bss.mainthread.4776:0000000000000000 .LANCHOR0
     /tmp/ccwLy8iU.s:235    .bss._idle_thread_wa:0000000000000000 .LANCHOR1
     /tmp/ccwLy8iU.s:130    .text.chSysTimerHandlerI:0000000000000000 $t
     /tmp/ccwLy8iU.s:135    .text.chSysTimerHandlerI:0000000000000000 chSysTimerHandlerI
     /tmp/ccwLy8iU.s:238    .bss._idle_thread_wa:0000000000000000 _idle_thread_wa
     /tmp/ccwLy8iU.s:223    .bss.mainthread.4776:0000000000000000 $d
     /tmp/ccwLy8iU.s:227    .bss.mainthread.4776:0000000000000000 mainthread.4776
     /tmp/ccwLy8iU.s:230    .rodata.str1.4:0000000000000000 $d
     /tmp/ccwLy8iU.s:234    .bss._idle_thread_wa:0000000000000000 $d
                     .debug_frame:0000000000000010 $d

UNDEFINED SYMBOLS
rlist
_port_init
_scheduler_init
_vt_init
_core_init
_heap_init
_thread_init
ch_debug
chThdCreateStatic
vtlist
