ARM GAS  /tmp/ccbNgWBe.s 			page 1


   1              		.syntax unified
   2              		.cpu cortex-m3
   3              		.fpu softvfp
   4              		.eabi_attribute 20, 1
   5              		.eabi_attribute 21, 1
   6              		.eabi_attribute 23, 3
   7              		.eabi_attribute 24, 1
   8              		.eabi_attribute 25, 1
   9              		.eabi_attribute 26, 1
  10              		.eabi_attribute 30, 2
  11              		.eabi_attribute 34, 1
  12              		.eabi_attribute 18, 4
  13              		.thumb
  14              		.file	"chthreads.c"
  15              		.text
  16              	.Ltext0:
  17              		.cfi_sections	.debug_frame
  18              		.section	.text._thread_init,"ax",%progbits
  19              		.align	2
  20              		.global	_thread_init
  21              		.thumb
  22              		.thumb_func
  23              		.type	_thread_init, %function
  24              	_thread_init:
  25              	.LFB7:
  26              		.file 1 "../../os/kernel/src/chthreads.c"
  27              		.loc 1 69 0
  28              		.cfi_startproc
  29              		@ args = 0, pretend = 0, frame = 0
  30              		@ frame_needed = 0, uses_anonymous_args = 0
  31              		@ link register save eliminated.
  32              	.LVL0:
  33 0000 2DE9F001 		push	{r4, r5, r6, r7, r8}
  34              		.cfi_def_cfa_offset 20
  35              		.cfi_offset 4, -20
  36              		.cfi_offset 5, -16
  37              		.cfi_offset 6, -12
  38              		.cfi_offset 7, -8
  39              		.cfi_offset 8, -4
  40              		.loc 1 92 0
  41 0004 40F20002 		movw	r2, #:lower16:rlist
  42 0008 C0F20002 		movt	r2, #:upper16:rlist
  43 000c 5569     		ldr	r5, [r2, #20]
  44              		.loc 1 73 0
  45 000e 0024     		movs	r4, #0
  46              		.loc 1 98 0
  47 0010 00F12C06 		add	r6, r0, #44
  48              		.loc 1 72 0
  49 0014 4FF00208 		mov	r8, #2
  50              		.loc 1 95 0
  51 0018 00F12807 		add	r7, r0, #40
  52              		.loc 1 88 0
  53 001c 4FF0010C 		mov	ip, #1
  54              		.loc 1 92 0
  55 0020 4561     		str	r5, [r0, #20]
  56 0022 0261     		str	r2, [r0, #16]
  57              		.loc 1 71 0
ARM GAS  /tmp/ccbNgWBe.s 			page 2


  58 0024 8160     		str	r1, [r0, #8]
  59              		.loc 1 72 0
  60 0026 80F81C80 		strb	r8, [r0, #28]
  61              		.loc 1 73 0
  62 002a 4477     		strb	r4, [r0, #29]
  63              		.loc 1 79 0
  64 002c C463     		str	r4, [r0, #60]
  65              		.loc 1 82 0
  66 002e 8463     		str	r4, [r0, #56]
  67              		.loc 1 85 0
  68 0030 0462     		str	r4, [r0, #32]
  69              		.loc 1 91 0
  70 0032 8461     		str	r4, [r0, #24]
  71              		.loc 1 78 0
  72 0034 0164     		str	r1, [r0, #64]
  73              		.loc 1 92 0
  74 0036 5061     		str	r0, [r2, #20]
  75              		.loc 1 88 0
  76 0038 80F81EC0 		strb	ip, [r0, #30]
  77              		.loc 1 92 0
  78 003c 2861     		str	r0, [r5, #16]
  79              		.loc 1 95 0
  80 003e 8762     		str	r7, [r0, #40]
  81              		.loc 1 98 0
  82 0040 0663     		str	r6, [r0, #48]
  83 0042 C662     		str	r6, [r0, #44]
  84              		.loc 1 107 0
  85 0044 BDE8F001 		pop	{r4, r5, r6, r7, r8}
  86 0048 7047     		bx	lr
  87              		.cfi_endproc
  88              	.LFE7:
  89              		.size	_thread_init, .-_thread_init
  90 004a 00BF     		.section	.text.chThdCreateI,"ax",%progbits
  91              		.align	2
  92              		.global	chThdCreateI
  93              		.thumb
  94              		.thumb_func
  95              		.type	chThdCreateI, %function
  96              	chThdCreateI:
  97              	.LFB8:
  98              		.loc 1 151 0
  99              		.cfi_startproc
 100              		@ args = 4, pretend = 0, frame = 0
 101              		@ frame_needed = 0, uses_anonymous_args = 0
 102              		@ link register save eliminated.
 103              	.LVL1:
 104 0000 2DE9F00F 		push	{r4, r5, r6, r7, r8, r9, r10, fp}
 105              		.cfi_def_cfa_offset 32
 106              		.cfi_offset 4, -32
 107              		.cfi_offset 5, -28
 108              		.cfi_offset 6, -24
 109              		.cfi_offset 7, -20
 110              		.cfi_offset 8, -16
 111              		.cfi_offset 9, -12
 112              		.cfi_offset 10, -8
 113              		.cfi_offset 11, -4
 114              	.LBB16:
ARM GAS  /tmp/ccbNgWBe.s 			page 3


 115              	.LBB17:
 116              		.loc 1 92 0
 117 0004 40F20005 		movw	r5, #:lower16:rlist
 118 0008 C0F20005 		movt	r5, #:upper16:rlist
 119              	.LBE17:
 120              	.LBE16:
 121              		.loc 1 160 0
 122 000c A1F1240C 		sub	ip, r1, #36
 123              	.LVL2:
 124              	.LBB21:
 125              	.LBB18:
 126              		.loc 1 92 0
 127 0010 D5F814B0 		ldr	fp, [r5, #20]
 128              	.LBE18:
 129              	.LBE21:
 130              		.loc 1 160 0
 131 0014 00EB0C07 		add	r7, r0, ip
 132 0018 0899     		ldr	r1, [sp, #32]
 133              	.LVL3:
 134 001a 40F20006 		movw	r6, #:lower16:_port_thread_start
 135 001e C760     		str	r7, [r0, #12]
 136 0020 C0F20006 		movt	r6, #:upper16:_port_thread_start
 137 0024 40F80C30 		str	r3, [r0, ip]
 138              	.LBB22:
 139              	.LBB19:
 140              		.loc 1 72 0
 141 0028 4FF0020A 		mov	r10, #2
 142              		.loc 1 73 0
 143 002c 0023     		movs	r3, #0
 144              	.LVL4:
 145              		.loc 1 88 0
 146 002e 4FF00109 		mov	r9, #1
 147              		.loc 1 95 0
 148 0032 00F12808 		add	r8, r0, #40
 149              		.loc 1 98 0
 150 0036 00F12C0C 		add	ip, r0, #44
 151              	.LVL5:
 152              	.LBE19:
 153              	.LBE22:
 154              		.loc 1 160 0
 155 003a 7960     		str	r1, [r7, #4]
 156 003c 3E62     		str	r6, [r7, #32]
 157              	.LVL6:
 158              	.LBB23:
 159              	.LBB20:
 160              		.loc 1 92 0
 161 003e 0561     		str	r5, [r0, #16]
 162 0040 C0F814B0 		str	fp, [r0, #20]
 163              		.loc 1 71 0
 164 0044 8260     		str	r2, [r0, #8]
 165              		.loc 1 72 0
 166 0046 80F81CA0 		strb	r10, [r0, #28]
 167              	.LVL7:
 168              		.loc 1 88 0
 169 004a 80F81E90 		strb	r9, [r0, #30]
 170              		.loc 1 92 0
 171 004e 6861     		str	r0, [r5, #20]
ARM GAS  /tmp/ccbNgWBe.s 			page 4


 172              		.loc 1 78 0
 173 0050 0264     		str	r2, [r0, #64]
 174              		.loc 1 73 0
 175 0052 4377     		strb	r3, [r0, #29]
 176              		.loc 1 79 0
 177 0054 C363     		str	r3, [r0, #60]
 178              		.loc 1 82 0
 179 0056 8363     		str	r3, [r0, #56]
 180              		.loc 1 85 0
 181 0058 0362     		str	r3, [r0, #32]
 182              		.loc 1 91 0
 183 005a 8361     		str	r3, [r0, #24]
 184              		.loc 1 92 0
 185 005c CBF81000 		str	r0, [fp, #16]
 186              		.loc 1 95 0
 187 0060 C0F82880 		str	r8, [r0, #40]
 188              		.loc 1 98 0
 189 0064 C0F830C0 		str	ip, [r0, #48]
 190 0068 C0F82CC0 		str	ip, [r0, #44]
 191              	.LBE20:
 192              	.LBE23:
 193              		.loc 1 162 0
 194 006c BDE8F00F 		pop	{r4, r5, r6, r7, r8, r9, r10, fp}
 195              	.LVL8:
 196 0070 7047     		bx	lr
 197              		.cfi_endproc
 198              	.LFE8:
 199              		.size	chThdCreateI, .-chThdCreateI
 200 0072 00BF     		.section	.text.chThdCreateStatic,"ax",%progbits
 201              		.align	2
 202              		.global	chThdCreateStatic
 203              		.thumb
 204              		.thumb_func
 205              		.type	chThdCreateStatic, %function
 206              	chThdCreateStatic:
 207              	.LFB9:
 208              		.loc 1 181 0
 209              		.cfi_startproc
 210              		@ args = 4, pretend = 0, frame = 0
 211              		@ frame_needed = 0, uses_anonymous_args = 0
 212              	.LVL9:
 213 0000 2DE9F84F 		push	{r3, r4, r5, r6, r7, r8, r9, r10, fp, lr}
 214              		.cfi_def_cfa_offset 40
 215              		.cfi_offset 3, -40
 216              		.cfi_offset 4, -36
 217              		.cfi_offset 5, -32
 218              		.cfi_offset 6, -28
 219              		.cfi_offset 7, -24
 220              		.cfi_offset 8, -20
 221              		.cfi_offset 9, -16
 222              		.cfi_offset 10, -12
 223              		.cfi_offset 11, -8
 224              		.cfi_offset 14, -4
 225              		.loc 1 181 0
 226 0004 9C46     		mov	ip, r3
 227 0006 0446     		mov	r4, r0
 228              	.LBB24:
ARM GAS  /tmp/ccbNgWBe.s 			page 5


 229              		.loc 1 192 0
 230 0008 4023     		movs	r3, #64
 231              	.LVL10:
 232              	@ 192 "../../os/kernel/src/chthreads.c" 1
 233 000a 83F31188 		msr     BASEPRI, r3
 234              	@ 0 "" 2
 235              	.LVL11:
 236              		.thumb
 237              	.LBE24:
 238              	.LBB25:
 239              	.LBB26:
 240              	.LBB27:
 241              	.LBB28:
 242              		.loc 1 92 0
 243 000e 40F20006 		movw	r6, #:lower16:rlist
 244 0012 C0F20006 		movt	r6, #:upper16:rlist
 245 0016 D6F814E0 		ldr	lr, [r6, #20]
 246              	.LBE28:
 247              	.LBE27:
 248              		.loc 1 160 0
 249 001a A1F12400 		sub	r0, r1, #36
 250              	.LVL12:
 251 001e 0A9B     		ldr	r3, [sp, #40]
 252 0020 40F20001 		movw	r1, #:lower16:_port_thread_start
 253              	.LVL13:
 254              	.LBB34:
 255              	.LBB29:
 256              		.loc 1 73 0
 257 0024 0025     		movs	r5, #0
 258              	.LBE29:
 259              	.LBE34:
 260              		.loc 1 160 0
 261 0026 2718     		adds	r7, r4, r0
 262              	.LBB35:
 263              	.LBB30:
 264              		.loc 1 98 0
 265 0028 04F12C0B 		add	fp, r4, #44
 266              	.LBE30:
 267              	.LBE35:
 268              		.loc 1 160 0
 269 002c C0F20001 		movt	r1, #:upper16:_port_thread_start
 270              	.LBB36:
 271              	.LBB31:
 272              		.loc 1 72 0
 273 0030 4FF0020A 		mov	r10, #2
 274              		.loc 1 88 0
 275 0034 4FF00109 		mov	r9, #1
 276              		.loc 1 95 0
 277 0038 04F12808 		add	r8, r4, #40
 278              	.LBE31:
 279              	.LBE36:
 280              		.loc 1 160 0
 281 003c E760     		str	r7, [r4, #12]
 282 003e 44F800C0 		str	ip, [r4, r0]
 283 0042 7B60     		str	r3, [r7, #4]
 284 0044 3962     		str	r1, [r7, #32]
 285              	.LVL14:
ARM GAS  /tmp/ccbNgWBe.s 			page 6


 286              	.LBE26:
 287              	.LBE25:
 288              		.loc 1 193 0
 289 0046 2046     		mov	r0, r4
 290              	.LVL15:
 291              	.LBB41:
 292              	.LBB39:
 293              	.LBB37:
 294              	.LBB32:
 295              		.loc 1 71 0
 296 0048 A260     		str	r2, [r4, #8]
 297              		.loc 1 92 0
 298 004a 2661     		str	r6, [r4, #16]
 299 004c C4F814E0 		str	lr, [r4, #20]
 300              		.loc 1 78 0
 301 0050 2264     		str	r2, [r4, #64]
 302              		.loc 1 72 0
 303 0052 84F81CA0 		strb	r10, [r4, #28]
 304              		.loc 1 88 0
 305 0056 84F81E90 		strb	r9, [r4, #30]
 306              		.loc 1 73 0
 307 005a 6577     		strb	r5, [r4, #29]
 308              		.loc 1 92 0
 309 005c 7461     		str	r4, [r6, #20]
 310              		.loc 1 79 0
 311 005e E563     		str	r5, [r4, #60]
 312              		.loc 1 82 0
 313 0060 A563     		str	r5, [r4, #56]
 314              		.loc 1 85 0
 315 0062 2562     		str	r5, [r4, #32]
 316              		.loc 1 91 0
 317 0064 A561     		str	r5, [r4, #24]
 318              	.LBE32:
 319              	.LBE37:
 320              	.LBE39:
 321              	.LBE41:
 322              		.loc 1 193 0
 323 0066 2946     		mov	r1, r5
 324              	.LBB42:
 325              	.LBB40:
 326              	.LBB38:
 327              	.LBB33:
 328              		.loc 1 92 0
 329 0068 CEF81040 		str	r4, [lr, #16]
 330              		.loc 1 95 0
 331 006c C4F82880 		str	r8, [r4, #40]
 332              		.loc 1 98 0
 333 0070 C4F830B0 		str	fp, [r4, #48]
 334 0074 C4F82CB0 		str	fp, [r4, #44]
 335              	.LBE33:
 336              	.LBE38:
 337              	.LBE40:
 338              	.LBE42:
 339              		.loc 1 193 0
 340 0078 FFF7FEFF 		bl	chSchWakeupS
 341              	.LVL16:
 342              	.LBB43:
ARM GAS  /tmp/ccbNgWBe.s 			page 7


 343              		.loc 1 194 0
 344 007c 2B46     		mov	r3, r5
 345              	@ 194 "../../os/kernel/src/chthreads.c" 1
 346 007e 83F31188 		msr     BASEPRI, r3
 347              	@ 0 "" 2
 348              		.thumb
 349              	.LBE43:
 350              		.loc 1 196 0
 351 0082 2046     		mov	r0, r4
 352 0084 BDE8F88F 		pop	{r3, r4, r5, r6, r7, r8, r9, r10, fp, pc}
 353              		.cfi_endproc
 354              	.LFE9:
 355              		.size	chThdCreateStatic, .-chThdCreateStatic
 356              		.section	.text.chThdSetPriority,"ax",%progbits
 357              		.align	2
 358              		.global	chThdSetPriority
 359              		.thumb
 360              		.thumb_func
 361              		.type	chThdSetPriority, %function
 362              	chThdSetPriority:
 363              	.LFB10:
 364              		.loc 1 210 0
 365              		.cfi_startproc
 366              		@ args = 0, pretend = 0, frame = 0
 367              		@ frame_needed = 0, uses_anonymous_args = 0
 368              	.LVL17:
 369 0000 10B5     		push	{r4, lr}
 370              		.cfi_def_cfa_offset 8
 371              		.cfi_offset 4, -8
 372              		.cfi_offset 14, -4
 373              	.LBB44:
 374              		.loc 1 215 0
 375 0002 4023     		movs	r3, #64
 376              	@ 215 "../../os/kernel/src/chthreads.c" 1
 377 0004 83F31188 		msr     BASEPRI, r3
 378              	@ 0 "" 2
 379              		.thumb
 380              	.LBE44:
 381              		.loc 1 217 0
 382 0008 40F20003 		movw	r3, #:lower16:rlist
 383 000c C0F20003 		movt	r3, #:upper16:rlist
 384 0010 9B69     		ldr	r3, [r3, #24]
 385 0012 1C6C     		ldr	r4, [r3, #64]
 386              	.LVL18:
 387              		.loc 1 218 0
 388 0014 9968     		ldr	r1, [r3, #8]
 389 0016 8C42     		cmp	r4, r1
 390 0018 01D0     		beq	.L5
 391              		.loc 1 218 0 is_stmt 0 discriminator 1
 392 001a 8142     		cmp	r1, r0
 393 001c 00D2     		bcs	.L6
 394              	.L5:
 395              		.loc 1 219 0 is_stmt 1
 396 001e 9860     		str	r0, [r3, #8]
 397              	.L6:
 398              		.loc 1 220 0
 399 0020 1864     		str	r0, [r3, #64]
ARM GAS  /tmp/ccbNgWBe.s 			page 8


 400              		.loc 1 225 0
 401 0022 FFF7FEFF 		bl	chSchRescheduleS
 402              	.LVL19:
 403              	.LBB45:
 404              		.loc 1 226 0
 405 0026 0023     		movs	r3, #0
 406              	@ 226 "../../os/kernel/src/chthreads.c" 1
 407 0028 83F31188 		msr     BASEPRI, r3
 408              	@ 0 "" 2
 409              		.thumb
 410              	.LBE45:
 411              		.loc 1 228 0
 412 002c 2046     		mov	r0, r4
 413 002e 10BD     		pop	{r4, pc}
 414              		.cfi_endproc
 415              	.LFE10:
 416              		.size	chThdSetPriority, .-chThdSetPriority
 417              		.section	.text.chThdResume,"ax",%progbits
 418              		.align	2
 419              		.global	chThdResume
 420              		.thumb
 421              		.thumb_func
 422              		.type	chThdResume, %function
 423              	chThdResume:
 424              	.LFB11:
 425              		.loc 1 243 0
 426              		.cfi_startproc
 427              		@ args = 0, pretend = 0, frame = 0
 428              		@ frame_needed = 0, uses_anonymous_args = 0
 429              	.LVL20:
 430 0000 10B5     		push	{r4, lr}
 431              		.cfi_def_cfa_offset 8
 432              		.cfi_offset 4, -8
 433              		.cfi_offset 14, -4
 434              	.LBB46:
 435              		.loc 1 245 0
 436 0002 4023     		movs	r3, #64
 437              	.LBE46:
 438              		.loc 1 243 0
 439 0004 0446     		mov	r4, r0
 440              	.LBB47:
 441              		.loc 1 245 0
 442              	@ 245 "../../os/kernel/src/chthreads.c" 1
 443 0006 83F31188 		msr     BASEPRI, r3
 444              	@ 0 "" 2
 445              		.thumb
 446              	.LBE47:
 447              		.loc 1 249 0
 448 000a 0021     		movs	r1, #0
 449 000c FFF7FEFF 		bl	chSchWakeupS
 450              	.LVL21:
 451              	.LBB48:
 452              		.loc 1 250 0
 453 0010 0023     		movs	r3, #0
 454              	@ 250 "../../os/kernel/src/chthreads.c" 1
 455 0012 83F31188 		msr     BASEPRI, r3
 456              	@ 0 "" 2
ARM GAS  /tmp/ccbNgWBe.s 			page 9


 457              		.thumb
 458              	.LBE48:
 459              		.loc 1 252 0
 460 0016 2046     		mov	r0, r4
 461 0018 10BD     		pop	{r4, pc}
 462              		.cfi_endproc
 463              	.LFE11:
 464              		.size	chThdResume, .-chThdResume
 465 001a 00BF     		.section	.text.chThdTerminate,"ax",%progbits
 466              		.align	2
 467              		.global	chThdTerminate
 468              		.thumb
 469              		.thumb_func
 470              		.type	chThdTerminate, %function
 471              	chThdTerminate:
 472              	.LFB12:
 473              		.loc 1 266 0
 474              		.cfi_startproc
 475              		@ args = 0, pretend = 0, frame = 0
 476              		@ frame_needed = 0, uses_anonymous_args = 0
 477              		@ link register save eliminated.
 478              	.LVL22:
 479              	.LBB49:
 480              		.loc 1 268 0
 481 0000 4023     		movs	r3, #64
 482              	@ 268 "../../os/kernel/src/chthreads.c" 1
 483 0002 83F31188 		msr     BASEPRI, r3
 484              	@ 0 "" 2
 485              		.thumb
 486              	.LBE49:
 487              		.loc 1 269 0
 488 0006 427F     		ldrb	r2, [r0, #29]	@ zero_extendqisi2
 489              	.LBB50:
 490              		.loc 1 270 0
 491 0008 0023     		movs	r3, #0
 492              	.LBE50:
 493              		.loc 1 269 0
 494 000a 42F00402 		orr	r2, r2, #4
 495 000e 4277     		strb	r2, [r0, #29]
 496              	.LBB51:
 497              		.loc 1 270 0
 498              	@ 270 "../../os/kernel/src/chthreads.c" 1
 499 0010 83F31188 		msr     BASEPRI, r3
 500              	@ 0 "" 2
 501              		.thumb
 502 0014 7047     		bx	lr
 503              	.LBE51:
 504              		.cfi_endproc
 505              	.LFE12:
 506              		.size	chThdTerminate, .-chThdTerminate
 507 0016 00BF     		.section	.text.chThdSleep,"ax",%progbits
 508              		.align	2
 509              		.global	chThdSleep
 510              		.thumb
 511              		.thumb_func
 512              		.type	chThdSleep, %function
 513              	chThdSleep:
ARM GAS  /tmp/ccbNgWBe.s 			page 10


 514              	.LFB13:
 515              		.loc 1 285 0
 516              		.cfi_startproc
 517              		@ args = 0, pretend = 0, frame = 0
 518              		@ frame_needed = 0, uses_anonymous_args = 0
 519              	.LVL23:
 520 0000 08B5     		push	{r3, lr}
 521              		.cfi_def_cfa_offset 8
 522              		.cfi_offset 3, -8
 523              		.cfi_offset 14, -4
 524              		.loc 1 285 0
 525 0002 0146     		mov	r1, r0
 526              	.LBB52:
 527              		.loc 1 289 0
 528 0004 4023     		movs	r3, #64
 529              	@ 289 "../../os/kernel/src/chthreads.c" 1
 530 0006 83F31188 		msr     BASEPRI, r3
 531              	@ 0 "" 2
 532              		.thumb
 533              	.LBE52:
 534              		.loc 1 290 0
 535 000a 0620     		movs	r0, #6
 536              	.LVL24:
 537 000c FFF7FEFF 		bl	chSchGoSleepTimeoutS
 538              	.LVL25:
 539              	.LBB53:
 540              		.loc 1 291 0
 541 0010 0023     		movs	r3, #0
 542              	@ 291 "../../os/kernel/src/chthreads.c" 1
 543 0012 83F31188 		msr     BASEPRI, r3
 544              	@ 0 "" 2
 545              		.thumb
 546 0016 08BD     		pop	{r3, pc}
 547              	.LBE53:
 548              		.cfi_endproc
 549              	.LFE13:
 550              		.size	chThdSleep, .-chThdSleep
 551              		.section	.text.chThdSleepUntil,"ax",%progbits
 552              		.align	2
 553              		.global	chThdSleepUntil
 554              		.thumb
 555              		.thumb_func
 556              		.type	chThdSleepUntil, %function
 557              	chThdSleepUntil:
 558              	.LFB14:
 559              		.loc 1 302 0
 560              		.cfi_startproc
 561              		@ args = 0, pretend = 0, frame = 0
 562              		@ frame_needed = 0, uses_anonymous_args = 0
 563              	.LVL26:
 564 0000 08B5     		push	{r3, lr}
 565              		.cfi_def_cfa_offset 8
 566              		.cfi_offset 3, -8
 567              		.cfi_offset 14, -4
 568              	.LBB54:
 569              		.loc 1 304 0
 570 0002 4023     		movs	r3, #64
ARM GAS  /tmp/ccbNgWBe.s 			page 11


 571              	@ 304 "../../os/kernel/src/chthreads.c" 1
 572 0004 83F31188 		msr     BASEPRI, r3
 573              	@ 0 "" 2
 574              		.thumb
 575              	.LBE54:
 576              		.loc 1 305 0
 577 0008 40F20003 		movw	r3, #:lower16:vtlist
 578 000c C0F20003 		movt	r3, #:upper16:vtlist
 579 0010 D968     		ldr	r1, [r3, #12]
 580              	.LVL27:
 581 0012 411A     		subs	r1, r0, r1
 582              	.LVL28:
 583 0014 02D0     		beq	.L12
 584              		.loc 1 306 0
 585 0016 0620     		movs	r0, #6
 586 0018 FFF7FEFF 		bl	chSchGoSleepTimeoutS
 587              	.LVL29:
 588              	.L12:
 589              	.LBB55:
 590              		.loc 1 307 0
 591 001c 0023     		movs	r3, #0
 592              	@ 307 "../../os/kernel/src/chthreads.c" 1
 593 001e 83F31188 		msr     BASEPRI, r3
 594              	@ 0 "" 2
 595              		.thumb
 596 0022 08BD     		pop	{r3, pc}
 597              	.LBE55:
 598              		.cfi_endproc
 599              	.LFE14:
 600              		.size	chThdSleepUntil, .-chThdSleepUntil
 601              		.section	.text.chThdYield,"ax",%progbits
 602              		.align	2
 603              		.global	chThdYield
 604              		.thumb
 605              		.thumb_func
 606              		.type	chThdYield, %function
 607              	chThdYield:
 608              	.LFB15:
 609              		.loc 1 317 0
 610              		.cfi_startproc
 611              		@ args = 0, pretend = 0, frame = 0
 612              		@ frame_needed = 0, uses_anonymous_args = 0
 613 0000 08B5     		push	{r3, lr}
 614              		.cfi_def_cfa_offset 8
 615              		.cfi_offset 3, -8
 616              		.cfi_offset 14, -4
 617              	.LBB56:
 618              		.loc 1 319 0
 619 0002 4023     		movs	r3, #64
 620              	@ 319 "../../os/kernel/src/chthreads.c" 1
 621 0004 83F31188 		msr     BASEPRI, r3
 622              	@ 0 "" 2
 623              		.thumb
 624              	.LBE56:
 625              		.loc 1 320 0
 626 0008 40F20003 		movw	r3, #:lower16:rlist
 627 000c C0F20003 		movt	r3, #:upper16:rlist
ARM GAS  /tmp/ccbNgWBe.s 			page 12


 628 0010 1A68     		ldr	r2, [r3]
 629 0012 9B69     		ldr	r3, [r3, #24]
 630 0014 9268     		ldr	r2, [r2, #8]
 631 0016 9B68     		ldr	r3, [r3, #8]
 632 0018 9A42     		cmp	r2, r3
 633 001a 01D3     		bcc	.L17
 634              		.loc 1 320 0 is_stmt 0 discriminator 1
 635 001c FFF7FEFF 		bl	chSchDoRescheduleBehind
 636              	.LVL30:
 637              	.L17:
 638              	.LBB57:
 639              		.loc 1 321 0 is_stmt 1
 640 0020 0023     		movs	r3, #0
 641              	@ 321 "../../os/kernel/src/chthreads.c" 1
 642 0022 83F31188 		msr     BASEPRI, r3
 643              	@ 0 "" 2
 644              		.thumb
 645 0026 08BD     		pop	{r3, pc}
 646              	.LBE57:
 647              		.cfi_endproc
 648              	.LFE15:
 649              		.size	chThdYield, .-chThdYield
 650              		.section	.text.chThdExitS,"ax",%progbits
 651              		.align	2
 652              		.global	chThdExitS
 653              		.thumb
 654              		.thumb_func
 655              		.type	chThdExitS, %function
 656              	chThdExitS:
 657              	.LFB17:
 658              		.loc 1 359 0
 659              		.cfi_startproc
 660              		@ args = 0, pretend = 0, frame = 0
 661              		@ frame_needed = 0, uses_anonymous_args = 0
 662              	.LVL31:
 663 0000 38B5     		push	{r3, r4, r5, lr}
 664              		.cfi_def_cfa_offset 16
 665              		.cfi_offset 3, -16
 666              		.cfi_offset 4, -12
 667              		.cfi_offset 5, -8
 668              		.cfi_offset 14, -4
 669              		.loc 1 360 0
 670 0002 40F20003 		movw	r3, #:lower16:rlist
 671 0006 C0F20003 		movt	r3, #:upper16:rlist
 672 000a 9C69     		ldr	r4, [r3, #24]
 673              	.LVL32:
 674              		.loc 1 367 0
 675 000c 2546     		mov	r5, r4
 676 000e 55F8283F 		ldr	r3, [r5, #40]!
 677              		.loc 1 362 0
 678 0012 6062     		str	r0, [r4, #36]
 679              		.loc 1 367 0
 680 0014 AB42     		cmp	r3, r5
 681 0016 07D0     		beq	.L22
 682              	.LVL33:
 683              	.L23:
 684              	.LBB58:
ARM GAS  /tmp/ccbNgWBe.s 			page 13


 685              	.LBB59:
 686              		.file 2 "../../os/kernel/include/chinline.h"
 687              		.loc 2 82 0
 688 0018 1A68     		ldr	r2, [r3]
 689              	.LBE59:
 690              	.LBE58:
 691              		.loc 1 368 0
 692 001a 1846     		mov	r0, r3
 693              	.LBB61:
 694              	.LBB60:
 695              		.loc 2 82 0
 696 001c A262     		str	r2, [r4, #40]
 697              	.LBE60:
 698              	.LBE61:
 699              		.loc 1 368 0
 700 001e FFF7FEFF 		bl	chSchReadyI
 701              	.LVL34:
 702              		.loc 1 367 0
 703 0022 A36A     		ldr	r3, [r4, #40]
 704 0024 AB42     		cmp	r3, r5
 705 0026 F7D1     		bne	.L23
 706              	.LVL35:
 707              	.L22:
 708              		.loc 1 373 0
 709 0028 637F     		ldrb	r3, [r4, #29]	@ zero_extendqisi2
 710 002a 9B07     		lsls	r3, r3, #30
 711 002c 04D1     		bne	.L21
 712              		.loc 1 374 0
 713 002e 2269     		ldr	r2, [r4, #16]
 714 0030 6369     		ldr	r3, [r4, #20]
 715 0032 1A61     		str	r2, [r3, #16]
 716 0034 2269     		ldr	r2, [r4, #16]
 717 0036 5361     		str	r3, [r2, #20]
 718              	.L21:
 719              		.loc 1 376 0
 720 0038 0E20     		movs	r0, #14
 721              		.loc 1 379 0
 722 003a BDE83840 		pop	{r3, r4, r5, lr}
 723              	.LVL36:
 724              		.loc 1 376 0
 725 003e FFF7FEBF 		b	chSchGoSleepS
 726              	.LVL37:
 727              		.cfi_endproc
 728              	.LFE17:
 729              		.size	chThdExitS, .-chThdExitS
 730 0042 00BF     		.section	.text.chThdExit,"ax",%progbits
 731              		.align	2
 732              		.global	chThdExit
 733              		.thumb
 734              		.thumb_func
 735              		.type	chThdExit, %function
 736              	chThdExit:
 737              	.LFB16:
 738              		.loc 1 338 0
 739              		.cfi_startproc
 740              		@ args = 0, pretend = 0, frame = 0
 741              		@ frame_needed = 0, uses_anonymous_args = 0
ARM GAS  /tmp/ccbNgWBe.s 			page 14


 742              		@ link register save eliminated.
 743              	.LVL38:
 744              	.LBB62:
 745              		.loc 1 340 0
 746 0000 4023     		movs	r3, #64
 747              	@ 340 "../../os/kernel/src/chthreads.c" 1
 748 0002 83F31188 		msr     BASEPRI, r3
 749              	@ 0 "" 2
 750              		.thumb
 751              	.LBE62:
 752              		.loc 1 341 0
 753 0006 FFF7FEBF 		b	chThdExitS
 754              	.LVL39:
 755              		.cfi_endproc
 756              	.LFE16:
 757              		.size	chThdExit, .-chThdExit
 758 000a 00BF     		.section	.text.chThdWait,"ax",%progbits
 759              		.align	2
 760              		.global	chThdWait
 761              		.thumb
 762              		.thumb_func
 763              		.type	chThdWait, %function
 764              	chThdWait:
 765              	.LFB18:
 766              		.loc 1 413 0
 767              		.cfi_startproc
 768              		@ args = 0, pretend = 0, frame = 0
 769              		@ frame_needed = 0, uses_anonymous_args = 0
 770              	.LVL40:
 771 0000 38B5     		push	{r3, r4, r5, lr}
 772              		.cfi_def_cfa_offset 16
 773              		.cfi_offset 3, -16
 774              		.cfi_offset 4, -12
 775              		.cfi_offset 5, -8
 776              		.cfi_offset 14, -4
 777              		.loc 1 413 0
 778 0002 0446     		mov	r4, r0
 779              	.LBB63:
 780              		.loc 1 418 0
 781 0004 4023     		movs	r3, #64
 782              	@ 418 "../../os/kernel/src/chthreads.c" 1
 783 0006 83F31188 		msr     BASEPRI, r3
 784              	@ 0 "" 2
 785              		.thumb
 786              	.LBE63:
 787              		.loc 1 423 0
 788 000a 037F     		ldrb	r3, [r0, #28]	@ zero_extendqisi2
 789 000c 0E2B     		cmp	r3, #14
 790 000e 0AD0     		beq	.L26
 791              		.loc 1 424 0
 792 0010 40F20003 		movw	r3, #:lower16:rlist
 793 0014 C0F20003 		movt	r3, #:upper16:rlist
 794              	.LBB64:
 795              	.LBB65:
 796              		.loc 2 75 0
 797 0018 826A     		ldr	r2, [r0, #40]
 798              	.LBE65:
ARM GAS  /tmp/ccbNgWBe.s 			page 15


 799              	.LBE64:
 800              		.loc 1 424 0
 801 001a 9B69     		ldr	r3, [r3, #24]
 802              	.LVL41:
 803              		.loc 1 425 0
 804 001c 0720     		movs	r0, #7
 805              	.LVL42:
 806              	.LBB67:
 807              	.LBB66:
 808              		.loc 2 75 0
 809 001e 1A60     		str	r2, [r3]
 810              		.loc 2 76 0
 811 0020 A362     		str	r3, [r4, #40]
 812              	.LBE66:
 813              	.LBE67:
 814              		.loc 1 425 0
 815 0022 FFF7FEFF 		bl	chSchGoSleepS
 816              	.LVL43:
 817              	.L26:
 818              		.loc 1 427 0
 819 0026 656A     		ldr	r5, [r4, #36]
 820              	.LVL44:
 821              	.LBB68:
 822              		.loc 1 428 0
 823 0028 0023     		movs	r3, #0
 824              	@ 428 "../../os/kernel/src/chthreads.c" 1
 825 002a 83F31188 		msr     BASEPRI, r3
 826              	@ 0 "" 2
 827              		.thumb
 828              	.LBE68:
 829              		.loc 1 430 0
 830 002e 2046     		mov	r0, r4
 831 0030 FFF7FEFF 		bl	chThdRelease
 832              	.LVL45:
 833              		.loc 1 433 0
 834 0034 2846     		mov	r0, r5
 835 0036 38BD     		pop	{r3, r4, r5, pc}
 836              		.cfi_endproc
 837              	.LFE18:
 838              		.size	chThdWait, .-chThdWait
 839              		.text
 840              	.Letext0:
 841              		.file 3 "/home/daniofb/arm-cm3-eabi/lib/gcc/arm-cm3-eabi/4.8.1/include/stddef.h"
 842              		.file 4 "/home/daniofb/arm-cm3-eabi/arm-cm3-eabi/sys-include/stdint.h"
 843              		.file 5 "../../os/ports/GCC/ARMCMx/chtypes.h"
 844              		.file 6 "../../os/kernel/include/chlists.h"
 845              		.file 7 "../../os/kernel/include/chthreads.h"
 846              		.file 8 "../../os/ports/GCC/ARMCMx/chcore_v7m.h"
 847              		.file 9 "../../os/kernel/include/chvt.h"
 848              		.file 10 "../../os/kernel/include/chschd.h"
 849              		.file 11 "../../os/kernel/include/chmtx.h"
 850              		.file 12 "../../os/kernel/include/chdynamic.h"