ARM GAS  /tmp/ccbNgWBe.s 			page 1


   1              		.syntax unified
   2              		.cpu cortex-m3
   3              		.fpu softvfp
   4              		.eabi_attribute 20, 1
   5              		.eabi_attribute 21, 1
   6              		.eabi_attribute 23, 3
   7              		.eabi_attribute 24, 1
   8              		.eabi_attribute 25, 1
   9              		.eabi_attribute 26, 1
  10              		.eabi_attribute 30, 2
  11              		.eabi_attribute 34, 1
  12              		.eabi_attribute 18, 4
  13              		.thumb
  14              		.file	"chthreads.c"
  15              		.text
  16              	.Ltext0:
  17              		.cfi_sections	.debug_frame
  18              		.section	.text._thread_init,"ax",%progbits
  19              		.align	2
  20              		.global	_thread_init
  21              		.thumb
  22              		.thumb_func
  23              		.type	_thread_init, %function
  24              	_thread_init:
  25              	.LFB7:
  26              		.file 1 "../../os/kernel/src/chthreads.c"
  27              		.loc 1 69 0
  28              		.cfi_startproc
  29              		@ args = 0, pretend = 0, frame = 0
  30              		@ frame_needed = 0, uses_anonymous_args = 0
  31              		@ link register save eliminated.
  32              	.LVL0:
  33 0000 2DE9F001 		push	{r4, r5, r6, r7, r8}
  34              		.cfi_def_cfa_offset 20
  35              		.cfi_offset 4, -20
  36              		.cfi_offset 5, -16
  37              		.cfi_offset 6, -12
  38              		.cfi_offset 7, -8
  39              		.cfi_offset 8, -4
  40              		.loc 1 92 0
  41 0004 40F20002 		movw	r2, #:lower16:rlist
  42 0008 C0F20002 		movt	r2, #:upper16:rlist
  43 000c 5569     		ldr	r5, [r2, #20]
  44              		.loc 1 73 0
  45 000e 0024     		movs	r4, #0
  46              		.loc 1 98 0
  47 0010 00F12C06 		add	r6, r0, #44
  48              		.loc 1 72 0
  49 0014 4FF00208 		mov	r8, #2
  50              		.loc 1 95 0
  51 0018 00F12807 		add	r7, r0, #40
  52              		.loc 1 88 0
  53 001c 4FF0010C 		mov	ip, #1
  54              		.loc 1 92 0
  55 0020 4561     		str	r5, [r0, #20]
  56 0022 0261     		str	r2, [r0, #16]
  57              		.loc 1 71 0
ARM GAS  /tmp/ccbNgWBe.s 			page 2


  58 0024 8160     		str	r1, [r0, #8]
  59              		.loc 1 72 0
  60 0026 80F81C80 		strb	r8, [r0, #28]
  61              		.loc 1 73 0
  62 002a 4477     		strb	r4, [r0, #29]
  63              		.loc 1 79 0
  64 002c C463     		str	r4, [r0, #60]
  65              		.loc 1 82 0
  66 002e 8463     		str	r4, [r0, #56]
  67              		.loc 1 85 0
  68 0030 0462     		str	r4, [r0, #32]
  69              		.loc 1 91 0
  70 0032 8461     		str	r4, [r0, #24]
  71              		.loc 1 78 0
  72 0034 0164     		str	r1, [r0, #64]
  73              		.loc 1 92 0
  74 0036 5061     		str	r0, [r2, #20]
  75              		.loc 1 88 0
  76 0038 80F81EC0 		strb	ip, [r0, #30]
  77              		.loc 1 92 0
  78 003c 2861     		str	r0, [r5, #16]
  79              		.loc 1 95 0
  80 003e 8762     		str	r7, [r0, #40]
  81              		.loc 1 98 0
  82 0040 0663     		str	r6, [r0, #48]
  83 0042 C662     		str	r6, [r0, #44]
  84              		.loc 1 107 0
  85 0044 BDE8F001 		pop	{r4, r5, r6, r7, r8}
  86 0048 7047     		bx	lr
  87              		.cfi_endproc
  88              	.LFE7:
  89              		.size	_thread_init, .-_thread_init
  90 004a 00BF     		.section	.text.chThdCreateI,"ax",%progbits
  91              		.align	2
  92              		.global	chThdCreateI
  93              		.thumb
  94              		.thumb_func
  95              		.type	chThdCreateI, %function
  96              	chThdCreateI:
  97              	.LFB8:
  98              		.loc 1 151 0
  99              		.cfi_startproc
 100              		@ args = 4, pretend = 0, frame = 0
 101              		@ frame_needed = 0, uses_anonymous_args = 0
 102              		@ link register save eliminated.
 103              	.LVL1:
 104 0000 2DE9F00F 		push	{r4, r5, r6, r7, r8, r9, r10, fp}
 105              		.cfi_def_cfa_offset 32
 106              		.cfi_offset 4, -32
 107              		.cfi_offset 5, -28
 108              		.cfi_offset 6, -24
 109              		.cfi_offset 7, -20
 110              		.cfi_offset 8, -16
 111              		.cfi_offset 9, -12
 112              		.cfi_offset 10, -8
 113              		.cfi_offset 11, -4
 114              	.LBB16:
ARM GAS  /tmp/ccbNgWBe.s 			page 3


 115              	.LBB17:
 116              		.loc 1 92 0
 117 0004 40F20005 		movw	r5, #:lower16:rlist
 118 0008 C0F20005 		movt	r5, #:upper16:rlist
 119              	.LBE17:
 120              	.LBE16:
 121              		.loc 1 160 0
 122 000c A1F1240C 		sub	ip, r1, #36
 123              	.LVL2:
 124              	.LBB21:
 125              	.LBB18:
 126              		.loc 1 92 0
 127 0010 D5F814B0 		ldr	fp, [r5, #20]
 128              	.LBE18:
 129              	.LBE21:
 130              		.loc 1 160 0
 131 0014 00EB0C07 		add	r7, r0, ip
 132 0018 0899     		ldr	r1, [sp, #32]
 133              	.LVL3:
 134 001a 40F20006 		movw	r6, #:lower16:_port_thread_start
 135 001e C760     		str	r7, [r0, #12]
 136 0020 C0F20006 		movt	r6, #:upper16:_port_thread_start
 137 0024 40F80C30 		str	r3, [r0, ip]
 138              	.LBB22:
 139              	.LBB19:
 140              		.loc 1 72 0
 141 0028 4FF0020A 		mov	r10, #2
 142              		.loc 1 73 0
 143 002c 0023     		movs	r3, #0
 144              	.LVL4:
 145              		.loc 1 88 0
 146 002e 4FF00109 		mov	r9, #1
 147              		.loc 1 95 0
 148 0032 00F12808 		add	r8, r0, #40
 149              		.loc 1 98 0
 150 0036 00F12C0C 		add	ip, r0, #44
 151              	.LVL5:
 152              	.LBE19:
 153              	.LBE22:
 154              		.loc 1 160 0
 155 003a 7960     		str	r1, [r7, #4]
 156 003c 3E62     		str	r6, [r7, #32]
 157              	.LVL6:
 158              	.LBB23:
 159              	.LBB20:
 160              		.loc 1 92 0
 161 003e 0561     		str	r5, [r0, #16]
 162 0040 C0F814B0 		str	fp, [r0, #20]
 163              		.loc 1 71 0
 164 0044 8260     		str	r2, [r0, #8]
 165              		.loc 1 72 0
 166 0046 80F81CA0 		strb	r10, [r0, #28]
 167              	.LVL7:
 168              		.loc 1 88 0
 169 004a 80F81E90 		strb	r9, [r0, #30]
 170              		.loc 1 92 0
 171 004e 6861     		str	r0, [r5, #20]
ARM GAS  /tmp/ccbNgWBe.s 			page 4


 172              		.loc 1 78 0
 173 0050 0264     		str	r2, [r0, #64]
 174              		.loc 1 73 0
 175 0052 4377     		strb	r3, [r0, #29]
 176              		.loc 1 79 0
 177 0054 C363     		str	r3, [r0, #60]
 178              		.loc 1 82 0
 179 0056 8363     		str	r3, [r0, #56]
 180              		.loc 1 85 0
 181 0058 0362     		str	r3, [r0, #32]
 182              		.loc 1 91 0
 183 005a 8361     		str	r3, [r0, #24]
 184              		.loc 1 92 0
 185 005c CBF81000 		str	r0, [fp, #16]
 186              		.loc 1 95 0
 187 0060 C0F82880 		str	r8, [r0, #40]
 188              		.loc 1 98 0
 189 0064 C0F830C0 		str	ip, [r0, #48]
 190 0068 C0F82CC0 		str	ip, [r0, #44]
 191              	.LBE20:
 192              	.LBE23:
 193              		.loc 1 162 0
 194 006c BDE8F00F 		pop	{r4, r5, r6, r7, r8, r9, r10, fp}
 195              	.LVL8:
 196 0070 7047     		bx	lr
 197              		.cfi_endproc
 198              	.LFE8:
 199              		.size	chThdCreateI, .-chThdCreateI
 200 0072 00BF     		.section	.text.chThdCreateStatic,"ax",%progbits
 201              		.align	2
 202              		.global	chThdCreateStatic
 203              		.thumb
 204              		.thumb_func
 205              		.type	chThdCreateStatic, %function
 206              	chThdCreateStatic:
 207              	.LFB9:
 208              		.loc 1 181 0
 209              		.cfi_startproc
 210              		@ args = 4, pretend = 0, frame = 0
 211              		@ frame_needed = 0, uses_anonymous_args = 0
 212              	.LVL9:
 213 0000 2DE9F84F 		push	{r3, r4, r5, r6, r7, r8, r9, r10, fp, lr}
 214              		.cfi_def_cfa_offset 40
 215              		.cfi_offset 3, -40
 216              		.cfi_offset 4, -36
 217              		.cfi_offset 5, -32
 218              		.cfi_offset 6, -28
 219              		.cfi_offset 7, -24
 220              		.cfi_offset 8, -20
 221              		.cfi_offset 9, -16
 222              		.cfi_offset 10, -12
 223              		.cfi_offset 11, -8
 224              		.cfi_offset 14, -4
 225              		.loc 1 181 0
 226 0004 9C46     		mov	ip, r3
 227 0006 0446     		mov	r4, r0
 228              	.LBB24:
ARM GAS  /tmp/ccbNgWBe.s 			page 5


 229              		.loc 1 192 0
 230 0008 4023     		movs	r3, #64
 231              	.LVL10:
 232              	@ 192 "../../os/kernel/src/chthreads.c" 1
 233 000a 83F31188 		msr     BASEPRI, r3
 234              	@ 0 "" 2
 235              	.LVL11:
 236              		.thumb
 237              	.LBE24:
 238              	.LBB25:
 239              	.LBB26:
 240              	.LBB27:
 241              	.LBB28:
 242              		.loc 1 92 0
 243 000e 40F20006 		movw	r6, #:lower16:rlist
 244 0012 C0F20006 		movt	r6, #:upper16:rlist
 245 0016 D6F814E0 		ldr	lr, [r6, #20]
 246              	.LBE28:
 247              	.LBE27:
 248              		.loc 1 160 0
 249 001a A1F12400 		sub	r0, r1, #36
 250              	.LVL12:
 251 001e 0A9B     		ldr	r3, [sp, #40]
 252 0020 40F20001 		movw	r1, #:lower16:_port_thread_start
 253              	.LVL13:
 254              	.LBB34:
 255              	.LBB29:
 256              		.loc 1 73 0
 257 0024 0025     		movs	r5, #0
 258              	.LBE29:
 259              	.LBE34:
 260              		.loc 1 160 0
 261 0026 2718     		adds	r7, r4, r0
 262              	.LBB35:
 263              	.LBB30:
 264              		.loc 1 98 0
 265 0028 04F12C0B 		add	fp, r4, #44
 266              	.LBE30:
 267              	.LBE35:
 268              		.loc 1 160 0
 269 002c C0F20001 		movt	r1, #:upper16:_port_thread_start
 270              	.LBB36:
 271              	.LBB31:
 272              		.loc 1 72 0
 273 0030 4FF0020A 		mov	r10, #2
 274              		.loc 1 88 0
 275 0034 4FF00109 		mov	r9, #1
 276              		.loc 1 95 0
 277 0038 04F12808 		add	r8, r4, #40
 278              	.LBE31:
 279              	.LBE36:
 280              		.loc 1 160 0
 281 003c E760     		str	r7, [r4, #12]
 282 003e 44F800C0 		str	ip, [r4, r0]
 283 0042 7B60     		str	r3, [r7, #4]
 284 0044 3962     		str	r1, [r7, #32]
 285              	.LVL14:
ARM GAS  /tmp/ccbNgWBe.s 			page 6


 286              	.LBE26:
 287              	.LBE25:
 288              		.loc 1 193 0
 289 0046 2046     		mov	r0, r4
 290              	.LVL15:
 291              	.LBB41:
 292              	.LBB39:
 293              	.LBB37:
 294              	.LBB32:
 295              		.loc 1 71 0
 296 0048 A260     		str	r2, [r4, #8]
 297              		.loc 1 92 0
 298 004a 2661     		str	r6, [r4, #16]
 299 004c C4F814E0 		str	lr, [r4, #20]
 300              		.loc 1 78 0
 301 0050 2264     		str	r2, [r4, #64]
 302              		.loc 1 72 0
 303 0052 84F81CA0 		strb	r10, [r4, #28]
 304              		.loc 1 88 0
 305 0056 84F81E90 		strb	r9, [r4, #30]
 306              		.loc 1 73 0
 307 005a 6577     		strb	r5, [r4, #29]
 308              		.loc 1 92 0
 309 005c 7461     		str	r4, [r6, #20]
 310              		.loc 1 79 0
 311 005e E563     		str	r5, [r4, #60]
 312              		.loc 1 82 0
 313 0060 A563     		str	r5, [r4, #56]
 314              		.loc 1 85 0
 315 0062 2562     		str	r5, [r4, #32]
 316              		.loc 1 91 0
 317 0064 A561     		str	r5, [r4, #24]
 318              	.LBE32:
 319              	.LBE37:
 320              	.LBE39:
 321              	.LBE41:
 322              		.loc 1 193 0
 323 0066 2946     		mov	r1, r5
 324              	.LBB42:
 325              	.LBB40:
 326              	.LBB38:
 327              	.LBB33:
 328              		.loc 1 92 0
 329 0068 CEF81040 		str	r4, [lr, #16]
 330              		.loc 1 95 0
 331 006c C4F82880 		str	r8, [r4, #40]
 332              		.loc 1 98 0
 333 0070 C4F830B0 		str	fp, [r4, #48]
 334 0074 C4F82CB0 		str	fp, [r4, #44]
 335              	.LBE33:
 336              	.LBE38:
 337              	.LBE40:
 338              	.LBE42:
 339              		.loc 1 193 0
 340 0078 FFF7FEFF 		bl	chSchWakeupS
 341              	.LVL16:
 342              	.LBB43:
ARM GAS  /tmp/ccbNgWBe.s 			page 7


 343              		.loc 1 194 0
 344 007c 2B46     		mov	r3, r5
 345              	@ 194 "../../os/kernel/src/chthreads.c" 1
 346 007e 83F31188 		msr     BASEPRI, r3
 347              	@ 0 "" 2
 348              		.thumb
 349              	.LBE43:
 350              		.loc 1 196 0
 351 0082 2046     		mov	r0, r4
 352 0084 BDE8F88F 		pop	{r3, r4, r5, r6, r7, r8, r9, r10, fp, pc}
 353              		.cfi_endproc
 354              	.LFE9:
 355              		.size	chThdCreateStatic, .-chThdCreateStatic
 356              		.section	.text.chThdSetPriority,"ax",%progbits
 357              		.align	2
 358              		.global	chThdSetPriority
 359              		.thumb
 360              		.thumb_func
 361              		.type	chThdSetPriority, %function
 362              	chThdSetPriority:
 363              	.LFB10:
 364              		.loc 1 210 0
 365              		.cfi_startproc
 366              		@ args = 0, pretend = 0, frame = 0
 367              		@ frame_needed = 0, uses_anonymous_args = 0
 368              	.LVL17:
 369 0000 10B5     		push	{r4, lr}
 370              		.cfi_def_cfa_offset 8
 371              		.cfi_offset 4, -8
 372              		.cfi_offset 14, -4
 373              	.LBB44:
 374              		.loc 1 215 0
 375 0002 4023     		movs	r3, #64
 376              	@ 215 "../../os/kernel/src/chthreads.c" 1
 377 0004 83F31188 		msr     BASEPRI, r3
 378              	@ 0 "" 2
 379              		.thumb
 380              	.LBE44:
 381              		.loc 1 217 0
 382 0008 40F20003 		movw	r3, #:lower16:rlist
 383 000c C0F20003 		movt	r3, #:upper16:rlist
 384 0010 9B69     		ldr	r3, [r3, #24]
 385 0012 1C6C     		ldr	r4, [r3, #64]
 386              	.LVL18:
 387              		.loc 1 218 0
 388 0014 9968     		ldr	r1, [r3, #8]
 389 0016 8C42     		cmp	r4, r1
 390 0018 01D0     		beq	.L5
 391              		.loc 1 218 0 is_stmt 0 discriminator 1
 392 001a 8142     		cmp	r1, r0
 393 001c 00D2     		bcs	.L6
 394              	.L5:
 395              		.loc 1 219 0 is_stmt 1
 396 001e 9860     		str	r0, [r3, #8]
 397              	.L6:
 398              		.loc 1 220 0
 399 0020 1864     		str	r0, [r3, #64]
ARM GAS  /tmp/ccbNgWBe.s 			page 8


 400              		.loc 1 225 0
 401 0022 FFF7FEFF 		bl	chSchRescheduleS
 402              	.LVL19:
 403              	.LBB45:
 404              		.loc 1 226 0
 405 0026 0023     		movs	r3, #0
 406              	@ 226 "../../os/kernel/src/chthreads.c" 1
 407 0028 83F31188 		msr     BASEPRI, r3
 408              	@ 0 "" 2
 409              		.thumb
 410              	.LBE45:
 411              		.loc 1 228 0
 412 002c 2046     		mov	r0, r4
 413 002e 10BD     		pop	{r4, pc}
 414              		.cfi_endproc
 415              	.LFE10:
 416              		.size	chThdSetPriority, .-chThdSetPriority
 417              		.section	.text.chThdResume,"ax",%progbits
 418              		.align	2
 419              		.global	chThdResume
 420              		.thumb
 421              		.thumb_func
 422              		.type	chThdResume, %function
 423              	chThdResume:
 424              	.LFB11:
 425              		.loc 1 243 0
 426              		.cfi_startproc
 427              		@ args = 0, pretend = 0, frame = 0
 428              		@ frame_needed = 0, uses_anonymous_args = 0
 429              	.LVL20:
 430 0000 10B5     		push	{r4, lr}
 431              		.cfi_def_cfa_offset 8
 432              		.cfi_offset 4, -8
 433              		.cfi_offset 14, -4
 434              	.LBB46:
 435              		.loc 1 245 0
 436 0002 4023     		movs	r3, #64
 437              	.LBE46:
 438              		.loc 1 243 0
 439 0004 0446     		mov	r4, r0
 440              	.LBB47:
 441              		.loc 1 245 0
 442              	@ 245 "../../os/kernel/src/chthreads.c" 1
 443 0006 83F31188 		msr     BASEPRI, r3
 444              	@ 0 "" 2
 445              		.thumb
 446              	.LBE47:
 447              		.loc 1 249 0
 448 000a 0021     		movs	r1, #0
 449 000c FFF7FEFF 		bl	chSchWakeupS
 450              	.LVL21:
 451              	.LBB48:
 452              		.loc 1 250 0
 453 0010 0023     		movs	r3, #0
 454              	@ 250 "../../os/kernel/src/chthreads.c" 1
 455 0012 83F31188 		msr     BASEPRI, r3
 456              	@ 0 "" 2
ARM GAS  /tmp/ccbNgWBe.s 			page 9


 457              		.thumb
 458              	.LBE48:
 459              		.loc 1 252 0
 460 0016 2046     		mov	r0, r4
 461 0018 10BD     		pop	{r4, pc}
 462              		.cfi_endproc
 463              	.LFE11:
 464              		.size	chThdResume, .-chThdResume
 465 001a 00BF     		.section	.text.chThdTerminate,"ax",%progbits
 466              		.align	2
 467              		.global	chThdTerminate
 468              		.thumb
 469              		.thumb_func
 470              		.type	chThdTerminate, %function
 471              	chThdTerminate:
 472              	.LFB12:
 473              		.loc 1 266 0
 474              		.cfi_startproc
 475              		@ args = 0, pretend = 0, frame = 0
 476              		@ frame_needed = 0, uses_anonymous_args = 0
 477              		@ link register save eliminated.
 478              	.LVL22:
 479              	.LBB49:
 480              		.loc 1 268 0
 481 0000 4023     		movs	r3, #64
 482              	@ 268 "../../os/kernel/src/chthreads.c" 1
 483 0002 83F31188 		msr     BASEPRI, r3
 484              	@ 0 "" 2
 485              		.thumb
 486              	.LBE49:
 487              		.loc 1 269 0
 488 0006 427F     		ldrb	r2, [r0, #29]	@ zero_extendqisi2
 489              	.LBB50:
 490              		.loc 1 270 0
 491 0008 0023     		movs	r3, #0
 492              	.LBE50:
 493              		.loc 1 269 0
 494 000a 42F00402 		orr	r2, r2, #4
 495 000e 4277     		strb	r2, [r0, #29]
 496              	.LBB51:
 497              		.loc 1 270 0
 498              	@ 270 "../../os/kernel/src/chthreads.c" 1
 499 0010 83F31188 		msr     BASEPRI, r3
 500              	@ 0 "" 2
 501              		.thumb
 502 0014 7047     		bx	lr
 503              	.LBE51:
 504              		.cfi_endproc
 505              	.LFE12:
 506              		.size	chThdTerminate, .-chThdTerminate
 507 0016 00BF     		.section	.text.chThdSleep,"ax",%progbits
 508              		.align	2
 509              		.global	chThdSleep
 510              		.thumb
 511              		.thumb_func
 512              		.type	chThdSleep, %function
 513              	chThdSleep:
ARM GAS  /tmp/ccbNgWBe.s 			page 10


 514              	.LFB13:
 515              		.loc 1 285 0
 516              		.cfi_startproc
 517              		@ args = 0, pretend = 0, frame = 0
 518              		@ frame_needed = 0, uses_anonymous_args = 0
 519              	.LVL23:
 520 0000 08B5     		push	{r3, lr}
 521              		.cfi_def_cfa_offset 8
 522              		.cfi_offset 3, -8
 523              		.cfi_offset 14, -4
 524              		.loc 1 285 0
 525 0002 0146     		mov	r1, r0
 526              	.LBB52:
 527              		.loc 1 289 0
 528 0004 4023     		movs	r3, #64
 529              	@ 289 "../../os/kernel/src/chthreads.c" 1
 530 0006 83F31188 		msr     BASEPRI, r3
 531              	@ 0 "" 2
 532              		.thumb
 533              	.LBE52:
 534              		.loc 1 290 0
 535 000a 0620     		movs	r0, #6
 536              	.LVL24:
 537 000c FFF7FEFF 		bl	chSchGoSleepTimeoutS
 538              	.LVL25:
 539              	.LBB53:
 540              		.loc 1 291 0
 541 0010 0023     		movs	r3, #0
 542              	@ 291 "../../os/kernel/src/chthreads.c" 1
 543 0012 83F31188 		msr     BASEPRI, r3
 544              	@ 0 "" 2
 545              		.thumb
 546 0016 08BD     		pop	{r3, pc}
 547              	.LBE53:
 548              		.cfi_endproc
 549              	.LFE13:
 550              		.size	chThdSleep, .-chThdSleep
 551              		.section	.text.chThdSleepUntil,"ax",%progbits
 552              		.align	2
 553              		.global	chThdSleepUntil
 554              		.thumb
 555              		.thumb_func
 556              		.type	chThdSleepUntil, %function
 557              	chThdSleepUntil:
 558              	.LFB14:
 559              		.loc 1 302 0
 560              		.cfi_startproc
 561              		@ args = 0, pretend = 0, frame = 0
 562              		@ frame_needed = 0, uses_anonymous_args = 0
 563              	.LVL26:
 564 0000 08B5     		push	{r3, lr}
 565              		.cfi_def_cfa_offset 8
 566              		.cfi_offset 3, -8
 567              		.cfi_offset 14, -4
 568              	.LBB54:
 569              		.loc 1 304 0
 570 0002 4023     		movs	r3, #64
ARM GAS  /tmp/ccbNgWBe.s 			page 11


 571              	@ 304 "../../os/kernel/src/chthreads.c" 1
 572 0004 83F31188 		msr     BASEPRI, r3
 573              	@ 0 "" 2
 574              		.thumb
 575              	.LBE54:
 576              		.loc 1 305 0
 577 0008 40F20003 		movw	r3, #:lower16:vtlist
 578 000c C0F20003 		movt	r3, #:upper16:vtlist
 579 0010 D968     		ldr	r1, [r3, #12]
 580              	.LVL27:
 581 0012 411A     		subs	r1, r0, r1
 582              	.LVL28:
 583 0014 02D0     		beq	.L12
 584              		.loc 1 306 0
 585 0016 0620     		movs	r0, #6
 586 0018 FFF7FEFF 		bl	chSchGoSleepTimeoutS
 587              	.LVL29:
 588              	.L12:
 589              	.LBB55:
 590              		.loc 1 307 0
 591 001c 0023     		movs	r3, #0
 592              	@ 307 "../../os/kernel/src/chthreads.c" 1
 593 001e 83F31188 		msr     BASEPRI, r3
 594              	@ 0 "" 2
 595              		.thumb
 596 0022 08BD     		pop	{r3, pc}
 597              	.LBE55:
 598              		.cfi_endproc
 599              	.LFE14:
 600              		.size	chThdSleepUntil, .-chThdSleepUntil
 601              		.section	.text.chThdYield,"ax",%progbits
 602              		.align	2
 603              		.global	chThdYield
 604              		.thumb
 605              		.thumb_func
 606              		.type	chThdYield, %function
 607              	chThdYield:
 608              	.LFB15:
 609              		.loc 1 317 0
 610              		.cfi_startproc
 611              		@ args = 0, pretend = 0, frame = 0
 612              		@ frame_needed = 0, uses_anonymous_args = 0
 613 0000 08B5     		push	{r3, lr}
 614              		.cfi_def_cfa_offset 8
 615              		.cfi_offset 3, -8
 616              		.cfi_offset 14, -4
 617              	.LBB56:
 618              		.loc 1 319 0
 619 0002 4023     		movs	r3, #64
 620              	@ 319 "../../os/kernel/src/chthreads.c" 1
 621 0004 83F31188 		msr     BASEPRI, r3
 622              	@ 0 "" 2
 623              		.thumb
 624              	.LBE56:
 625              		.loc 1 320 0
 626 0008 40F20003 		movw	r3, #:lower16:rlist
 627 000c C0F20003 		movt	r3, #:upper16:rlist
ARM GAS  /tmp/ccbNgWBe.s 			page 12


 628 0010 1A68     		ldr	r2, [r3]
 629 0012 9B69     		ldr	r3, [r3, #24]
 630 0014 9268     		ldr	r2, [r2, #8]
 631 0016 9B68     		ldr	r3, [r3, #8]
 632 0018 9A42     		cmp	r2, r3
 633 001a 01D3     		bcc	.L17
 634              		.loc 1 320 0 is_stmt 0 discriminator 1
 635 001c FFF7FEFF 		bl	chSchDoRescheduleBehind
 636              	.LVL30:
 637              	.L17:
 638              	.LBB57:
 639              		.loc 1 321 0 is_stmt 1
 640 0020 0023     		movs	r3, #0
 641              	@ 321 "../../os/kernel/src/chthreads.c" 1
 642 0022 83F31188 		msr     BASEPRI, r3
 643              	@ 0 "" 2
 644              		.thumb
 645 0026 08BD     		pop	{r3, pc}
 646              	.LBE57:
 647              		.cfi_endproc
 648              	.LFE15:
 649              		.size	chThdYield, .-chThdYield
 650              		.section	.text.chThdExitS,"ax",%progbits
 651              		.align	2
 652              		.global	chThdExitS
 653              		.thumb
 654              		.thumb_func
 655              		.type	chThdExitS, %function
 656              	chThdExitS:
 657              	.LFB17:
 658              		.loc 1 359 0
 659              		.cfi_startproc
 660              		@ args = 0, pretend = 0, frame = 0
 661              		@ frame_needed = 0, uses_anonymous_args = 0
 662              	.LVL31:
 663 0000 38B5     		push	{r3, r4, r5, lr}
 664              		.cfi_def_cfa_offset 16
 665              		.cfi_offset 3, -16
 666              		.cfi_offset 4, -12
 667              		.cfi_offset 5, -8
 668              		.cfi_offset 14, -4
 669              		.loc 1 360 0
 670 0002 40F20003 		movw	r3, #:lower16:rlist
 671 0006 C0F20003 		movt	r3, #:upper16:rlist
 672 000a 9C69     		ldr	r4, [r3, #24]
 673              	.LVL32:
 674              		.loc 1 367 0
 675 000c 2546     		mov	r5, r4
 676 000e 55F8283F 		ldr	r3, [r5, #40]!
 677              		.loc 1 362 0
 678 0012 6062     		str	r0, [r4, #36]
 679              		.loc 1 367 0
 680 0014 AB42     		cmp	r3, r5
 681 0016 07D0     		beq	.L22
 682              	.LVL33:
 683              	.L23:
 684              	.LBB58:
ARM GAS  /tmp/ccbNgWBe.s 			page 13


 685              	.LBB59:
 686              		.file 2 "../../os/kernel/include/chinline.h"
 687              		.loc 2 82 0
 688 0018 1A68     		ldr	r2, [r3]
 689              	.LBE59:
 690              	.LBE58:
 691              		.loc 1 368 0
 692 001a 1846     		mov	r0, r3
 693              	.LBB61:
 694              	.LBB60:
 695              		.loc 2 82 0
 696 001c A262     		str	r2, [r4, #40]
 697              	.LBE60:
 698              	.LBE61:
 699              		.loc 1 368 0
 700 001e FFF7FEFF 		bl	chSchReadyI
 701              	.LVL34:
 702              		.loc 1 367 0
 703 0022 A36A     		ldr	r3, [r4, #40]
 704 0024 AB42     		cmp	r3, r5
 705 0026 F7D1     		bne	.L23
 706              	.LVL35:
 707              	.L22:
 708              		.loc 1 373 0
 709 0028 637F     		ldrb	r3, [r4, #29]	@ zero_extendqisi2
 710 002a 9B07     		lsls	r3, r3, #30
 711 002c 04D1     		bne	.L21
 712              		.loc 1 374 0
 713 002e 2269     		ldr	r2, [r4, #16]
 714 0030 6369     		ldr	r3, [r4, #20]
 715 0032 1A61     		str	r2, [r3, #16]
 716 0034 2269     		ldr	r2, [r4, #16]
 717 0036 5361     		str	r3, [r2, #20]
 718              	.L21:
 719              		.loc 1 376 0
 720 0038 0E20     		movs	r0, #14
 721              		.loc 1 379 0
 722 003a BDE83840 		pop	{r3, r4, r5, lr}
 723              	.LVL36:
 724              		.loc 1 376 0
 725 003e FFF7FEBF 		b	chSchGoSleepS
 726              	.LVL37:
 727              		.cfi_endproc
 728              	.LFE17:
 729              		.size	chThdExitS, .-chThdExitS
 730 0042 00BF     		.section	.text.chThdExit,"ax",%progbits
 731              		.align	2
 732              		.global	chThdExit
 733              		.thumb
 734              		.thumb_func
 735              		.type	chThdExit, %function
 736              	chThdExit:
 737              	.LFB16:
 738              		.loc 1 338 0
 739              		.cfi_startproc
 740              		@ args = 0, pretend = 0, frame = 0
 741              		@ frame_needed = 0, uses_anonymous_args = 0
ARM GAS  /tmp/ccbNgWBe.s 			page 14


 742              		@ link register save eliminated.
 743              	.LVL38:
 744              	.LBB62:
 745              		.loc 1 340 0
 746 0000 4023     		movs	r3, #64
 747              	@ 340 "../../os/kernel/src/chthreads.c" 1
 748 0002 83F31188 		msr     BASEPRI, r3
 749              	@ 0 "" 2
 750              		.thumb
 751              	.LBE62:
 752              		.loc 1 341 0
 753 0006 FFF7FEBF 		b	chThdExitS
 754              	.LVL39:
 755              		.cfi_endproc
 756              	.LFE16:
 757              		.size	chThdExit, .-chThdExit
 758 000a 00BF     		.section	.text.chThdWait,"ax",%progbits
 759              		.align	2
 760              		.global	chThdWait
 761              		.thumb
 762              		.thumb_func
 763              		.type	chThdWait, %function
 764              	chThdWait:
 765              	.LFB18:
 766              		.loc 1 413 0
 767              		.cfi_startproc
 768              		@ args = 0, pretend = 0, frame = 0
 769              		@ frame_needed = 0, uses_anonymous_args = 0
 770              	.LVL40:
 771 0000 38B5     		push	{r3, r4, r5, lr}
 772              		.cfi_def_cfa_offset 16
 773              		.cfi_offset 3, -16
 774              		.cfi_offset 4, -12
 775              		.cfi_offset 5, -8
 776              		.cfi_offset 14, -4
 777              		.loc 1 413 0
 778 0002 0446     		mov	r4, r0
 779              	.LBB63:
 780              		.loc 1 418 0
 781 0004 4023     		movs	r3, #64
 782              	@ 418 "../../os/kernel/src/chthreads.c" 1
 783 0006 83F31188 		msr     BASEPRI, r3
 784              	@ 0 "" 2
 785              		.thumb
 786              	.LBE63:
 787              		.loc 1 423 0
 788 000a 037F     		ldrb	r3, [r0, #28]	@ zero_extendqisi2
 789 000c 0E2B     		cmp	r3, #14
 790 000e 0AD0     		beq	.L26
 791              		.loc 1 424 0
 792 0010 40F20003 		movw	r3, #:lower16:rlist
 793 0014 C0F20003 		movt	r3, #:upper16:rlist
 794              	.LBB64:
 795              	.LBB65:
 796              		.loc 2 75 0
 797 0018 826A     		ldr	r2, [r0, #40]
 798              	.LBE65:
ARM GAS  /tmp/ccbNgWBe.s 			page 15


 799              	.LBE64:
 800              		.loc 1 424 0
 801 001a 9B69     		ldr	r3, [r3, #24]
 802              	.LVL41:
 803              		.loc 1 425 0
 804 001c 0720     		movs	r0, #7
 805              	.LVL42:
 806              	.LBB67:
 807              	.LBB66:
 808              		.loc 2 75 0
 809 001e 1A60     		str	r2, [r3]
 810              		.loc 2 76 0
 811 0020 A362     		str	r3, [r4, #40]
 812              	.LBE66:
 813              	.LBE67:
 814              		.loc 1 425 0
 815 0022 FFF7FEFF 		bl	chSchGoSleepS
 816              	.LVL43:
 817              	.L26:
 818              		.loc 1 427 0
 819 0026 656A     		ldr	r5, [r4, #36]
 820              	.LVL44:
 821              	.LBB68:
 822              		.loc 1 428 0
 823 0028 0023     		movs	r3, #0
 824              	@ 428 "../../os/kernel/src/chthreads.c" 1
 825 002a 83F31188 		msr     BASEPRI, r3
 826              	@ 0 "" 2
 827              		.thumb
 828              	.LBE68:
 829              		.loc 1 430 0
 830 002e 2046     		mov	r0, r4
 831 0030 FFF7FEFF 		bl	chThdRelease
 832              	.LVL45:
 833              		.loc 1 433 0
 834 0034 2846     		mov	r0, r5
 835 0036 38BD     		pop	{r3, r4, r5, pc}
 836              		.cfi_endproc
 837              	.LFE18:
 838              		.size	chThdWait, .-chThdWait
 839              		.text
 840              	.Letext0:
 841              		.file 3 "/home/daniofb/arm-cm3-eabi/lib/gcc/arm-cm3-eabi/4.8.1/include/stddef.h"
 842              		.file 4 "/home/daniofb/arm-cm3-eabi/arm-cm3-eabi/sys-include/stdint.h"
 843              		.file 5 "../../os/ports/GCC/ARMCMx/chtypes.h"
 844              		.file 6 "../../os/kernel/include/chlists.h"
 845              		.file 7 "../../os/kernel/include/chthreads.h"
 846              		.file 8 "../../os/ports/GCC/ARMCMx/chcore_v7m.h"
 847              		.file 9 "../../os/kernel/include/chvt.h"
 848              		.file 10 "../../os/kernel/include/chschd.h"
 849              		.file 11 "../../os/kernel/include/chmtx.h"
 850              		.file 12 "../../os/kernel/include/chdynamic.h"
 851              		.section	.debug_info,"",%progbits
 852              	.Ldebug_info0:
 853 0000 A50B0000 		.4byte	0xba5
 854 0004 0400     		.2byte	0x4
 855 0006 00000000 		.4byte	.Ldebug_abbrev0
ARM GAS  /tmp/ccbNgWBe.s 			page 16


 856 000a 04       		.byte	0x4
 857 000b 01       		.uleb128 0x1
 858 000c EB000000 		.4byte	.LASF97
 859 0010 01       		.byte	0x1
 860 0011 6D040000 		.4byte	.LASF98
 861 0015 95010000 		.4byte	.LASF99
 862 0019 E0000000 		.4byte	.Ldebug_ranges0+0xe0
 863 001d 00000000 		.4byte	0
 864 0021 00000000 		.4byte	.Ldebug_line0
 865 0025 02       		.uleb128 0x2
 866 0026 04       		.byte	0x4
 867 0027 05       		.byte	0x5
 868 0028 696E7400 		.ascii	"int\000"
 869 002c 03       		.uleb128 0x3
 870 002d 0E000000 		.4byte	.LASF2
 871 0031 03       		.byte	0x3
 872 0032 D4       		.byte	0xd4
 873 0033 37000000 		.4byte	0x37
 874 0037 04       		.uleb128 0x4
 875 0038 04       		.byte	0x4
 876 0039 07       		.byte	0x7
 877 003a D8010000 		.4byte	.LASF0
 878 003e 04       		.uleb128 0x4
 879 003f 01       		.byte	0x1
 880 0040 06       		.byte	0x6
 881 0041 68000000 		.4byte	.LASF1
 882 0045 03       		.uleb128 0x3
 883 0046 65040000 		.4byte	.LASF3
 884 004a 04       		.byte	0x4
 885 004b 2A       		.byte	0x2a
 886 004c 50000000 		.4byte	0x50
 887 0050 04       		.uleb128 0x4
 888 0051 01       		.byte	0x1
 889 0052 08       		.byte	0x8
 890 0053 39030000 		.4byte	.LASF4
 891 0057 04       		.uleb128 0x4
 892 0058 02       		.byte	0x2
 893 0059 05       		.byte	0x5
 894 005a 51030000 		.4byte	.LASF5
 895 005e 04       		.uleb128 0x4
 896 005f 02       		.byte	0x2
 897 0060 07       		.byte	0x7
 898 0061 0C020000 		.4byte	.LASF6
 899 0065 03       		.uleb128 0x3
 900 0066 31030000 		.4byte	.LASF7
 901 006a 04       		.byte	0x4
 902 006b 4F       		.byte	0x4f
 903 006c 70000000 		.4byte	0x70
 904 0070 04       		.uleb128 0x4
 905 0071 04       		.byte	0x4
 906 0072 05       		.byte	0x5
 907 0073 9B000000 		.4byte	.LASF8
 908 0077 03       		.uleb128 0x3
 909 0078 AD030000 		.4byte	.LASF9
 910 007c 04       		.byte	0x4
 911 007d 50       		.byte	0x50
 912 007e 82000000 		.4byte	0x82
ARM GAS  /tmp/ccbNgWBe.s 			page 17


 913 0082 04       		.uleb128 0x4
 914 0083 04       		.byte	0x4
 915 0084 07       		.byte	0x7
 916 0085 ED010000 		.4byte	.LASF10
 917 0089 04       		.uleb128 0x4
 918 008a 08       		.byte	0x8
 919 008b 05       		.byte	0x5
 920 008c 5A000000 		.4byte	.LASF11
 921 0090 04       		.uleb128 0x4
 922 0091 08       		.byte	0x8
 923 0092 07       		.byte	0x7
 924 0093 33000000 		.4byte	.LASF12
 925 0097 04       		.uleb128 0x4
 926 0098 01       		.byte	0x1
 927 0099 02       		.byte	0x2
 928 009a 2B030000 		.4byte	.LASF13
 929 009e 03       		.uleb128 0x3
 930 009f 3A020000 		.4byte	.LASF14
 931 00a3 05       		.byte	0x5
 932 00a4 25       		.byte	0x25
 933 00a5 45000000 		.4byte	0x45
 934 00a9 03       		.uleb128 0x3
 935 00aa A4000000 		.4byte	.LASF15
 936 00ae 05       		.byte	0x5
 937 00af 26       		.byte	0x26
 938 00b0 45000000 		.4byte	0x45
 939 00b4 03       		.uleb128 0x3
 940 00b5 14030000 		.4byte	.LASF16
 941 00b9 05       		.byte	0x5
 942 00ba 27       		.byte	0x27
 943 00bb 45000000 		.4byte	0x45
 944 00bf 03       		.uleb128 0x3
 945 00c0 23030000 		.4byte	.LASF17
 946 00c4 05       		.byte	0x5
 947 00c5 29       		.byte	0x29
 948 00c6 77000000 		.4byte	0x77
 949 00ca 03       		.uleb128 0x3
 950 00cb 2C020000 		.4byte	.LASF18
 951 00cf 05       		.byte	0x5
 952 00d0 2A       		.byte	0x2a
 953 00d1 65000000 		.4byte	0x65
 954 00d5 03       		.uleb128 0x3
 955 00d6 5D020000 		.4byte	.LASF19
 956 00da 05       		.byte	0x5
 957 00db 2C       		.byte	0x2c
 958 00dc 77000000 		.4byte	0x77
 959 00e0 03       		.uleb128 0x3
 960 00e1 F0030000 		.4byte	.LASF20
 961 00e5 05       		.byte	0x5
 962 00e6 2E       		.byte	0x2e
 963 00e7 77000000 		.4byte	0x77
 964 00eb 03       		.uleb128 0x3
 965 00ec 8D030000 		.4byte	.LASF21
 966 00f0 06       		.byte	0x6
 967 00f1 23       		.byte	0x23
 968 00f2 F6000000 		.4byte	0xf6
 969 00f6 05       		.uleb128 0x5
ARM GAS  /tmp/ccbNgWBe.s 			page 18


 970 00f7 8D030000 		.4byte	.LASF21
 971 00fb 48       		.byte	0x48
 972 00fc 07       		.byte	0x7
 973 00fd 57       		.byte	0x57
 974 00fe E7010000 		.4byte	0x1e7
 975 0102 06       		.uleb128 0x6
 976 0103 71030000 		.4byte	.LASF22
 977 0107 07       		.byte	0x7
 978 0108 58       		.byte	0x58
 979 0109 08020000 		.4byte	0x208
 980 010d 00       		.byte	0
 981 010e 06       		.uleb128 0x6
 982 010f 1C030000 		.4byte	.LASF23
 983 0113 07       		.byte	0x7
 984 0114 5A       		.byte	0x5a
 985 0115 08020000 		.4byte	0x208
 986 0119 04       		.byte	0x4
 987 011a 06       		.uleb128 0x6
 988 011b 53000000 		.4byte	.LASF24
 989 011f 07       		.byte	0x7
 990 0120 5C       		.byte	0x5c
 991 0121 BF000000 		.4byte	0xbf
 992 0125 08       		.byte	0x8
 993 0126 06       		.uleb128 0x6
 994 0127 CA040000 		.4byte	.LASF25
 995 012b 07       		.byte	0x7
 996 012c 5D       		.byte	0x5d
 997 012d C2020000 		.4byte	0x2c2
 998 0131 0C       		.byte	0xc
 999 0132 06       		.uleb128 0x6
 1000 0133 AD000000 		.4byte	.LASF26
 1001 0137 07       		.byte	0x7
 1002 0138 5F       		.byte	0x5f
 1003 0139 08020000 		.4byte	0x208
 1004 013d 10       		.byte	0x10
 1005 013e 06       		.uleb128 0x6
 1006 013f C6020000 		.4byte	.LASF27
 1007 0143 07       		.byte	0x7
 1008 0144 60       		.byte	0x60
 1009 0145 08020000 		.4byte	0x208
 1010 0149 14       		.byte	0x14
 1011 014a 06       		.uleb128 0x6
 1012 014b 94040000 		.4byte	.LASF28
 1013 014f 07       		.byte	0x7
 1014 0150 67       		.byte	0x67
 1015 0151 7C040000 		.4byte	0x47c
 1016 0155 18       		.byte	0x18
 1017 0156 06       		.uleb128 0x6
 1018 0157 5B030000 		.4byte	.LASF29
 1019 015b 07       		.byte	0x7
 1020 015c 72       		.byte	0x72
 1021 015d A9000000 		.4byte	0xa9
 1022 0161 1C       		.byte	0x1c
 1023 0162 06       		.uleb128 0x6
 1024 0163 78030000 		.4byte	.LASF30
 1025 0167 07       		.byte	0x7
 1026 0168 76       		.byte	0x76
ARM GAS  /tmp/ccbNgWBe.s 			page 19


 1027 0169 9E000000 		.4byte	0x9e
 1028 016d 1D       		.byte	0x1d
 1029 016e 06       		.uleb128 0x6
 1030 016f 4E040000 		.4byte	.LASF31
 1031 0173 07       		.byte	0x7
 1032 0174 7B       		.byte	0x7b
 1033 0175 B4000000 		.4byte	0xb4
 1034 0179 1E       		.byte	0x1e
 1035 017a 06       		.uleb128 0x6
 1036 017b 19040000 		.4byte	.LASF32
 1037 017f 07       		.byte	0x7
 1038 0180 88       		.byte	0x88
 1039 0181 99030000 		.4byte	0x399
 1040 0185 20       		.byte	0x20
 1041 0186 07       		.uleb128 0x7
 1042 0187 705F7500 		.ascii	"p_u\000"
 1043 018b 07       		.byte	0x7
 1044 018c AD       		.byte	0xad
 1045 018d 47040000 		.4byte	0x447
 1046 0191 24       		.byte	0x24
 1047 0192 06       		.uleb128 0x6
 1048 0193 D0040000 		.4byte	.LASF33
 1049 0197 07       		.byte	0x7
 1050 0198 B2       		.byte	0xb2
 1051 0199 2E020000 		.4byte	0x22e
 1052 019d 28       		.byte	0x28
 1053 019e 06       		.uleb128 0x6
 1054 019f 27040000 		.4byte	.LASF34
 1055 01a3 07       		.byte	0x7
 1056 01a4 B8       		.byte	0xb8
 1057 01a5 0E020000 		.4byte	0x20e
 1058 01a9 2C       		.byte	0x2c
 1059 01aa 06       		.uleb128 0x6
 1060 01ab 08000000 		.4byte	.LASF35
 1061 01af 07       		.byte	0x7
 1062 01b0 BC       		.byte	0xbc
 1063 01b1 CA000000 		.4byte	0xca
 1064 01b5 34       		.byte	0x34
 1065 01b6 06       		.uleb128 0x6
 1066 01b7 A2030000 		.4byte	.LASF36
 1067 01bb 07       		.byte	0x7
 1068 01bc C2       		.byte	0xc2
 1069 01bd D5000000 		.4byte	0xd5
 1070 01c1 38       		.byte	0x38
 1071 01c2 06       		.uleb128 0x6
 1072 01c3 47030000 		.4byte	.LASF37
 1073 01c7 07       		.byte	0x7
 1074 01c8 C9       		.byte	0xc9
 1075 01c9 8E040000 		.4byte	0x48e
 1076 01cd 3C       		.byte	0x3c
 1077 01ce 06       		.uleb128 0x6
 1078 01cf FA030000 		.4byte	.LASF38
 1079 01d3 07       		.byte	0x7
 1080 01d4 CD       		.byte	0xcd
 1081 01d5 BF000000 		.4byte	0xbf
 1082 01d9 40       		.byte	0x40
 1083 01da 06       		.uleb128 0x6
ARM GAS  /tmp/ccbNgWBe.s 			page 20


 1084 01db 7E000000 		.4byte	.LASF39
 1085 01df 07       		.byte	0x7
 1086 01e0 D3       		.byte	0xd3
 1087 01e1 44020000 		.4byte	0x244
 1088 01e5 44       		.byte	0x44
 1089 01e6 00       		.byte	0
 1090 01e7 08       		.uleb128 0x8
 1091 01e8 08       		.byte	0x8
 1092 01e9 06       		.byte	0x6
 1093 01ea 5A       		.byte	0x5a
 1094 01eb 08020000 		.4byte	0x208
 1095 01ef 06       		.uleb128 0x6
 1096 01f0 71030000 		.4byte	.LASF22
 1097 01f4 06       		.byte	0x6
 1098 01f5 5B       		.byte	0x5b
 1099 01f6 08020000 		.4byte	0x208
 1100 01fa 00       		.byte	0
 1101 01fb 06       		.uleb128 0x6
 1102 01fc 1C030000 		.4byte	.LASF23
 1103 0200 06       		.byte	0x6
 1104 0201 5D       		.byte	0x5d
 1105 0202 08020000 		.4byte	0x208
 1106 0206 04       		.byte	0x4
 1107 0207 00       		.byte	0
 1108 0208 09       		.uleb128 0x9
 1109 0209 04       		.byte	0x4
 1110 020a EB000000 		.4byte	0xeb
 1111 020e 03       		.uleb128 0x3
 1112 020f D4020000 		.4byte	.LASF40
 1113 0213 06       		.byte	0x6
 1114 0214 5F       		.byte	0x5f
 1115 0215 E7010000 		.4byte	0x1e7
 1116 0219 08       		.uleb128 0x8
 1117 021a 04       		.byte	0x4
 1118 021b 06       		.byte	0x6
 1119 021c 64       		.byte	0x64
 1120 021d 2E020000 		.4byte	0x22e
 1121 0221 06       		.uleb128 0x6
 1122 0222 71030000 		.4byte	.LASF22
 1123 0226 06       		.byte	0x6
 1124 0227 66       		.byte	0x66
 1125 0228 08020000 		.4byte	0x208
 1126 022c 00       		.byte	0
 1127 022d 00       		.byte	0
 1128 022e 03       		.uleb128 0x3
 1129 022f 51020000 		.4byte	.LASF41
 1130 0233 06       		.byte	0x6
 1131 0234 69       		.byte	0x69
 1132 0235 19020000 		.4byte	0x219
 1133 0239 03       		.uleb128 0x3
 1134 023a DA000000 		.4byte	.LASF42
 1135 023e 08       		.byte	0x8
 1136 023f DE       		.byte	0xde
 1137 0240 44020000 		.4byte	0x244
 1138 0244 0A       		.uleb128 0xa
 1139 0245 04       		.byte	0x4
 1140 0246 0B       		.uleb128 0xb
ARM GAS  /tmp/ccbNgWBe.s 			page 21


 1141 0247 20040000 		.4byte	.LASF43
 1142 024b 24       		.byte	0x24
 1143 024c 08       		.byte	0x8
 1144 024d 0501     		.2byte	0x105
 1145 024f C2020000 		.4byte	0x2c2
 1146 0253 0C       		.uleb128 0xc
 1147 0254 723400   		.ascii	"r4\000"
 1148 0257 08       		.byte	0x8
 1149 0258 1801     		.2byte	0x118
 1150 025a 39020000 		.4byte	0x239
 1151 025e 00       		.byte	0
 1152 025f 0C       		.uleb128 0xc
 1153 0260 723500   		.ascii	"r5\000"
 1154 0263 08       		.byte	0x8
 1155 0264 1901     		.2byte	0x119
 1156 0266 39020000 		.4byte	0x239
 1157 026a 04       		.byte	0x4
 1158 026b 0C       		.uleb128 0xc
 1159 026c 723600   		.ascii	"r6\000"
 1160 026f 08       		.byte	0x8
 1161 0270 1A01     		.2byte	0x11a
 1162 0272 39020000 		.4byte	0x239
 1163 0276 08       		.byte	0x8
 1164 0277 0C       		.uleb128 0xc
 1165 0278 723700   		.ascii	"r7\000"
 1166 027b 08       		.byte	0x8
 1167 027c 1B01     		.2byte	0x11b
 1168 027e 39020000 		.4byte	0x239
 1169 0282 0C       		.byte	0xc
 1170 0283 0C       		.uleb128 0xc
 1171 0284 723800   		.ascii	"r8\000"
 1172 0287 08       		.byte	0x8
 1173 0288 1C01     		.2byte	0x11c
 1174 028a 39020000 		.4byte	0x239
 1175 028e 10       		.byte	0x10
 1176 028f 0C       		.uleb128 0xc
 1177 0290 723900   		.ascii	"r9\000"
 1178 0293 08       		.byte	0x8
 1179 0294 1D01     		.2byte	0x11d
 1180 0296 39020000 		.4byte	0x239
 1181 029a 14       		.byte	0x14
 1182 029b 0C       		.uleb128 0xc
 1183 029c 72313000 		.ascii	"r10\000"
 1184 02a0 08       		.byte	0x8
 1185 02a1 1E01     		.2byte	0x11e
 1186 02a3 39020000 		.4byte	0x239
 1187 02a7 18       		.byte	0x18
 1188 02a8 0C       		.uleb128 0xc
 1189 02a9 72313100 		.ascii	"r11\000"
 1190 02ad 08       		.byte	0x8
 1191 02ae 1F01     		.2byte	0x11f
 1192 02b0 39020000 		.4byte	0x239
 1193 02b4 1C       		.byte	0x1c
 1194 02b5 0C       		.uleb128 0xc
 1195 02b6 6C7200   		.ascii	"lr\000"
 1196 02b9 08       		.byte	0x8
 1197 02ba 2001     		.2byte	0x120
ARM GAS  /tmp/ccbNgWBe.s 			page 22


 1198 02bc 39020000 		.4byte	0x239
 1199 02c0 20       		.byte	0x20
 1200 02c1 00       		.byte	0
 1201 02c2 0B       		.uleb128 0xb
 1202 02c3 FF010000 		.4byte	.LASF44
 1203 02c7 04       		.byte	0x4
 1204 02c8 08       		.byte	0x8
 1205 02c9 2A01     		.2byte	0x12a
 1206 02cb DD020000 		.4byte	0x2dd
 1207 02cf 0C       		.uleb128 0xc
 1208 02d0 72313300 		.ascii	"r13\000"
 1209 02d4 08       		.byte	0x8
 1210 02d5 2B01     		.2byte	0x12b
 1211 02d7 DD020000 		.4byte	0x2dd
 1212 02db 00       		.byte	0
 1213 02dc 00       		.byte	0
 1214 02dd 09       		.uleb128 0x9
 1215 02de 04       		.byte	0x4
 1216 02df 46020000 		.4byte	0x246
 1217 02e3 04       		.uleb128 0x4
 1218 02e4 04       		.byte	0x4
 1219 02e5 07       		.byte	0x7
 1220 02e6 91020000 		.4byte	.LASF45
 1221 02ea 03       		.uleb128 0x3
 1222 02eb 05040000 		.4byte	.LASF46
 1223 02ef 09       		.byte	0x9
 1224 02f0 51       		.byte	0x51
 1225 02f1 F5020000 		.4byte	0x2f5
 1226 02f5 09       		.uleb128 0x9
 1227 02f6 04       		.byte	0x4
 1228 02f7 FB020000 		.4byte	0x2fb
 1229 02fb 0D       		.uleb128 0xd
 1230 02fc 06030000 		.4byte	0x306
 1231 0300 0E       		.uleb128 0xe
 1232 0301 44020000 		.4byte	0x244
 1233 0305 00       		.byte	0
 1234 0306 03       		.uleb128 0x3
 1235 0307 CB030000 		.4byte	.LASF47
 1236 030b 09       		.byte	0x9
 1237 030c 56       		.byte	0x56
 1238 030d 11030000 		.4byte	0x311
 1239 0311 05       		.uleb128 0x5
 1240 0312 CB030000 		.4byte	.LASF47
 1241 0316 14       		.byte	0x14
 1242 0317 09       		.byte	0x9
 1243 0318 5D       		.byte	0x5d
 1244 0319 5A030000 		.4byte	0x35a
 1245 031d 06       		.uleb128 0x6
 1246 031e E5010000 		.4byte	.LASF48
 1247 0322 09       		.byte	0x9
 1248 0323 5E       		.byte	0x5e
 1249 0324 5A030000 		.4byte	0x35a
 1250 0328 00       		.byte	0
 1251 0329 06       		.uleb128 0x6
 1252 032a E3000000 		.4byte	.LASF49
 1253 032e 09       		.byte	0x9
 1254 032f 60       		.byte	0x60
ARM GAS  /tmp/ccbNgWBe.s 			page 23


 1255 0330 5A030000 		.4byte	0x35a
 1256 0334 04       		.byte	0x4
 1257 0335 06       		.uleb128 0x6
 1258 0336 89020000 		.4byte	.LASF50
 1259 033a 09       		.byte	0x9
 1260 033b 62       		.byte	0x62
 1261 033c E0000000 		.4byte	0xe0
 1262 0340 08       		.byte	0x8
 1263 0341 06       		.uleb128 0x6
 1264 0342 9A020000 		.4byte	.LASF51
 1265 0346 09       		.byte	0x9
 1266 0347 63       		.byte	0x63
 1267 0348 EA020000 		.4byte	0x2ea
 1268 034c 0C       		.byte	0xc
 1269 034d 06       		.uleb128 0x6
 1270 034e 3C040000 		.4byte	.LASF52
 1271 0352 09       		.byte	0x9
 1272 0353 65       		.byte	0x65
 1273 0354 44020000 		.4byte	0x244
 1274 0358 10       		.byte	0x10
 1275 0359 00       		.byte	0
 1276 035a 09       		.uleb128 0x9
 1277 035b 04       		.byte	0x4
 1278 035c 06030000 		.4byte	0x306
 1279 0360 08       		.uleb128 0x8
 1280 0361 10       		.byte	0x10
 1281 0362 09       		.byte	0x9
 1282 0363 6F       		.byte	0x6f
 1283 0364 99030000 		.4byte	0x399
 1284 0368 06       		.uleb128 0x6
 1285 0369 E5010000 		.4byte	.LASF48
 1286 036d 09       		.byte	0x9
 1287 036e 70       		.byte	0x70
 1288 036f 5A030000 		.4byte	0x35a
 1289 0373 00       		.byte	0
 1290 0374 06       		.uleb128 0x6
 1291 0375 E3000000 		.4byte	.LASF49
 1292 0379 09       		.byte	0x9
 1293 037a 72       		.byte	0x72
 1294 037b 5A030000 		.4byte	0x35a
 1295 037f 04       		.byte	0x4
 1296 0380 06       		.uleb128 0x6
 1297 0381 89020000 		.4byte	.LASF50
 1298 0385 09       		.byte	0x9
 1299 0386 74       		.byte	0x74
 1300 0387 E0000000 		.4byte	0xe0
 1301 038b 08       		.byte	0x8
 1302 038c 06       		.uleb128 0x6
 1303 038d 9B040000 		.4byte	.LASF53
 1304 0391 09       		.byte	0x9
 1305 0392 75       		.byte	0x75
 1306 0393 99030000 		.4byte	0x399
 1307 0397 0C       		.byte	0xc
 1308 0398 00       		.byte	0
 1309 0399 0F       		.uleb128 0xf
 1310 039a E0000000 		.4byte	0xe0
 1311 039e 03       		.uleb128 0x3
ARM GAS  /tmp/ccbNgWBe.s 			page 24


 1312 039f BB040000 		.4byte	.LASF54
 1313 03a3 09       		.byte	0x9
 1314 03a4 76       		.byte	0x76
 1315 03a5 60030000 		.4byte	0x360
 1316 03a9 08       		.uleb128 0x8
 1317 03aa 1C       		.byte	0x1c
 1318 03ab 0A       		.byte	0xa
 1319 03ac 57       		.byte	0x57
 1320 03ad FA030000 		.4byte	0x3fa
 1321 03b1 06       		.uleb128 0x6
 1322 03b2 C3030000 		.4byte	.LASF55
 1323 03b6 0A       		.byte	0xa
 1324 03b7 58       		.byte	0x58
 1325 03b8 0E020000 		.4byte	0x20e
 1326 03bc 00       		.byte	0
 1327 03bd 06       		.uleb128 0x6
 1328 03be 63030000 		.4byte	.LASF56
 1329 03c2 0A       		.byte	0xa
 1330 03c3 59       		.byte	0x59
 1331 03c4 BF000000 		.4byte	0xbf
 1332 03c8 08       		.byte	0x8
 1333 03c9 06       		.uleb128 0x6
 1334 03ca CE020000 		.4byte	.LASF57
 1335 03ce 0A       		.byte	0xa
 1336 03cf 5B       		.byte	0x5b
 1337 03d0 C2020000 		.4byte	0x2c2
 1338 03d4 0C       		.byte	0xc
 1339 03d5 06       		.uleb128 0x6
 1340 03d6 D2000000 		.4byte	.LASF58
 1341 03da 0A       		.byte	0xa
 1342 03db 5E       		.byte	0x5e
 1343 03dc 08020000 		.4byte	0x208
 1344 03e0 10       		.byte	0x10
 1345 03e1 06       		.uleb128 0x6
 1346 03e2 FC020000 		.4byte	.LASF59
 1347 03e6 0A       		.byte	0xa
 1348 03e7 5F       		.byte	0x5f
 1349 03e8 08020000 		.4byte	0x208
 1350 03ec 14       		.byte	0x14
 1351 03ed 06       		.uleb128 0x6
 1352 03ee F2020000 		.4byte	.LASF60
 1353 03f2 0A       		.byte	0xa
 1354 03f3 62       		.byte	0x62
 1355 03f4 08020000 		.4byte	0x208
 1356 03f8 18       		.byte	0x18
 1357 03f9 00       		.byte	0
 1358 03fa 03       		.uleb128 0x3
 1359 03fb 55040000 		.4byte	.LASF61
 1360 03ff 0A       		.byte	0xa
 1361 0400 64       		.byte	0x64
 1362 0401 A9030000 		.4byte	0x3a9
 1363 0405 05       		.uleb128 0x5
 1364 0406 69020000 		.4byte	.LASF62
 1365 040a 10       		.byte	0x10
 1366 040b 0B       		.byte	0xb
 1367 040c 25       		.byte	0x25
 1368 040d 36040000 		.4byte	0x436
ARM GAS  /tmp/ccbNgWBe.s 			page 25


 1369 0411 06       		.uleb128 0x6
 1370 0412 86000000 		.4byte	.LASF63
 1371 0416 0B       		.byte	0xb
 1372 0417 26       		.byte	0x26
 1373 0418 0E020000 		.4byte	0x20e
 1374 041c 00       		.byte	0
 1375 041d 06       		.uleb128 0x6
 1376 041e C2040000 		.4byte	.LASF64
 1377 0422 0B       		.byte	0xb
 1378 0423 28       		.byte	0x28
 1379 0424 08020000 		.4byte	0x208
 1380 0428 08       		.byte	0x8
 1381 0429 06       		.uleb128 0x6
 1382 042a E9030000 		.4byte	.LASF65
 1383 042e 0B       		.byte	0xb
 1384 042f 2A       		.byte	0x2a
 1385 0430 36040000 		.4byte	0x436
 1386 0434 0C       		.byte	0xc
 1387 0435 00       		.byte	0
 1388 0436 09       		.uleb128 0x9
 1389 0437 04       		.byte	0x4
 1390 0438 05040000 		.4byte	0x405
 1391 043c 03       		.uleb128 0x3
 1392 043d 69020000 		.4byte	.LASF62
 1393 0441 0B       		.byte	0xb
 1394 0442 2C       		.byte	0x2c
 1395 0443 05040000 		.4byte	0x405
 1396 0447 10       		.uleb128 0x10
 1397 0448 04       		.byte	0x4
 1398 0449 07       		.byte	0x7
 1399 044a 8F       		.byte	0x8f
 1400 044b 7C040000 		.4byte	0x47c
 1401 044f 11       		.uleb128 0x11
 1402 0450 1A000000 		.4byte	.LASF66
 1403 0454 07       		.byte	0x7
 1404 0455 96       		.byte	0x96
 1405 0456 CA000000 		.4byte	0xca
 1406 045a 11       		.uleb128 0x11
 1407 045b 4A000000 		.4byte	.LASF67
 1408 045f 07       		.byte	0x7
 1409 0460 9D       		.byte	0x9d
 1410 0461 CA000000 		.4byte	0xca
 1411 0465 11       		.uleb128 0x11
 1412 0466 8D040000 		.4byte	.LASF68
 1413 046a 07       		.byte	0x7
 1414 046b A4       		.byte	0xa4
 1415 046c 44020000 		.4byte	0x244
 1416 0470 11       		.uleb128 0x11
 1417 0471 6A030000 		.4byte	.LASF69
 1418 0475 07       		.byte	0x7
 1419 0476 AB       		.byte	0xab
 1420 0477 D5000000 		.4byte	0xd5
 1421 047b 00       		.byte	0
 1422 047c 09       		.uleb128 0x9
 1423 047d 04       		.byte	0x4
 1424 047e 82040000 		.4byte	0x482
 1425 0482 12       		.uleb128 0x12
ARM GAS  /tmp/ccbNgWBe.s 			page 26


 1426 0483 87040000 		.4byte	0x487
 1427 0487 04       		.uleb128 0x4
 1428 0488 01       		.byte	0x1
 1429 0489 08       		.byte	0x8
 1430 048a D8030000 		.4byte	.LASF70
 1431 048e 09       		.uleb128 0x9
 1432 048f 04       		.byte	0x4
 1433 0490 3C040000 		.4byte	0x43c
 1434 0494 03       		.uleb128 0x3
 1435 0495 00000000 		.4byte	.LASF71
 1436 0499 07       		.byte	0x7
 1437 049a DE       		.byte	0xde
 1438 049b 9F040000 		.4byte	0x49f
 1439 049f 09       		.uleb128 0x9
 1440 04a0 04       		.byte	0x4
 1441 04a1 A5040000 		.4byte	0x4a5
 1442 04a5 13       		.uleb128 0x13
 1443 04a6 CA000000 		.4byte	0xca
 1444 04aa B4040000 		.4byte	0x4b4
 1445 04ae 0E       		.uleb128 0xe
 1446 04af 44020000 		.4byte	0x244
 1447 04b3 00       		.byte	0
 1448 04b4 14       		.uleb128 0x14
 1449 04b5 B6030000 		.4byte	.LASF73
 1450 04b9 01       		.byte	0x1
 1451 04ba 45       		.byte	0x45
 1452 04bb 08020000 		.4byte	0x208
 1453 04bf 01       		.byte	0x1
 1454 04c0 DA040000 		.4byte	0x4da
 1455 04c4 15       		.uleb128 0x15
 1456 04c5 747000   		.ascii	"tp\000"
 1457 04c8 01       		.byte	0x1
 1458 04c9 45       		.byte	0x45
 1459 04ca 08020000 		.4byte	0x208
 1460 04ce 16       		.uleb128 0x16
 1461 04cf 15000000 		.4byte	.LASF72
 1462 04d3 01       		.byte	0x1
 1463 04d4 45       		.byte	0x45
 1464 04d5 BF000000 		.4byte	0xbf
 1465 04d9 00       		.byte	0
 1466 04da 14       		.uleb128 0x14
 1467 04db 8E000000 		.4byte	.LASF74
 1468 04df 01       		.byte	0x1
 1469 04e0 96       		.byte	0x96
 1470 04e1 08020000 		.4byte	0x208
 1471 04e5 01       		.byte	0x1
 1472 04e6 2B050000 		.4byte	0x52b
 1473 04ea 15       		.uleb128 0x15
 1474 04eb 77737000 		.ascii	"wsp\000"
 1475 04ef 01       		.byte	0x1
 1476 04f0 96       		.byte	0x96
 1477 04f1 44020000 		.4byte	0x244
 1478 04f5 16       		.uleb128 0x16
 1479 04f6 07020000 		.4byte	.LASF75
 1480 04fa 01       		.byte	0x1
 1481 04fb 96       		.byte	0x96
 1482 04fc 2C000000 		.4byte	0x2c
ARM GAS  /tmp/ccbNgWBe.s 			page 27


 1483 0500 16       		.uleb128 0x16
 1484 0501 15000000 		.4byte	.LASF72
 1485 0505 01       		.byte	0x1
 1486 0506 97       		.byte	0x97
 1487 0507 BF000000 		.4byte	0xbf
 1488 050b 15       		.uleb128 0x15
 1489 050c 706600   		.ascii	"pf\000"
 1490 050f 01       		.byte	0x1
 1491 0510 97       		.byte	0x97
 1492 0511 94040000 		.4byte	0x494
 1493 0515 15       		.uleb128 0x15
 1494 0516 61726700 		.ascii	"arg\000"
 1495 051a 01       		.byte	0x1
 1496 051b 97       		.byte	0x97
 1497 051c 44020000 		.4byte	0x244
 1498 0520 17       		.uleb128 0x17
 1499 0521 747000   		.ascii	"tp\000"
 1500 0524 01       		.byte	0x1
 1501 0525 99       		.byte	0x99
 1502 0526 08020000 		.4byte	0x208
 1503 052a 00       		.byte	0
 1504 052b 18       		.uleb128 0x18
 1505 052c B5000000 		.4byte	.LASF100
 1506 0530 02       		.byte	0x2
 1507 0531 4F       		.byte	0x4f
 1508 0532 08020000 		.4byte	0x208
 1509 0536 03       		.byte	0x3
 1510 0537 51050000 		.4byte	0x551
 1511 053b 15       		.uleb128 0x15
 1512 053c 746C7000 		.ascii	"tlp\000"
 1513 0540 02       		.byte	0x2
 1514 0541 4F       		.byte	0x4f
 1515 0542 51050000 		.4byte	0x551
 1516 0546 17       		.uleb128 0x17
 1517 0547 747000   		.ascii	"tp\000"
 1518 054a 02       		.byte	0x2
 1519 054b 51       		.byte	0x51
 1520 054c 08020000 		.4byte	0x208
 1521 0550 00       		.byte	0
 1522 0551 09       		.uleb128 0x9
 1523 0552 04       		.byte	0x4
 1524 0553 2E020000 		.4byte	0x22e
 1525 0557 19       		.uleb128 0x19
 1526 0558 E6020000 		.4byte	.LASF101
 1527 055c 02       		.byte	0x2
 1528 055d 49       		.byte	0x49
 1529 055e 03       		.byte	0x3
 1530 055f 79050000 		.4byte	0x579
 1531 0563 15       		.uleb128 0x15
 1532 0564 747000   		.ascii	"tp\000"
 1533 0567 02       		.byte	0x2
 1534 0568 49       		.byte	0x49
 1535 0569 08020000 		.4byte	0x208
 1536 056d 15       		.uleb128 0x15
 1537 056e 746C7000 		.ascii	"tlp\000"
 1538 0572 02       		.byte	0x2
 1539 0573 49       		.byte	0x49
ARM GAS  /tmp/ccbNgWBe.s 			page 28


 1540 0574 51050000 		.4byte	0x551
 1541 0578 00       		.byte	0
 1542 0579 1A       		.uleb128 0x1a
 1543 057a B4040000 		.4byte	0x4b4
 1544 057e 00000000 		.4byte	.LFB7
 1545 0582 4A000000 		.4byte	.LFE7-.LFB7
 1546 0586 01       		.uleb128 0x1
 1547 0587 9C       		.byte	0x9c
 1548 0588 9B050000 		.4byte	0x59b
 1549 058c 1B       		.uleb128 0x1b
 1550 058d C4040000 		.4byte	0x4c4
 1551 0591 01       		.uleb128 0x1
 1552 0592 50       		.byte	0x50
 1553 0593 1B       		.uleb128 0x1b
 1554 0594 CE040000 		.4byte	0x4ce
 1555 0598 01       		.uleb128 0x1
 1556 0599 51       		.byte	0x51
 1557 059a 00       		.byte	0
 1558 059b 1A       		.uleb128 0x1a
 1559 059c DA040000 		.4byte	0x4da
 1560 05a0 00000000 		.4byte	.LFB8
 1561 05a4 72000000 		.4byte	.LFE8-.LFB8
 1562 05a8 01       		.uleb128 0x1
 1563 05a9 9C       		.byte	0x9c
 1564 05aa FD050000 		.4byte	0x5fd
 1565 05ae 1B       		.uleb128 0x1b
 1566 05af EA040000 		.4byte	0x4ea
 1567 05b3 01       		.uleb128 0x1
 1568 05b4 50       		.byte	0x50
 1569 05b5 1C       		.uleb128 0x1c
 1570 05b6 F5040000 		.4byte	0x4f5
 1571 05ba 00000000 		.4byte	.LLST0
 1572 05be 1B       		.uleb128 0x1b
 1573 05bf 00050000 		.4byte	0x500
 1574 05c3 01       		.uleb128 0x1
 1575 05c4 52       		.byte	0x52
 1576 05c5 1C       		.uleb128 0x1c
 1577 05c6 0B050000 		.4byte	0x50b
 1578 05ca 2E000000 		.4byte	.LLST1
 1579 05ce 1C       		.uleb128 0x1c
 1580 05cf 15050000 		.4byte	0x515
 1581 05d3 5B000000 		.4byte	.LLST2
 1582 05d7 1D       		.uleb128 0x1d
 1583 05d8 20050000 		.4byte	0x520
 1584 05dc 01       		.uleb128 0x1
 1585 05dd 50       		.byte	0x50
 1586 05de 1E       		.uleb128 0x1e
 1587 05df B4040000 		.4byte	0x4b4
 1588 05e3 04000000 		.4byte	.LBB16
 1589 05e7 00000000 		.4byte	.Ldebug_ranges0+0
 1590 05eb 01       		.byte	0x1
 1591 05ec A1       		.byte	0xa1
 1592 05ed 1B       		.uleb128 0x1b
 1593 05ee CE040000 		.4byte	0x4ce
 1594 05f2 01       		.uleb128 0x1
 1595 05f3 52       		.byte	0x52
 1596 05f4 1B       		.uleb128 0x1b
ARM GAS  /tmp/ccbNgWBe.s 			page 29


 1597 05f5 C4040000 		.4byte	0x4c4
 1598 05f9 01       		.uleb128 0x1
 1599 05fa 50       		.byte	0x50
 1600 05fb 00       		.byte	0
 1601 05fc 00       		.byte	0
 1602 05fd 1F       		.uleb128 0x1f
 1603 05fe 77020000 		.4byte	.LASF76
 1604 0602 01       		.byte	0x1
 1605 0603 B4       		.byte	0xb4
 1606 0604 08020000 		.4byte	0x208
 1607 0608 00000000 		.4byte	.LFB9
 1608 060c 88000000 		.4byte	.LFE9-.LFB9
 1609 0610 01       		.uleb128 0x1
 1610 0611 9C       		.byte	0x9c
 1611 0612 25070000 		.4byte	0x725
 1612 0616 20       		.uleb128 0x20
 1613 0617 77737000 		.ascii	"wsp\000"
 1614 061b 01       		.byte	0x1
 1615 061c B4       		.byte	0xb4
 1616 061d 44020000 		.4byte	0x244
 1617 0621 7B000000 		.4byte	.LLST3
 1618 0625 21       		.uleb128 0x21
 1619 0626 07020000 		.4byte	.LASF75
 1620 062a 01       		.byte	0x1
 1621 062b B4       		.byte	0xb4
 1622 062c 2C000000 		.4byte	0x2c
 1623 0630 99000000 		.4byte	.LLST4
 1624 0634 21       		.uleb128 0x21
 1625 0635 15000000 		.4byte	.LASF72
 1626 0639 01       		.byte	0x1
 1627 063a B5       		.byte	0xb5
 1628 063b BF000000 		.4byte	0xbf
 1629 063f C7000000 		.4byte	.LLST5
 1630 0643 20       		.uleb128 0x20
 1631 0644 706600   		.ascii	"pf\000"
 1632 0647 01       		.byte	0x1
 1633 0648 B5       		.byte	0xb5
 1634 0649 94040000 		.4byte	0x494
 1635 064d E8000000 		.4byte	.LLST6
 1636 0651 22       		.uleb128 0x22
 1637 0652 61726700 		.ascii	"arg\000"
 1638 0656 01       		.byte	0x1
 1639 0657 B5       		.byte	0xb5
 1640 0658 44020000 		.4byte	0x244
 1641 065c 02       		.uleb128 0x2
 1642 065d 91       		.byte	0x91
 1643 065e 00       		.sleb128 0
 1644 065f 17       		.uleb128 0x17
 1645 0660 747000   		.ascii	"tp\000"
 1646 0663 01       		.byte	0x1
 1647 0664 B6       		.byte	0xb6
 1648 0665 08020000 		.4byte	0x208
 1649 0669 23       		.uleb128 0x23
 1650 066a 08000000 		.4byte	.LBB24
 1651 066e 06000000 		.4byte	.LBE24-.LBB24
 1652 0672 84060000 		.4byte	0x684
 1653 0676 24       		.uleb128 0x24
ARM GAS  /tmp/ccbNgWBe.s 			page 30


 1654 0677 746D7000 		.ascii	"tmp\000"
 1655 067b 01       		.byte	0x1
 1656 067c C0       		.byte	0xc0
 1657 067d 77000000 		.4byte	0x77
 1658 0681 01       		.uleb128 0x1
 1659 0682 53       		.byte	0x53
 1660 0683 00       		.byte	0
 1661 0684 25       		.uleb128 0x25
 1662 0685 DA040000 		.4byte	0x4da
 1663 0689 0E000000 		.4byte	.LBB25
 1664 068d 28000000 		.4byte	.Ldebug_ranges0+0x28
 1665 0691 01       		.byte	0x1
 1666 0692 C1       		.byte	0xc1
 1667 0693 F3060000 		.4byte	0x6f3
 1668 0697 1B       		.uleb128 0x1b
 1669 0698 15050000 		.4byte	0x515
 1670 069c 02       		.uleb128 0x2
 1671 069d 91       		.byte	0x91
 1672 069e 00       		.sleb128 0
 1673 069f 1C       		.uleb128 0x1c
 1674 06a0 0B050000 		.4byte	0x50b
 1675 06a4 14010000 		.4byte	.LLST7
 1676 06a8 1C       		.uleb128 0x1c
 1677 06a9 00050000 		.4byte	0x500
 1678 06ad 35010000 		.4byte	.LLST8
 1679 06b1 1C       		.uleb128 0x1c
 1680 06b2 F5040000 		.4byte	0x4f5
 1681 06b6 56010000 		.4byte	.LLST9
 1682 06ba 1C       		.uleb128 0x1c
 1683 06bb EA040000 		.4byte	0x4ea
 1684 06bf 84010000 		.4byte	.LLST10
 1685 06c3 26       		.uleb128 0x26
 1686 06c4 28000000 		.4byte	.Ldebug_ranges0+0x28
 1687 06c8 27       		.uleb128 0x27
 1688 06c9 20050000 		.4byte	0x520
 1689 06cd 84010000 		.4byte	.LLST10
 1690 06d1 1E       		.uleb128 0x1e
 1691 06d2 B4040000 		.4byte	0x4b4
 1692 06d6 0E000000 		.4byte	.LBB27
 1693 06da 48000000 		.4byte	.Ldebug_ranges0+0x48
 1694 06de 01       		.byte	0x1
 1695 06df A1       		.byte	0xa1
 1696 06e0 1C       		.uleb128 0x1c
 1697 06e1 CE040000 		.4byte	0x4ce
 1698 06e5 A2010000 		.4byte	.LLST12
 1699 06e9 1B       		.uleb128 0x1b
 1700 06ea C4040000 		.4byte	0x4c4
 1701 06ee 01       		.uleb128 0x1
 1702 06ef 54       		.byte	0x54
 1703 06f0 00       		.byte	0
 1704 06f1 00       		.byte	0
 1705 06f2 00       		.byte	0
 1706 06f3 23       		.uleb128 0x23
 1707 06f4 7C000000 		.4byte	.LBB43
 1708 06f8 06000000 		.4byte	.LBE43-.LBB43
 1709 06fc 0E070000 		.4byte	0x70e
 1710 0700 24       		.uleb128 0x24
ARM GAS  /tmp/ccbNgWBe.s 			page 31


 1711 0701 746D7000 		.ascii	"tmp\000"
 1712 0705 01       		.byte	0x1
 1713 0706 C2       		.byte	0xc2
 1714 0707 77000000 		.4byte	0x77
 1715 070b 01       		.uleb128 0x1
 1716 070c 53       		.byte	0x53
 1717 070d 00       		.byte	0
 1718 070e 28       		.uleb128 0x28
 1719 070f 7C000000 		.4byte	.LVL16
 1720 0713 370B0000 		.4byte	0xb37
 1721 0717 29       		.uleb128 0x29
 1722 0718 01       		.uleb128 0x1
 1723 0719 51       		.byte	0x51
 1724 071a 02       		.uleb128 0x2
 1725 071b 75       		.byte	0x75
 1726 071c 00       		.sleb128 0
 1727 071d 29       		.uleb128 0x29
 1728 071e 01       		.uleb128 0x1
 1729 071f 50       		.byte	0x50
 1730 0720 02       		.uleb128 0x2
 1731 0721 74       		.byte	0x74
 1732 0722 00       		.sleb128 0
 1733 0723 00       		.byte	0
 1734 0724 00       		.byte	0
 1735 0725 1F       		.uleb128 0x1f
 1736 0726 84010000 		.4byte	.LASF77
 1737 072a 01       		.byte	0x1
 1738 072b D2       		.byte	0xd2
 1739 072c BF000000 		.4byte	0xbf
 1740 0730 00000000 		.4byte	.LFB10
 1741 0734 30000000 		.4byte	.LFE10-.LFB10
 1742 0738 01       		.uleb128 0x1
 1743 0739 9C       		.byte	0x9c
 1744 073a 9A070000 		.4byte	0x79a
 1745 073e 21       		.uleb128 0x21
 1746 073f 32020000 		.4byte	.LASF78
 1747 0743 01       		.byte	0x1
 1748 0744 D2       		.byte	0xd2
 1749 0745 BF000000 		.4byte	0xbf
 1750 0749 C3010000 		.4byte	.LLST13
 1751 074d 2A       		.uleb128 0x2a
 1752 074e 6F020000 		.4byte	.LASF79
 1753 0752 01       		.byte	0x1
 1754 0753 D3       		.byte	0xd3
 1755 0754 BF000000 		.4byte	0xbf
 1756 0758 01       		.uleb128 0x1
 1757 0759 54       		.byte	0x54
 1758 075a 23       		.uleb128 0x23
 1759 075b 02000000 		.4byte	.LBB44
 1760 075f 06000000 		.4byte	.LBE44-.LBB44
 1761 0763 75070000 		.4byte	0x775
 1762 0767 24       		.uleb128 0x24
 1763 0768 746D7000 		.ascii	"tmp\000"
 1764 076c 01       		.byte	0x1
 1765 076d D7       		.byte	0xd7
 1766 076e 77000000 		.4byte	0x77
 1767 0772 01       		.uleb128 0x1
ARM GAS  /tmp/ccbNgWBe.s 			page 32


 1768 0773 53       		.byte	0x53
 1769 0774 00       		.byte	0
 1770 0775 23       		.uleb128 0x23
 1771 0776 26000000 		.4byte	.LBB45
 1772 077a 06000000 		.4byte	.LBE45-.LBB45
 1773 077e 90070000 		.4byte	0x790
 1774 0782 24       		.uleb128 0x24
 1775 0783 746D7000 		.ascii	"tmp\000"
 1776 0787 01       		.byte	0x1
 1777 0788 E2       		.byte	0xe2
 1778 0789 77000000 		.4byte	0x77
 1779 078d 01       		.uleb128 0x1
 1780 078e 53       		.byte	0x53
 1781 078f 00       		.byte	0
 1782 0790 2B       		.uleb128 0x2b
 1783 0791 26000000 		.4byte	.LVL19
 1784 0795 4D0B0000 		.4byte	0xb4d
 1785 0799 00       		.byte	0
 1786 079a 1F       		.uleb128 0x1f
 1787 079b A2020000 		.4byte	.LASF80
 1788 079f 01       		.byte	0x1
 1789 07a0 F3       		.byte	0xf3
 1790 07a1 08020000 		.4byte	0x208
 1791 07a5 00000000 		.4byte	.LFB11
 1792 07a9 1A000000 		.4byte	.LFE11-.LFB11
 1793 07ad 01       		.uleb128 0x1
 1794 07ae 9C       		.byte	0x9c
 1795 07af 09080000 		.4byte	0x809
 1796 07b3 20       		.uleb128 0x20
 1797 07b4 747000   		.ascii	"tp\000"
 1798 07b7 01       		.byte	0x1
 1799 07b8 F3       		.byte	0xf3
 1800 07b9 08020000 		.4byte	0x208
 1801 07bd E4010000 		.4byte	.LLST14
 1802 07c1 2C       		.uleb128 0x2c
 1803 07c2 80000000 		.4byte	.Ldebug_ranges0+0x80
 1804 07c6 D8070000 		.4byte	0x7d8
 1805 07ca 24       		.uleb128 0x24
 1806 07cb 746D7000 		.ascii	"tmp\000"
 1807 07cf 01       		.byte	0x1
 1808 07d0 F5       		.byte	0xf5
 1809 07d1 77000000 		.4byte	0x77
 1810 07d5 01       		.uleb128 0x1
 1811 07d6 53       		.byte	0x53
 1812 07d7 00       		.byte	0
 1813 07d8 23       		.uleb128 0x23
 1814 07d9 10000000 		.4byte	.LBB48
 1815 07dd 06000000 		.4byte	.LBE48-.LBB48
 1816 07e1 F3070000 		.4byte	0x7f3
 1817 07e5 24       		.uleb128 0x24
 1818 07e6 746D7000 		.ascii	"tmp\000"
 1819 07ea 01       		.byte	0x1
 1820 07eb FA       		.byte	0xfa
 1821 07ec 77000000 		.4byte	0x77
 1822 07f0 01       		.uleb128 0x1
 1823 07f1 53       		.byte	0x53
 1824 07f2 00       		.byte	0
ARM GAS  /tmp/ccbNgWBe.s 			page 33


 1825 07f3 28       		.uleb128 0x28
 1826 07f4 10000000 		.4byte	.LVL21
 1827 07f8 370B0000 		.4byte	0xb37
 1828 07fc 29       		.uleb128 0x29
 1829 07fd 01       		.uleb128 0x1
 1830 07fe 51       		.byte	0x51
 1831 07ff 01       		.uleb128 0x1
 1832 0800 30       		.byte	0x30
 1833 0801 29       		.uleb128 0x29
 1834 0802 01       		.uleb128 0x1
 1835 0803 50       		.byte	0x50
 1836 0804 02       		.uleb128 0x2
 1837 0805 74       		.byte	0x74
 1838 0806 00       		.sleb128 0
 1839 0807 00       		.byte	0
 1840 0808 00       		.byte	0
 1841 0809 2D       		.uleb128 0x2d
 1842 080a 42020000 		.4byte	.LASF81
 1843 080e 01       		.byte	0x1
 1844 080f 0A01     		.2byte	0x10a
 1845 0811 00000000 		.4byte	.LFB12
 1846 0815 16000000 		.4byte	.LFE12-.LFB12
 1847 0819 01       		.uleb128 0x1
 1848 081a 9C       		.byte	0x9c
 1849 081b 5D080000 		.4byte	0x85d
 1850 081f 2E       		.uleb128 0x2e
 1851 0820 747000   		.ascii	"tp\000"
 1852 0823 01       		.byte	0x1
 1853 0824 0A01     		.2byte	0x10a
 1854 0826 08020000 		.4byte	0x208
 1855 082a 01       		.uleb128 0x1
 1856 082b 50       		.byte	0x50
 1857 082c 23       		.uleb128 0x23
 1858 082d 00000000 		.4byte	.LBB49
 1859 0831 06000000 		.4byte	.LBE49-.LBB49
 1860 0835 48080000 		.4byte	0x848
 1861 0839 2F       		.uleb128 0x2f
 1862 083a 746D7000 		.ascii	"tmp\000"
 1863 083e 01       		.byte	0x1
 1864 083f 0C01     		.2byte	0x10c
 1865 0841 77000000 		.4byte	0x77
 1866 0845 01       		.uleb128 0x1
 1867 0846 53       		.byte	0x53
 1868 0847 00       		.byte	0
 1869 0848 26       		.uleb128 0x26
 1870 0849 98000000 		.4byte	.Ldebug_ranges0+0x98
 1871 084d 2F       		.uleb128 0x2f
 1872 084e 746D7000 		.ascii	"tmp\000"
 1873 0852 01       		.byte	0x1
 1874 0853 0E01     		.2byte	0x10e
 1875 0855 77000000 		.4byte	0x77
 1876 0859 01       		.uleb128 0x1
 1877 085a 53       		.byte	0x53
 1878 085b 00       		.byte	0
 1879 085c 00       		.byte	0
 1880 085d 2D       		.uleb128 0x2d
 1881 085e 43040000 		.4byte	.LASF82
ARM GAS  /tmp/ccbNgWBe.s 			page 34


 1882 0862 01       		.byte	0x1
 1883 0863 1D01     		.2byte	0x11d
 1884 0865 00000000 		.4byte	.LFB13
 1885 0869 18000000 		.4byte	.LFE13-.LFB13
 1886 086d 01       		.uleb128 0x1
 1887 086e 9C       		.byte	0x9c
 1888 086f D2080000 		.4byte	0x8d2
 1889 0873 30       		.uleb128 0x30
 1890 0874 E1020000 		.4byte	.LASF83
 1891 0878 01       		.byte	0x1
 1892 0879 1D01     		.2byte	0x11d
 1893 087b E0000000 		.4byte	0xe0
 1894 087f 02020000 		.4byte	.LLST15
 1895 0883 23       		.uleb128 0x23
 1896 0884 04000000 		.4byte	.LBB52
 1897 0888 06000000 		.4byte	.LBE52-.LBB52
 1898 088c 9F080000 		.4byte	0x89f
 1899 0890 2F       		.uleb128 0x2f
 1900 0891 746D7000 		.ascii	"tmp\000"
 1901 0895 01       		.byte	0x1
 1902 0896 2101     		.2byte	0x121
 1903 0898 77000000 		.4byte	0x77
 1904 089c 01       		.uleb128 0x1
 1905 089d 53       		.byte	0x53
 1906 089e 00       		.byte	0
 1907 089f 23       		.uleb128 0x23
 1908 08a0 10000000 		.4byte	.LBB53
 1909 08a4 08000000 		.4byte	.LBE53-.LBB53
 1910 08a8 BB080000 		.4byte	0x8bb
 1911 08ac 2F       		.uleb128 0x2f
 1912 08ad 746D7000 		.ascii	"tmp\000"
 1913 08b1 01       		.byte	0x1
 1914 08b2 2301     		.2byte	0x123
 1915 08b4 77000000 		.4byte	0x77
 1916 08b8 01       		.uleb128 0x1
 1917 08b9 53       		.byte	0x53
 1918 08ba 00       		.byte	0
 1919 08bb 28       		.uleb128 0x28
 1920 08bc 10000000 		.4byte	.LVL25
 1921 08c0 540B0000 		.4byte	0xb54
 1922 08c4 29       		.uleb128 0x29
 1923 08c5 01       		.uleb128 0x1
 1924 08c6 51       		.byte	0x51
 1925 08c7 03       		.uleb128 0x3
 1926 08c8 F3       		.byte	0xf3
 1927 08c9 01       		.uleb128 0x1
 1928 08ca 50       		.byte	0x50
 1929 08cb 29       		.uleb128 0x29
 1930 08cc 01       		.uleb128 0x1
 1931 08cd 50       		.byte	0x50
 1932 08ce 01       		.uleb128 0x1
 1933 08cf 36       		.byte	0x36
 1934 08d0 00       		.byte	0
 1935 08d1 00       		.byte	0
 1936 08d2 2D       		.uleb128 0x2d
 1937 08d3 04030000 		.4byte	.LASF84
 1938 08d7 01       		.byte	0x1
ARM GAS  /tmp/ccbNgWBe.s 			page 35


 1939 08d8 2E01     		.2byte	0x12e
 1940 08da 00000000 		.4byte	.LFB14
 1941 08de 24000000 		.4byte	.LFE14-.LFB14
 1942 08e2 01       		.uleb128 0x1
 1943 08e3 9C       		.byte	0x9c
 1944 08e4 40090000 		.4byte	0x940
 1945 08e8 30       		.uleb128 0x30
 1946 08e9 E1020000 		.4byte	.LASF83
 1947 08ed 01       		.byte	0x1
 1948 08ee 2E01     		.2byte	0x12e
 1949 08f0 E0000000 		.4byte	0xe0
 1950 08f4 2E020000 		.4byte	.LLST16
 1951 08f8 23       		.uleb128 0x23
 1952 08f9 02000000 		.4byte	.LBB54
 1953 08fd 06000000 		.4byte	.LBE54-.LBB54
 1954 0901 14090000 		.4byte	0x914
 1955 0905 2F       		.uleb128 0x2f
 1956 0906 746D7000 		.ascii	"tmp\000"
 1957 090a 01       		.byte	0x1
 1958 090b 3001     		.2byte	0x130
 1959 090d 77000000 		.4byte	0x77
 1960 0911 01       		.uleb128 0x1
 1961 0912 53       		.byte	0x53
 1962 0913 00       		.byte	0
 1963 0914 23       		.uleb128 0x23
 1964 0915 1C000000 		.4byte	.LBB55
 1965 0919 08000000 		.4byte	.LBE55-.LBB55
 1966 091d 30090000 		.4byte	0x930
 1967 0921 2F       		.uleb128 0x2f
 1968 0922 746D7000 		.ascii	"tmp\000"
 1969 0926 01       		.byte	0x1
 1970 0927 3301     		.2byte	0x133
 1971 0929 77000000 		.4byte	0x77
 1972 092d 01       		.uleb128 0x1
 1973 092e 53       		.byte	0x53
 1974 092f 00       		.byte	0
 1975 0930 28       		.uleb128 0x28
 1976 0931 1C000000 		.4byte	.LVL29
 1977 0935 540B0000 		.4byte	0xb54
 1978 0939 29       		.uleb128 0x29
 1979 093a 01       		.uleb128 0x1
 1980 093b 50       		.byte	0x50
 1981 093c 01       		.uleb128 0x1
 1982 093d 36       		.byte	0x36
 1983 093e 00       		.byte	0
 1984 093f 00       		.byte	0
 1985 0940 2D       		.uleb128 0x2d
 1986 0941 0E040000 		.4byte	.LASF85
 1987 0945 01       		.byte	0x1
 1988 0946 3D01     		.2byte	0x13d
 1989 0948 00000000 		.4byte	.LFB15
 1990 094c 28000000 		.4byte	.LFE15-.LFB15
 1991 0950 01       		.uleb128 0x1
 1992 0951 9C       		.byte	0x9c
 1993 0952 98090000 		.4byte	0x998
 1994 0956 23       		.uleb128 0x23
 1995 0957 02000000 		.4byte	.LBB56
ARM GAS  /tmp/ccbNgWBe.s 			page 36


 1996 095b 06000000 		.4byte	.LBE56-.LBB56
 1997 095f 72090000 		.4byte	0x972
 1998 0963 2F       		.uleb128 0x2f
 1999 0964 746D7000 		.ascii	"tmp\000"
 2000 0968 01       		.byte	0x1
 2001 0969 3F01     		.2byte	0x13f
 2002 096b 77000000 		.4byte	0x77
 2003 096f 01       		.uleb128 0x1
 2004 0970 53       		.byte	0x53
 2005 0971 00       		.byte	0
 2006 0972 23       		.uleb128 0x23
 2007 0973 20000000 		.4byte	.LBB57
 2008 0977 08000000 		.4byte	.LBE57-.LBB57
 2009 097b 8E090000 		.4byte	0x98e
 2010 097f 2F       		.uleb128 0x2f
 2011 0980 746D7000 		.ascii	"tmp\000"
 2012 0984 01       		.byte	0x1
 2013 0985 4101     		.2byte	0x141
 2014 0987 77000000 		.4byte	0x77
 2015 098b 01       		.uleb128 0x1
 2016 098c 53       		.byte	0x53
 2017 098d 00       		.byte	0
 2018 098e 2B       		.uleb128 0x2b
 2019 098f 20000000 		.4byte	.LVL30
 2020 0993 6E0B0000 		.4byte	0xb6e
 2021 0997 00       		.byte	0
 2022 0998 2D       		.uleb128 0x2d
 2023 0999 28000000 		.4byte	.LASF86
 2024 099d 01       		.byte	0x1
 2025 099e 6701     		.2byte	0x167
 2026 09a0 00000000 		.4byte	.LFB17
 2027 09a4 42000000 		.4byte	.LFE17-.LFB17
 2028 09a8 01       		.uleb128 0x1
 2029 09a9 9C       		.byte	0x9c
 2030 09aa 130A0000 		.4byte	0xa13
 2031 09ae 31       		.uleb128 0x31
 2032 09af 6D736700 		.ascii	"msg\000"
 2033 09b3 01       		.byte	0x1
 2034 09b4 6701     		.2byte	0x167
 2035 09b6 CA000000 		.4byte	0xca
 2036 09ba 5C020000 		.4byte	.LLST17
 2037 09be 32       		.uleb128 0x32
 2038 09bf 747000   		.ascii	"tp\000"
 2039 09c2 01       		.byte	0x1
 2040 09c3 6801     		.2byte	0x168
 2041 09c5 08020000 		.4byte	0x208
 2042 09c9 7D020000 		.4byte	.LLST18
 2043 09cd 33       		.uleb128 0x33
 2044 09ce 2B050000 		.4byte	0x52b
 2045 09d2 18000000 		.4byte	.LBB58
 2046 09d6 B0000000 		.4byte	.Ldebug_ranges0+0xb0
 2047 09da 01       		.byte	0x1
 2048 09db 7001     		.2byte	0x170
 2049 09dd FA090000 		.4byte	0x9fa
 2050 09e1 1C       		.uleb128 0x1c
 2051 09e2 3B050000 		.4byte	0x53b
 2052 09e6 90020000 		.4byte	.LLST19
ARM GAS  /tmp/ccbNgWBe.s 			page 37


 2053 09ea 26       		.uleb128 0x26
 2054 09eb B0000000 		.4byte	.Ldebug_ranges0+0xb0
 2055 09ef 27       		.uleb128 0x27
 2056 09f0 46050000 		.4byte	0x546
 2057 09f4 A5020000 		.4byte	.LLST20
 2058 09f8 00       		.byte	0
 2059 09f9 00       		.byte	0
 2060 09fa 2B       		.uleb128 0x2b
 2061 09fb 22000000 		.4byte	.LVL34
 2062 09ff 750B0000 		.4byte	0xb75
 2063 0a03 34       		.uleb128 0x34
 2064 0a04 42000000 		.4byte	.LVL37
 2065 0a08 8A0B0000 		.4byte	0xb8a
 2066 0a0c 29       		.uleb128 0x29
 2067 0a0d 01       		.uleb128 0x1
 2068 0a0e 50       		.byte	0x50
 2069 0a0f 01       		.uleb128 0x1
 2070 0a10 3E       		.byte	0x3e
 2071 0a11 00       		.byte	0
 2072 0a12 00       		.byte	0
 2073 0a13 2D       		.uleb128 0x2d
 2074 0a14 74000000 		.4byte	.LASF87
 2075 0a18 01       		.byte	0x1
 2076 0a19 5201     		.2byte	0x152
 2077 0a1b 00000000 		.4byte	.LFB16
 2078 0a1f 0A000000 		.4byte	.LFE16-.LFB16
 2079 0a23 01       		.uleb128 0x1
 2080 0a24 9C       		.byte	0x9c
 2081 0a25 670A0000 		.4byte	0xa67
 2082 0a29 31       		.uleb128 0x31
 2083 0a2a 6D736700 		.ascii	"msg\000"
 2084 0a2e 01       		.byte	0x1
 2085 0a2f 5201     		.2byte	0x152
 2086 0a31 CA000000 		.4byte	0xca
 2087 0a35 B8020000 		.4byte	.LLST21
 2088 0a39 23       		.uleb128 0x23
 2089 0a3a 00000000 		.4byte	.LBB62
 2090 0a3e 06000000 		.4byte	.LBE62-.LBB62
 2091 0a42 550A0000 		.4byte	0xa55
 2092 0a46 2F       		.uleb128 0x2f
 2093 0a47 746D7000 		.ascii	"tmp\000"
 2094 0a4b 01       		.byte	0x1
 2095 0a4c 5401     		.2byte	0x154
 2096 0a4e 77000000 		.4byte	0x77
 2097 0a52 01       		.uleb128 0x1
 2098 0a53 53       		.byte	0x53
 2099 0a54 00       		.byte	0
 2100 0a55 34       		.uleb128 0x34
 2101 0a56 0A000000 		.4byte	.LVL39
 2102 0a5a 98090000 		.4byte	0x998
 2103 0a5e 29       		.uleb128 0x29
 2104 0a5f 01       		.uleb128 0x1
 2105 0a60 50       		.byte	0x50
 2106 0a61 03       		.uleb128 0x3
 2107 0a62 F3       		.byte	0xf3
 2108 0a63 01       		.uleb128 0x1
 2109 0a64 50       		.byte	0x50
ARM GAS  /tmp/ccbNgWBe.s 			page 38


 2110 0a65 00       		.byte	0
 2111 0a66 00       		.byte	0
 2112 0a67 35       		.uleb128 0x35
 2113 0a68 32040000 		.4byte	.LASF88
 2114 0a6c 01       		.byte	0x1
 2115 0a6d 9D01     		.2byte	0x19d
 2116 0a6f CA000000 		.4byte	0xca
 2117 0a73 00000000 		.4byte	.LFB18
 2118 0a77 38000000 		.4byte	.LFE18-.LFB18
 2119 0a7b 01       		.uleb128 0x1
 2120 0a7c 9C       		.byte	0x9c
 2121 0a7d 210B0000 		.4byte	0xb21
 2122 0a81 31       		.uleb128 0x31
 2123 0a82 747000   		.ascii	"tp\000"
 2124 0a85 01       		.byte	0x1
 2125 0a86 9D01     		.2byte	0x19d
 2126 0a88 08020000 		.4byte	0x208
 2127 0a8c D9020000 		.4byte	.LLST22
 2128 0a90 2F       		.uleb128 0x2f
 2129 0a91 6D736700 		.ascii	"msg\000"
 2130 0a95 01       		.byte	0x1
 2131 0a96 9E01     		.2byte	0x19e
 2132 0a98 CA000000 		.4byte	0xca
 2133 0a9c 01       		.uleb128 0x1
 2134 0a9d 55       		.byte	0x55
 2135 0a9e 23       		.uleb128 0x23
 2136 0a9f 04000000 		.4byte	.LBB63
 2137 0aa3 06000000 		.4byte	.LBE63-.LBB63
 2138 0aa7 BA0A0000 		.4byte	0xaba
 2139 0aab 2F       		.uleb128 0x2f
 2140 0aac 746D7000 		.ascii	"tmp\000"
 2141 0ab0 01       		.byte	0x1
 2142 0ab1 A201     		.2byte	0x1a2
 2143 0ab3 77000000 		.4byte	0x77
 2144 0ab7 01       		.uleb128 0x1
 2145 0ab8 53       		.byte	0x53
 2146 0ab9 00       		.byte	0
 2147 0aba 33       		.uleb128 0x33
 2148 0abb 57050000 		.4byte	0x557
 2149 0abf 18000000 		.4byte	.LBB64
 2150 0ac3 C8000000 		.4byte	.Ldebug_ranges0+0xc8
 2151 0ac7 01       		.byte	0x1
 2152 0ac8 A801     		.2byte	0x1a8
 2153 0aca E10A0000 		.4byte	0xae1
 2154 0ace 1C       		.uleb128 0x1c
 2155 0acf 6D050000 		.4byte	0x56d
 2156 0ad3 F7020000 		.4byte	.LLST23
 2157 0ad7 1C       		.uleb128 0x1c
 2158 0ad8 63050000 		.4byte	0x563
 2159 0adc 19030000 		.4byte	.LLST24
 2160 0ae0 00       		.byte	0
 2161 0ae1 23       		.uleb128 0x23
 2162 0ae2 28000000 		.4byte	.LBB68
 2163 0ae6 06000000 		.4byte	.LBE68-.LBB68
 2164 0aea FD0A0000 		.4byte	0xafd
 2165 0aee 2F       		.uleb128 0x2f
 2166 0aef 746D7000 		.ascii	"tmp\000"
ARM GAS  /tmp/ccbNgWBe.s 			page 39


 2167 0af3 01       		.byte	0x1
 2168 0af4 AC01     		.2byte	0x1ac
 2169 0af6 77000000 		.4byte	0x77
 2170 0afa 01       		.uleb128 0x1
 2171 0afb 53       		.byte	0x53
 2172 0afc 00       		.byte	0
 2173 0afd 36       		.uleb128 0x36
 2174 0afe 26000000 		.4byte	.LVL43
 2175 0b02 8A0B0000 		.4byte	0xb8a
 2176 0b06 100B0000 		.4byte	0xb10
 2177 0b0a 29       		.uleb128 0x29
 2178 0b0b 01       		.uleb128 0x1
 2179 0b0c 50       		.byte	0x50
 2180 0b0d 01       		.uleb128 0x1
 2181 0b0e 37       		.byte	0x37
 2182 0b0f 00       		.byte	0
 2183 0b10 28       		.uleb128 0x28
 2184 0b11 34000000 		.4byte	.LVL45
 2185 0b15 9B0B0000 		.4byte	0xb9b
 2186 0b19 29       		.uleb128 0x29
 2187 0b1a 01       		.uleb128 0x1
 2188 0b1b 50       		.byte	0x50
 2189 0b1c 02       		.uleb128 0x2
 2190 0b1d 74       		.byte	0x74
 2191 0b1e 00       		.sleb128 0
 2192 0b1f 00       		.byte	0
 2193 0b20 00       		.byte	0
 2194 0b21 37       		.uleb128 0x37
 2195 0b22 21000000 		.4byte	.LASF89
 2196 0b26 09       		.byte	0x9
 2197 0b27 D4       		.byte	0xd4
 2198 0b28 9E030000 		.4byte	0x39e
 2199 0b2c 37       		.uleb128 0x37
 2200 0b2d 5F040000 		.4byte	.LASF90
 2201 0b31 0A       		.byte	0xa
 2202 0b32 68       		.byte	0x68
 2203 0b33 FA030000 		.4byte	0x3fa
 2204 0b37 38       		.uleb128 0x38
 2205 0b38 1F020000 		.4byte	.LASF95
 2206 0b3c 0A       		.byte	0xa
 2207 0b3d 92       		.byte	0x92
 2208 0b3e 4D0B0000 		.4byte	0xb4d
 2209 0b42 0E       		.uleb128 0xe
 2210 0b43 08020000 		.4byte	0x208
 2211 0b47 0E       		.uleb128 0xe
 2212 0b48 CA000000 		.4byte	0xca
 2213 0b4c 00       		.byte	0
 2214 0b4d 39       		.uleb128 0x39
 2215 0b4e C1000000 		.4byte	.LASF92
 2216 0b52 0A       		.byte	0xa
 2217 0b53 95       		.byte	0x95
 2218 0b54 3A       		.uleb128 0x3a
 2219 0b55 A6040000 		.4byte	.LASF91
 2220 0b59 0A       		.byte	0xa
 2221 0b5a 8F       		.byte	0x8f
 2222 0b5b CA000000 		.4byte	0xca
 2223 0b5f 6E0B0000 		.4byte	0xb6e
ARM GAS  /tmp/ccbNgWBe.s 			page 40


 2224 0b63 0E       		.uleb128 0xe
 2225 0b64 A9000000 		.4byte	0xa9
 2226 0b68 0E       		.uleb128 0xe
 2227 0b69 E0000000 		.4byte	0xe0
 2228 0b6d 00       		.byte	0
 2229 0b6e 39       		.uleb128 0x39
 2230 0b6f AE020000 		.4byte	.LASF93
 2231 0b73 0A       		.byte	0xa
 2232 0b74 9B       		.byte	0x9b
 2233 0b75 3A       		.uleb128 0x3a
 2234 0b76 DD030000 		.4byte	.LASF94
 2235 0b7a 0A       		.byte	0xa
 2236 0b7b 89       		.byte	0x89
 2237 0b7c 08020000 		.4byte	0x208
 2238 0b80 8A0B0000 		.4byte	0xb8a
 2239 0b84 0E       		.uleb128 0xe
 2240 0b85 08020000 		.4byte	0x208
 2241 0b89 00       		.byte	0
 2242 0b8a 38       		.uleb128 0x38
 2243 0b8b 94030000 		.4byte	.LASF96
 2244 0b8f 0A       		.byte	0xa
 2245 0b90 8C       		.byte	0x8c
 2246 0b91 9B0B0000 		.4byte	0xb9b
 2247 0b95 0E       		.uleb128 0xe
 2248 0b96 A9000000 		.4byte	0xa9
 2249 0b9a 00       		.byte	0
 2250 0b9b 3B       		.uleb128 0x3b
 2251 0b9c 80030000 		.4byte	.LASF102
 2252 0ba0 0C       		.byte	0xc
 2253 0ba1 33       		.byte	0x33
 2254 0ba2 0E       		.uleb128 0xe
 2255 0ba3 08020000 		.4byte	0x208
 2256 0ba7 00       		.byte	0
 2257 0ba8 00       		.byte	0
 2258              		.section	.debug_abbrev,"",%progbits
 2259              	.Ldebug_abbrev0:
 2260 0000 01       		.uleb128 0x1
 2261 0001 11       		.uleb128 0x11
 2262 0002 01       		.byte	0x1
 2263 0003 25       		.uleb128 0x25
 2264 0004 0E       		.uleb128 0xe
 2265 0005 13       		.uleb128 0x13
 2266 0006 0B       		.uleb128 0xb
 2267 0007 03       		.uleb128 0x3
 2268 0008 0E       		.uleb128 0xe
 2269 0009 1B       		.uleb128 0x1b
 2270 000a 0E       		.uleb128 0xe
 2271 000b 55       		.uleb128 0x55
 2272 000c 17       		.uleb128 0x17
 2273 000d 11       		.uleb128 0x11
 2274 000e 01       		.uleb128 0x1
 2275 000f 10       		.uleb128 0x10
 2276 0010 17       		.uleb128 0x17
 2277 0011 00       		.byte	0
 2278 0012 00       		.byte	0
 2279 0013 02       		.uleb128 0x2
 2280 0014 24       		.uleb128 0x24
ARM GAS  /tmp/ccbNgWBe.s 			page 41


 2281 0015 00       		.byte	0
 2282 0016 0B       		.uleb128 0xb
 2283 0017 0B       		.uleb128 0xb
 2284 0018 3E       		.uleb128 0x3e
 2285 0019 0B       		.uleb128 0xb
 2286 001a 03       		.uleb128 0x3
 2287 001b 08       		.uleb128 0x8
 2288 001c 00       		.byte	0
 2289 001d 00       		.byte	0
 2290 001e 03       		.uleb128 0x3
 2291 001f 16       		.uleb128 0x16
 2292 0020 00       		.byte	0
 2293 0021 03       		.uleb128 0x3
 2294 0022 0E       		.uleb128 0xe
 2295 0023 3A       		.uleb128 0x3a
 2296 0024 0B       		.uleb128 0xb
 2297 0025 3B       		.uleb128 0x3b
 2298 0026 0B       		.uleb128 0xb
 2299 0027 49       		.uleb128 0x49
 2300 0028 13       		.uleb128 0x13
 2301 0029 00       		.byte	0
 2302 002a 00       		.byte	0
 2303 002b 04       		.uleb128 0x4
 2304 002c 24       		.uleb128 0x24
 2305 002d 00       		.byte	0
 2306 002e 0B       		.uleb128 0xb
 2307 002f 0B       		.uleb128 0xb
 2308 0030 3E       		.uleb128 0x3e
 2309 0031 0B       		.uleb128 0xb
 2310 0032 03       		.uleb128 0x3
 2311 0033 0E       		.uleb128 0xe
 2312 0034 00       		.byte	0
 2313 0035 00       		.byte	0
 2314 0036 05       		.uleb128 0x5
 2315 0037 13       		.uleb128 0x13
 2316 0038 01       		.byte	0x1
 2317 0039 03       		.uleb128 0x3
 2318 003a 0E       		.uleb128 0xe
 2319 003b 0B       		.uleb128 0xb
 2320 003c 0B       		.uleb128 0xb
 2321 003d 3A       		.uleb128 0x3a
 2322 003e 0B       		.uleb128 0xb
 2323 003f 3B       		.uleb128 0x3b
 2324 0040 0B       		.uleb128 0xb
 2325 0041 01       		.uleb128 0x1
 2326 0042 13       		.uleb128 0x13
 2327 0043 00       		.byte	0
 2328 0044 00       		.byte	0
 2329 0045 06       		.uleb128 0x6
 2330 0046 0D       		.uleb128 0xd
 2331 0047 00       		.byte	0
 2332 0048 03       		.uleb128 0x3
 2333 0049 0E       		.uleb128 0xe
 2334 004a 3A       		.uleb128 0x3a
 2335 004b 0B       		.uleb128 0xb
 2336 004c 3B       		.uleb128 0x3b
 2337 004d 0B       		.uleb128 0xb
ARM GAS  /tmp/ccbNgWBe.s 			page 42


 2338 004e 49       		.uleb128 0x49
 2339 004f 13       		.uleb128 0x13
 2340 0050 38       		.uleb128 0x38
 2341 0051 0B       		.uleb128 0xb
 2342 0052 00       		.byte	0
 2343 0053 00       		.byte	0
 2344 0054 07       		.uleb128 0x7
 2345 0055 0D       		.uleb128 0xd
 2346 0056 00       		.byte	0
 2347 0057 03       		.uleb128 0x3
 2348 0058 08       		.uleb128 0x8
 2349 0059 3A       		.uleb128 0x3a
 2350 005a 0B       		.uleb128 0xb
 2351 005b 3B       		.uleb128 0x3b
 2352 005c 0B       		.uleb128 0xb
 2353 005d 49       		.uleb128 0x49
 2354 005e 13       		.uleb128 0x13
 2355 005f 38       		.uleb128 0x38
 2356 0060 0B       		.uleb128 0xb
 2357 0061 00       		.byte	0
 2358 0062 00       		.byte	0
 2359 0063 08       		.uleb128 0x8
 2360 0064 13       		.uleb128 0x13
 2361 0065 01       		.byte	0x1
 2362 0066 0B       		.uleb128 0xb
 2363 0067 0B       		.uleb128 0xb
 2364 0068 3A       		.uleb128 0x3a
 2365 0069 0B       		.uleb128 0xb
 2366 006a 3B       		.uleb128 0x3b
 2367 006b 0B       		.uleb128 0xb
 2368 006c 01       		.uleb128 0x1
 2369 006d 13       		.uleb128 0x13
 2370 006e 00       		.byte	0
 2371 006f 00       		.byte	0
 2372 0070 09       		.uleb128 0x9
 2373 0071 0F       		.uleb128 0xf
 2374 0072 00       		.byte	0
 2375 0073 0B       		.uleb128 0xb
 2376 0074 0B       		.uleb128 0xb
 2377 0075 49       		.uleb128 0x49
 2378 0076 13       		.uleb128 0x13
 2379 0077 00       		.byte	0
 2380 0078 00       		.byte	0
 2381 0079 0A       		.uleb128 0xa
 2382 007a 0F       		.uleb128 0xf
 2383 007b 00       		.byte	0
 2384 007c 0B       		.uleb128 0xb
 2385 007d 0B       		.uleb128 0xb
 2386 007e 00       		.byte	0
 2387 007f 00       		.byte	0
 2388 0080 0B       		.uleb128 0xb
 2389 0081 13       		.uleb128 0x13
 2390 0082 01       		.byte	0x1
 2391 0083 03       		.uleb128 0x3
 2392 0084 0E       		.uleb128 0xe
 2393 0085 0B       		.uleb128 0xb
 2394 0086 0B       		.uleb128 0xb
ARM GAS  /tmp/ccbNgWBe.s 			page 43


 2395 0087 3A       		.uleb128 0x3a
 2396 0088 0B       		.uleb128 0xb
 2397 0089 3B       		.uleb128 0x3b
 2398 008a 05       		.uleb128 0x5
 2399 008b 01       		.uleb128 0x1
 2400 008c 13       		.uleb128 0x13
 2401 008d 00       		.byte	0
 2402 008e 00       		.byte	0
 2403 008f 0C       		.uleb128 0xc
 2404 0090 0D       		.uleb128 0xd
 2405 0091 00       		.byte	0
 2406 0092 03       		.uleb128 0x3
 2407 0093 08       		.uleb128 0x8
 2408 0094 3A       		.uleb128 0x3a
 2409 0095 0B       		.uleb128 0xb
 2410 0096 3B       		.uleb128 0x3b
 2411 0097 05       		.uleb128 0x5
 2412 0098 49       		.uleb128 0x49
 2413 0099 13       		.uleb128 0x13
 2414 009a 38       		.uleb128 0x38
 2415 009b 0B       		.uleb128 0xb
 2416 009c 00       		.byte	0
 2417 009d 00       		.byte	0
 2418 009e 0D       		.uleb128 0xd
 2419 009f 15       		.uleb128 0x15
 2420 00a0 01       		.byte	0x1
 2421 00a1 27       		.uleb128 0x27
 2422 00a2 19       		.uleb128 0x19
 2423 00a3 01       		.uleb128 0x1
 2424 00a4 13       		.uleb128 0x13
 2425 00a5 00       		.byte	0
 2426 00a6 00       		.byte	0
 2427 00a7 0E       		.uleb128 0xe
 2428 00a8 05       		.uleb128 0x5
 2429 00a9 00       		.byte	0
 2430 00aa 49       		.uleb128 0x49
 2431 00ab 13       		.uleb128 0x13
 2432 00ac 00       		.byte	0
 2433 00ad 00       		.byte	0
 2434 00ae 0F       		.uleb128 0xf
 2435 00af 35       		.uleb128 0x35
 2436 00b0 00       		.byte	0
 2437 00b1 49       		.uleb128 0x49
 2438 00b2 13       		.uleb128 0x13
 2439 00b3 00       		.byte	0
 2440 00b4 00       		.byte	0
 2441 00b5 10       		.uleb128 0x10
 2442 00b6 17       		.uleb128 0x17
 2443 00b7 01       		.byte	0x1
 2444 00b8 0B       		.uleb128 0xb
 2445 00b9 0B       		.uleb128 0xb
 2446 00ba 3A       		.uleb128 0x3a
 2447 00bb 0B       		.uleb128 0xb
 2448 00bc 3B       		.uleb128 0x3b
 2449 00bd 0B       		.uleb128 0xb
 2450 00be 01       		.uleb128 0x1
 2451 00bf 13       		.uleb128 0x13
ARM GAS  /tmp/ccbNgWBe.s 			page 44


 2452 00c0 00       		.byte	0
 2453 00c1 00       		.byte	0
 2454 00c2 11       		.uleb128 0x11
 2455 00c3 0D       		.uleb128 0xd
 2456 00c4 00       		.byte	0
 2457 00c5 03       		.uleb128 0x3
 2458 00c6 0E       		.uleb128 0xe
 2459 00c7 3A       		.uleb128 0x3a
 2460 00c8 0B       		.uleb128 0xb
 2461 00c9 3B       		.uleb128 0x3b
 2462 00ca 0B       		.uleb128 0xb
 2463 00cb 49       		.uleb128 0x49
 2464 00cc 13       		.uleb128 0x13
 2465 00cd 00       		.byte	0
 2466 00ce 00       		.byte	0
 2467 00cf 12       		.uleb128 0x12
 2468 00d0 26       		.uleb128 0x26
 2469 00d1 00       		.byte	0
 2470 00d2 49       		.uleb128 0x49
 2471 00d3 13       		.uleb128 0x13
 2472 00d4 00       		.byte	0
 2473 00d5 00       		.byte	0
 2474 00d6 13       		.uleb128 0x13
 2475 00d7 15       		.uleb128 0x15
 2476 00d8 01       		.byte	0x1
 2477 00d9 27       		.uleb128 0x27
 2478 00da 19       		.uleb128 0x19
 2479 00db 49       		.uleb128 0x49
 2480 00dc 13       		.uleb128 0x13
 2481 00dd 01       		.uleb128 0x1
 2482 00de 13       		.uleb128 0x13
 2483 00df 00       		.byte	0
 2484 00e0 00       		.byte	0
 2485 00e1 14       		.uleb128 0x14
 2486 00e2 2E       		.uleb128 0x2e
 2487 00e3 01       		.byte	0x1
 2488 00e4 3F       		.uleb128 0x3f
 2489 00e5 19       		.uleb128 0x19
 2490 00e6 03       		.uleb128 0x3
 2491 00e7 0E       		.uleb128 0xe
 2492 00e8 3A       		.uleb128 0x3a
 2493 00e9 0B       		.uleb128 0xb
 2494 00ea 3B       		.uleb128 0x3b
 2495 00eb 0B       		.uleb128 0xb
 2496 00ec 27       		.uleb128 0x27
 2497 00ed 19       		.uleb128 0x19
 2498 00ee 49       		.uleb128 0x49
 2499 00ef 13       		.uleb128 0x13
 2500 00f0 20       		.uleb128 0x20
 2501 00f1 0B       		.uleb128 0xb
 2502 00f2 01       		.uleb128 0x1
 2503 00f3 13       		.uleb128 0x13
 2504 00f4 00       		.byte	0
 2505 00f5 00       		.byte	0
 2506 00f6 15       		.uleb128 0x15
 2507 00f7 05       		.uleb128 0x5
 2508 00f8 00       		.byte	0
ARM GAS  /tmp/ccbNgWBe.s 			page 45


 2509 00f9 03       		.uleb128 0x3
 2510 00fa 08       		.uleb128 0x8
 2511 00fb 3A       		.uleb128 0x3a
 2512 00fc 0B       		.uleb128 0xb
 2513 00fd 3B       		.uleb128 0x3b
 2514 00fe 0B       		.uleb128 0xb
 2515 00ff 49       		.uleb128 0x49
 2516 0100 13       		.uleb128 0x13
 2517 0101 00       		.byte	0
 2518 0102 00       		.byte	0
 2519 0103 16       		.uleb128 0x16
 2520 0104 05       		.uleb128 0x5
 2521 0105 00       		.byte	0
 2522 0106 03       		.uleb128 0x3
 2523 0107 0E       		.uleb128 0xe
 2524 0108 3A       		.uleb128 0x3a
 2525 0109 0B       		.uleb128 0xb
 2526 010a 3B       		.uleb128 0x3b
 2527 010b 0B       		.uleb128 0xb
 2528 010c 49       		.uleb128 0x49
 2529 010d 13       		.uleb128 0x13
 2530 010e 00       		.byte	0
 2531 010f 00       		.byte	0
 2532 0110 17       		.uleb128 0x17
 2533 0111 34       		.uleb128 0x34
 2534 0112 00       		.byte	0
 2535 0113 03       		.uleb128 0x3
 2536 0114 08       		.uleb128 0x8
 2537 0115 3A       		.uleb128 0x3a
 2538 0116 0B       		.uleb128 0xb
 2539 0117 3B       		.uleb128 0x3b
 2540 0118 0B       		.uleb128 0xb
 2541 0119 49       		.uleb128 0x49
 2542 011a 13       		.uleb128 0x13
 2543 011b 00       		.byte	0
 2544 011c 00       		.byte	0
 2545 011d 18       		.uleb128 0x18
 2546 011e 2E       		.uleb128 0x2e
 2547 011f 01       		.byte	0x1
 2548 0120 03       		.uleb128 0x3
 2549 0121 0E       		.uleb128 0xe
 2550 0122 3A       		.uleb128 0x3a
 2551 0123 0B       		.uleb128 0xb
 2552 0124 3B       		.uleb128 0x3b
 2553 0125 0B       		.uleb128 0xb
 2554 0126 27       		.uleb128 0x27
 2555 0127 19       		.uleb128 0x19
 2556 0128 49       		.uleb128 0x49
 2557 0129 13       		.uleb128 0x13
 2558 012a 20       		.uleb128 0x20
 2559 012b 0B       		.uleb128 0xb
 2560 012c 01       		.uleb128 0x1
 2561 012d 13       		.uleb128 0x13
 2562 012e 00       		.byte	0
 2563 012f 00       		.byte	0
 2564 0130 19       		.uleb128 0x19
 2565 0131 2E       		.uleb128 0x2e
ARM GAS  /tmp/ccbNgWBe.s 			page 46


 2566 0132 01       		.byte	0x1
 2567 0133 03       		.uleb128 0x3
 2568 0134 0E       		.uleb128 0xe
 2569 0135 3A       		.uleb128 0x3a
 2570 0136 0B       		.uleb128 0xb
 2571 0137 3B       		.uleb128 0x3b
 2572 0138 0B       		.uleb128 0xb
 2573 0139 27       		.uleb128 0x27
 2574 013a 19       		.uleb128 0x19
 2575 013b 20       		.uleb128 0x20
 2576 013c 0B       		.uleb128 0xb
 2577 013d 01       		.uleb128 0x1
 2578 013e 13       		.uleb128 0x13
 2579 013f 00       		.byte	0
 2580 0140 00       		.byte	0
 2581 0141 1A       		.uleb128 0x1a
 2582 0142 2E       		.uleb128 0x2e
 2583 0143 01       		.byte	0x1
 2584 0144 31       		.uleb128 0x31
 2585 0145 13       		.uleb128 0x13
 2586 0146 11       		.uleb128 0x11
 2587 0147 01       		.uleb128 0x1
 2588 0148 12       		.uleb128 0x12
 2589 0149 06       		.uleb128 0x6
 2590 014a 40       		.uleb128 0x40
 2591 014b 18       		.uleb128 0x18
 2592 014c 9742     		.uleb128 0x2117
 2593 014e 19       		.uleb128 0x19
 2594 014f 01       		.uleb128 0x1
 2595 0150 13       		.uleb128 0x13
 2596 0151 00       		.byte	0
 2597 0152 00       		.byte	0
 2598 0153 1B       		.uleb128 0x1b
 2599 0154 05       		.uleb128 0x5
 2600 0155 00       		.byte	0
 2601 0156 31       		.uleb128 0x31
 2602 0157 13       		.uleb128 0x13
 2603 0158 02       		.uleb128 0x2
 2604 0159 18       		.uleb128 0x18
 2605 015a 00       		.byte	0
 2606 015b 00       		.byte	0
 2607 015c 1C       		.uleb128 0x1c
 2608 015d 05       		.uleb128 0x5
 2609 015e 00       		.byte	0
 2610 015f 31       		.uleb128 0x31
 2611 0160 13       		.uleb128 0x13
 2612 0161 02       		.uleb128 0x2
 2613 0162 17       		.uleb128 0x17
 2614 0163 00       		.byte	0
 2615 0164 00       		.byte	0
 2616 0165 1D       		.uleb128 0x1d
 2617 0166 34       		.uleb128 0x34
 2618 0167 00       		.byte	0
 2619 0168 31       		.uleb128 0x31
 2620 0169 13       		.uleb128 0x13
 2621 016a 02       		.uleb128 0x2
 2622 016b 18       		.uleb128 0x18
ARM GAS  /tmp/ccbNgWBe.s 			page 47


 2623 016c 00       		.byte	0
 2624 016d 00       		.byte	0
 2625 016e 1E       		.uleb128 0x1e
 2626 016f 1D       		.uleb128 0x1d
 2627 0170 01       		.byte	0x1
 2628 0171 31       		.uleb128 0x31
 2629 0172 13       		.uleb128 0x13
 2630 0173 52       		.uleb128 0x52
 2631 0174 01       		.uleb128 0x1
 2632 0175 55       		.uleb128 0x55
 2633 0176 17       		.uleb128 0x17
 2634 0177 58       		.uleb128 0x58
 2635 0178 0B       		.uleb128 0xb
 2636 0179 59       		.uleb128 0x59
 2637 017a 0B       		.uleb128 0xb
 2638 017b 00       		.byte	0
 2639 017c 00       		.byte	0
 2640 017d 1F       		.uleb128 0x1f
 2641 017e 2E       		.uleb128 0x2e
 2642 017f 01       		.byte	0x1
 2643 0180 3F       		.uleb128 0x3f
 2644 0181 19       		.uleb128 0x19
 2645 0182 03       		.uleb128 0x3
 2646 0183 0E       		.uleb128 0xe
 2647 0184 3A       		.uleb128 0x3a
 2648 0185 0B       		.uleb128 0xb
 2649 0186 3B       		.uleb128 0x3b
 2650 0187 0B       		.uleb128 0xb
 2651 0188 27       		.uleb128 0x27
 2652 0189 19       		.uleb128 0x19
 2653 018a 49       		.uleb128 0x49
 2654 018b 13       		.uleb128 0x13
 2655 018c 11       		.uleb128 0x11
 2656 018d 01       		.uleb128 0x1
 2657 018e 12       		.uleb128 0x12
 2658 018f 06       		.uleb128 0x6
 2659 0190 40       		.uleb128 0x40
 2660 0191 18       		.uleb128 0x18
 2661 0192 9742     		.uleb128 0x2117
 2662 0194 19       		.uleb128 0x19
 2663 0195 01       		.uleb128 0x1
 2664 0196 13       		.uleb128 0x13
 2665 0197 00       		.byte	0
 2666 0198 00       		.byte	0
 2667 0199 20       		.uleb128 0x20
 2668 019a 05       		.uleb128 0x5
 2669 019b 00       		.byte	0
 2670 019c 03       		.uleb128 0x3
 2671 019d 08       		.uleb128 0x8
 2672 019e 3A       		.uleb128 0x3a
 2673 019f 0B       		.uleb128 0xb
 2674 01a0 3B       		.uleb128 0x3b
 2675 01a1 0B       		.uleb128 0xb
 2676 01a2 49       		.uleb128 0x49
 2677 01a3 13       		.uleb128 0x13
 2678 01a4 02       		.uleb128 0x2
 2679 01a5 17       		.uleb128 0x17
ARM GAS  /tmp/ccbNgWBe.s 			page 48


 2680 01a6 00       		.byte	0
 2681 01a7 00       		.byte	0
 2682 01a8 21       		.uleb128 0x21
 2683 01a9 05       		.uleb128 0x5
 2684 01aa 00       		.byte	0
 2685 01ab 03       		.uleb128 0x3
 2686 01ac 0E       		.uleb128 0xe
 2687 01ad 3A       		.uleb128 0x3a
 2688 01ae 0B       		.uleb128 0xb
 2689 01af 3B       		.uleb128 0x3b
 2690 01b0 0B       		.uleb128 0xb
 2691 01b1 49       		.uleb128 0x49
 2692 01b2 13       		.uleb128 0x13
 2693 01b3 02       		.uleb128 0x2
 2694 01b4 17       		.uleb128 0x17
 2695 01b5 00       		.byte	0
 2696 01b6 00       		.byte	0
 2697 01b7 22       		.uleb128 0x22
 2698 01b8 05       		.uleb128 0x5
 2699 01b9 00       		.byte	0
 2700 01ba 03       		.uleb128 0x3
 2701 01bb 08       		.uleb128 0x8
 2702 01bc 3A       		.uleb128 0x3a
 2703 01bd 0B       		.uleb128 0xb
 2704 01be 3B       		.uleb128 0x3b
 2705 01bf 0B       		.uleb128 0xb
 2706 01c0 49       		.uleb128 0x49
 2707 01c1 13       		.uleb128 0x13
 2708 01c2 02       		.uleb128 0x2
 2709 01c3 18       		.uleb128 0x18
 2710 01c4 00       		.byte	0
 2711 01c5 00       		.byte	0
 2712 01c6 23       		.uleb128 0x23
 2713 01c7 0B       		.uleb128 0xb
 2714 01c8 01       		.byte	0x1
 2715 01c9 11       		.uleb128 0x11
 2716 01ca 01       		.uleb128 0x1
 2717 01cb 12       		.uleb128 0x12
 2718 01cc 06       		.uleb128 0x6
 2719 01cd 01       		.uleb128 0x1
 2720 01ce 13       		.uleb128 0x13
 2721 01cf 00       		.byte	0
 2722 01d0 00       		.byte	0
 2723 01d1 24       		.uleb128 0x24
 2724 01d2 34       		.uleb128 0x34
 2725 01d3 00       		.byte	0
 2726 01d4 03       		.uleb128 0x3
 2727 01d5 08       		.uleb128 0x8
 2728 01d6 3A       		.uleb128 0x3a
 2729 01d7 0B       		.uleb128 0xb
 2730 01d8 3B       		.uleb128 0x3b
 2731 01d9 0B       		.uleb128 0xb
 2732 01da 49       		.uleb128 0x49
 2733 01db 13       		.uleb128 0x13
 2734 01dc 02       		.uleb128 0x2
 2735 01dd 18       		.uleb128 0x18
 2736 01de 00       		.byte	0
ARM GAS  /tmp/ccbNgWBe.s 			page 49


 2737 01df 00       		.byte	0
 2738 01e0 25       		.uleb128 0x25
 2739 01e1 1D       		.uleb128 0x1d
 2740 01e2 01       		.byte	0x1
 2741 01e3 31       		.uleb128 0x31
 2742 01e4 13       		.uleb128 0x13
 2743 01e5 52       		.uleb128 0x52
 2744 01e6 01       		.uleb128 0x1
 2745 01e7 55       		.uleb128 0x55
 2746 01e8 17       		.uleb128 0x17
 2747 01e9 58       		.uleb128 0x58
 2748 01ea 0B       		.uleb128 0xb
 2749 01eb 59       		.uleb128 0x59
 2750 01ec 0B       		.uleb128 0xb
 2751 01ed 01       		.uleb128 0x1
 2752 01ee 13       		.uleb128 0x13
 2753 01ef 00       		.byte	0
 2754 01f0 00       		.byte	0
 2755 01f1 26       		.uleb128 0x26
 2756 01f2 0B       		.uleb128 0xb
 2757 01f3 01       		.byte	0x1
 2758 01f4 55       		.uleb128 0x55
 2759 01f5 17       		.uleb128 0x17
 2760 01f6 00       		.byte	0
 2761 01f7 00       		.byte	0
 2762 01f8 27       		.uleb128 0x27
 2763 01f9 34       		.uleb128 0x34
 2764 01fa 00       		.byte	0
 2765 01fb 31       		.uleb128 0x31
 2766 01fc 13       		.uleb128 0x13
 2767 01fd 02       		.uleb128 0x2
 2768 01fe 17       		.uleb128 0x17
 2769 01ff 00       		.byte	0
 2770 0200 00       		.byte	0
 2771 0201 28       		.uleb128 0x28
 2772 0202 898201   		.uleb128 0x4109
 2773 0205 01       		.byte	0x1
 2774 0206 11       		.uleb128 0x11
 2775 0207 01       		.uleb128 0x1
 2776 0208 31       		.uleb128 0x31
 2777 0209 13       		.uleb128 0x13
 2778 020a 00       		.byte	0
 2779 020b 00       		.byte	0
 2780 020c 29       		.uleb128 0x29
 2781 020d 8A8201   		.uleb128 0x410a
 2782 0210 00       		.byte	0
 2783 0211 02       		.uleb128 0x2
 2784 0212 18       		.uleb128 0x18
 2785 0213 9142     		.uleb128 0x2111
 2786 0215 18       		.uleb128 0x18
 2787 0216 00       		.byte	0
 2788 0217 00       		.byte	0
 2789 0218 2A       		.uleb128 0x2a
 2790 0219 34       		.uleb128 0x34
 2791 021a 00       		.byte	0
 2792 021b 03       		.uleb128 0x3
 2793 021c 0E       		.uleb128 0xe
ARM GAS  /tmp/ccbNgWBe.s 			page 50


 2794 021d 3A       		.uleb128 0x3a
 2795 021e 0B       		.uleb128 0xb
 2796 021f 3B       		.uleb128 0x3b
 2797 0220 0B       		.uleb128 0xb
 2798 0221 49       		.uleb128 0x49
 2799 0222 13       		.uleb128 0x13
 2800 0223 02       		.uleb128 0x2
 2801 0224 18       		.uleb128 0x18
 2802 0225 00       		.byte	0
 2803 0226 00       		.byte	0
 2804 0227 2B       		.uleb128 0x2b
 2805 0228 898201   		.uleb128 0x4109
 2806 022b 00       		.byte	0
 2807 022c 11       		.uleb128 0x11
 2808 022d 01       		.uleb128 0x1
 2809 022e 31       		.uleb128 0x31
 2810 022f 13       		.uleb128 0x13
 2811 0230 00       		.byte	0
 2812 0231 00       		.byte	0
 2813 0232 2C       		.uleb128 0x2c
 2814 0233 0B       		.uleb128 0xb
 2815 0234 01       		.byte	0x1
 2816 0235 55       		.uleb128 0x55
 2817 0236 17       		.uleb128 0x17
 2818 0237 01       		.uleb128 0x1
 2819 0238 13       		.uleb128 0x13
 2820 0239 00       		.byte	0
 2821 023a 00       		.byte	0
 2822 023b 2D       		.uleb128 0x2d
 2823 023c 2E       		.uleb128 0x2e
 2824 023d 01       		.byte	0x1
 2825 023e 3F       		.uleb128 0x3f
 2826 023f 19       		.uleb128 0x19
 2827 0240 03       		.uleb128 0x3
 2828 0241 0E       		.uleb128 0xe
 2829 0242 3A       		.uleb128 0x3a
 2830 0243 0B       		.uleb128 0xb
 2831 0244 3B       		.uleb128 0x3b
 2832 0245 05       		.uleb128 0x5
 2833 0246 27       		.uleb128 0x27
 2834 0247 19       		.uleb128 0x19
 2835 0248 11       		.uleb128 0x11
 2836 0249 01       		.uleb128 0x1
 2837 024a 12       		.uleb128 0x12
 2838 024b 06       		.uleb128 0x6
 2839 024c 40       		.uleb128 0x40
 2840 024d 18       		.uleb128 0x18
 2841 024e 9742     		.uleb128 0x2117
 2842 0250 19       		.uleb128 0x19
 2843 0251 01       		.uleb128 0x1
 2844 0252 13       		.uleb128 0x13
 2845 0253 00       		.byte	0
 2846 0254 00       		.byte	0
 2847 0255 2E       		.uleb128 0x2e
 2848 0256 05       		.uleb128 0x5
 2849 0257 00       		.byte	0
 2850 0258 03       		.uleb128 0x3
ARM GAS  /tmp/ccbNgWBe.s 			page 51


 2851 0259 08       		.uleb128 0x8
 2852 025a 3A       		.uleb128 0x3a
 2853 025b 0B       		.uleb128 0xb
 2854 025c 3B       		.uleb128 0x3b
 2855 025d 05       		.uleb128 0x5
 2856 025e 49       		.uleb128 0x49
 2857 025f 13       		.uleb128 0x13
 2858 0260 02       		.uleb128 0x2
 2859 0261 18       		.uleb128 0x18
 2860 0262 00       		.byte	0
 2861 0263 00       		.byte	0
 2862 0264 2F       		.uleb128 0x2f
 2863 0265 34       		.uleb128 0x34
 2864 0266 00       		.byte	0
 2865 0267 03       		.uleb128 0x3
 2866 0268 08       		.uleb128 0x8
 2867 0269 3A       		.uleb128 0x3a
 2868 026a 0B       		.uleb128 0xb
 2869 026b 3B       		.uleb128 0x3b
 2870 026c 05       		.uleb128 0x5
 2871 026d 49       		.uleb128 0x49
 2872 026e 13       		.uleb128 0x13
 2873 026f 02       		.uleb128 0x2
 2874 0270 18       		.uleb128 0x18
 2875 0271 00       		.byte	0
 2876 0272 00       		.byte	0
 2877 0273 30       		.uleb128 0x30
 2878 0274 05       		.uleb128 0x5
 2879 0275 00       		.byte	0
 2880 0276 03       		.uleb128 0x3
 2881 0277 0E       		.uleb128 0xe
 2882 0278 3A       		.uleb128 0x3a
 2883 0279 0B       		.uleb128 0xb
 2884 027a 3B       		.uleb128 0x3b
 2885 027b 05       		.uleb128 0x5
 2886 027c 49       		.uleb128 0x49
 2887 027d 13       		.uleb128 0x13
 2888 027e 02       		.uleb128 0x2
 2889 027f 17       		.uleb128 0x17
 2890 0280 00       		.byte	0
 2891 0281 00       		.byte	0
 2892 0282 31       		.uleb128 0x31
 2893 0283 05       		.uleb128 0x5
 2894 0284 00       		.byte	0
 2895 0285 03       		.uleb128 0x3
 2896 0286 08       		.uleb128 0x8
 2897 0287 3A       		.uleb128 0x3a
 2898 0288 0B       		.uleb128 0xb
 2899 0289 3B       		.uleb128 0x3b
 2900 028a 05       		.uleb128 0x5
 2901 028b 49       		.uleb128 0x49
 2902 028c 13       		.uleb128 0x13
 2903 028d 02       		.uleb128 0x2
 2904 028e 17       		.uleb128 0x17
 2905 028f 00       		.byte	0
 2906 0290 00       		.byte	0
 2907 0291 32       		.uleb128 0x32
ARM GAS  /tmp/ccbNgWBe.s 			page 52


 2908 0292 34       		.uleb128 0x34
 2909 0293 00       		.byte	0
 2910 0294 03       		.uleb128 0x3
 2911 0295 08       		.uleb128 0x8
 2912 0296 3A       		.uleb128 0x3a
 2913 0297 0B       		.uleb128 0xb
 2914 0298 3B       		.uleb128 0x3b
 2915 0299 05       		.uleb128 0x5
 2916 029a 49       		.uleb128 0x49
 2917 029b 13       		.uleb128 0x13
 2918 029c 02       		.uleb128 0x2
 2919 029d 17       		.uleb128 0x17
 2920 029e 00       		.byte	0
 2921 029f 00       		.byte	0
 2922 02a0 33       		.uleb128 0x33
 2923 02a1 1D       		.uleb128 0x1d
 2924 02a2 01       		.byte	0x1
 2925 02a3 31       		.uleb128 0x31
 2926 02a4 13       		.uleb128 0x13
 2927 02a5 52       		.uleb128 0x52
 2928 02a6 01       		.uleb128 0x1
 2929 02a7 55       		.uleb128 0x55
 2930 02a8 17       		.uleb128 0x17
 2931 02a9 58       		.uleb128 0x58
 2932 02aa 0B       		.uleb128 0xb
 2933 02ab 59       		.uleb128 0x59
 2934 02ac 05       		.uleb128 0x5
 2935 02ad 01       		.uleb128 0x1
 2936 02ae 13       		.uleb128 0x13
 2937 02af 00       		.byte	0
 2938 02b0 00       		.byte	0
 2939 02b1 34       		.uleb128 0x34
 2940 02b2 898201   		.uleb128 0x4109
 2941 02b5 01       		.byte	0x1
 2942 02b6 11       		.uleb128 0x11
 2943 02b7 01       		.uleb128 0x1
 2944 02b8 9542     		.uleb128 0x2115
 2945 02ba 19       		.uleb128 0x19
 2946 02bb 31       		.uleb128 0x31
 2947 02bc 13       		.uleb128 0x13
 2948 02bd 00       		.byte	0
 2949 02be 00       		.byte	0
 2950 02bf 35       		.uleb128 0x35
 2951 02c0 2E       		.uleb128 0x2e
 2952 02c1 01       		.byte	0x1
 2953 02c2 3F       		.uleb128 0x3f
 2954 02c3 19       		.uleb128 0x19
 2955 02c4 03       		.uleb128 0x3
 2956 02c5 0E       		.uleb128 0xe
 2957 02c6 3A       		.uleb128 0x3a
 2958 02c7 0B       		.uleb128 0xb
 2959 02c8 3B       		.uleb128 0x3b
 2960 02c9 05       		.uleb128 0x5
 2961 02ca 27       		.uleb128 0x27
 2962 02cb 19       		.uleb128 0x19
 2963 02cc 49       		.uleb128 0x49
 2964 02cd 13       		.uleb128 0x13
ARM GAS  /tmp/ccbNgWBe.s 			page 53


 2965 02ce 11       		.uleb128 0x11
 2966 02cf 01       		.uleb128 0x1
 2967 02d0 12       		.uleb128 0x12
 2968 02d1 06       		.uleb128 0x6
 2969 02d2 40       		.uleb128 0x40
 2970 02d3 18       		.uleb128 0x18
 2971 02d4 9742     		.uleb128 0x2117
 2972 02d6 19       		.uleb128 0x19
 2973 02d7 01       		.uleb128 0x1
 2974 02d8 13       		.uleb128 0x13
 2975 02d9 00       		.byte	0
 2976 02da 00       		.byte	0
 2977 02db 36       		.uleb128 0x36
 2978 02dc 898201   		.uleb128 0x4109
 2979 02df 01       		.byte	0x1
 2980 02e0 11       		.uleb128 0x11
 2981 02e1 01       		.uleb128 0x1
 2982 02e2 31       		.uleb128 0x31
 2983 02e3 13       		.uleb128 0x13
 2984 02e4 01       		.uleb128 0x1
 2985 02e5 13       		.uleb128 0x13
 2986 02e6 00       		.byte	0
 2987 02e7 00       		.byte	0
 2988 02e8 37       		.uleb128 0x37
 2989 02e9 34       		.uleb128 0x34
 2990 02ea 00       		.byte	0
 2991 02eb 03       		.uleb128 0x3
 2992 02ec 0E       		.uleb128 0xe
 2993 02ed 3A       		.uleb128 0x3a
 2994 02ee 0B       		.uleb128 0xb
 2995 02ef 3B       		.uleb128 0x3b
 2996 02f0 0B       		.uleb128 0xb
 2997 02f1 49       		.uleb128 0x49
 2998 02f2 13       		.uleb128 0x13
 2999 02f3 3F       		.uleb128 0x3f
 3000 02f4 19       		.uleb128 0x19
 3001 02f5 3C       		.uleb128 0x3c
 3002 02f6 19       		.uleb128 0x19
 3003 02f7 00       		.byte	0
 3004 02f8 00       		.byte	0
 3005 02f9 38       		.uleb128 0x38
 3006 02fa 2E       		.uleb128 0x2e
 3007 02fb 01       		.byte	0x1
 3008 02fc 3F       		.uleb128 0x3f
 3009 02fd 19       		.uleb128 0x19
 3010 02fe 03       		.uleb128 0x3
 3011 02ff 0E       		.uleb128 0xe
 3012 0300 3A       		.uleb128 0x3a
 3013 0301 0B       		.uleb128 0xb
 3014 0302 3B       		.uleb128 0x3b
 3015 0303 0B       		.uleb128 0xb
 3016 0304 27       		.uleb128 0x27
 3017 0305 19       		.uleb128 0x19
 3018 0306 3C       		.uleb128 0x3c
 3019 0307 19       		.uleb128 0x19
 3020 0308 01       		.uleb128 0x1
 3021 0309 13       		.uleb128 0x13
ARM GAS  /tmp/ccbNgWBe.s 			page 54


 3022 030a 00       		.byte	0
 3023 030b 00       		.byte	0
 3024 030c 39       		.uleb128 0x39
 3025 030d 2E       		.uleb128 0x2e
 3026 030e 00       		.byte	0
 3027 030f 3F       		.uleb128 0x3f
 3028 0310 19       		.uleb128 0x19
 3029 0311 03       		.uleb128 0x3
 3030 0312 0E       		.uleb128 0xe
 3031 0313 3A       		.uleb128 0x3a
 3032 0314 0B       		.uleb128 0xb
 3033 0315 3B       		.uleb128 0x3b
 3034 0316 0B       		.uleb128 0xb
 3035 0317 27       		.uleb128 0x27
 3036 0318 19       		.uleb128 0x19
 3037 0319 3C       		.uleb128 0x3c
 3038 031a 19       		.uleb128 0x19
 3039 031b 00       		.byte	0
 3040 031c 00       		.byte	0
 3041 031d 3A       		.uleb128 0x3a
 3042 031e 2E       		.uleb128 0x2e
 3043 031f 01       		.byte	0x1
 3044 0320 3F       		.uleb128 0x3f
 3045 0321 19       		.uleb128 0x19
 3046 0322 03       		.uleb128 0x3
 3047 0323 0E       		.uleb128 0xe
 3048 0324 3A       		.uleb128 0x3a
 3049 0325 0B       		.uleb128 0xb
 3050 0326 3B       		.uleb128 0x3b
 3051 0327 0B       		.uleb128 0xb
 3052 0328 27       		.uleb128 0x27
 3053 0329 19       		.uleb128 0x19
 3054 032a 49       		.uleb128 0x49
 3055 032b 13       		.uleb128 0x13
 3056 032c 3C       		.uleb128 0x3c
 3057 032d 19       		.uleb128 0x19
 3058 032e 01       		.uleb128 0x1
 3059 032f 13       		.uleb128 0x13
 3060 0330 00       		.byte	0
 3061 0331 00       		.byte	0
 3062 0332 3B       		.uleb128 0x3b
 3063 0333 2E       		.uleb128 0x2e
 3064 0334 01       		.byte	0x1
 3065 0335 3F       		.uleb128 0x3f
 3066 0336 19       		.uleb128 0x19
 3067 0337 03       		.uleb128 0x3
 3068 0338 0E       		.uleb128 0xe
 3069 0339 3A       		.uleb128 0x3a
 3070 033a 0B       		.uleb128 0xb
 3071 033b 3B       		.uleb128 0x3b
 3072 033c 0B       		.uleb128 0xb
 3073 033d 27       		.uleb128 0x27
 3074 033e 19       		.uleb128 0x19
 3075 033f 3C       		.uleb128 0x3c
 3076 0340 19       		.uleb128 0x19
 3077 0341 00       		.byte	0
 3078 0342 00       		.byte	0
ARM GAS  /tmp/ccbNgWBe.s 			page 55


 3079 0343 00       		.byte	0
 3080              		.section	.debug_loc,"",%progbits
 3081              	.Ldebug_loc0:
 3082              	.LLST0:
 3083 0000 00000000 		.4byte	.LVL1
 3084 0004 1A000000 		.4byte	.LVL3
 3085 0008 0100     		.2byte	0x1
 3086 000a 51       		.byte	0x51
 3087 000b 1A000000 		.4byte	.LVL3
 3088 000f 3A000000 		.4byte	.LVL5
 3089 0013 0300     		.2byte	0x3
 3090 0015 7C       		.byte	0x7c
 3091 0016 24       		.sleb128 36
 3092 0017 9F       		.byte	0x9f
 3093 0018 3A000000 		.4byte	.LVL5
 3094 001c 72000000 		.4byte	.LFE8
 3095 0020 0400     		.2byte	0x4
 3096 0022 F3       		.byte	0xf3
 3097 0023 01       		.uleb128 0x1
 3098 0024 51       		.byte	0x51
 3099 0025 9F       		.byte	0x9f
 3100 0026 00000000 		.4byte	0
 3101 002a 00000000 		.4byte	0
 3102              	.LLST1:
 3103 002e 00000000 		.4byte	.LVL1
 3104 0032 2E000000 		.4byte	.LVL4
 3105 0036 0100     		.2byte	0x1
 3106 0038 53       		.byte	0x53
 3107 0039 2E000000 		.4byte	.LVL4
 3108 003d 4A000000 		.4byte	.LVL7
 3109 0041 0200     		.2byte	0x2
 3110 0043 77       		.byte	0x77
 3111 0044 00       		.sleb128 0
 3112 0045 4A000000 		.4byte	.LVL7
 3113 0049 72000000 		.4byte	.LFE8
 3114 004d 0400     		.2byte	0x4
 3115 004f F3       		.byte	0xf3
 3116 0050 01       		.uleb128 0x1
 3117 0051 53       		.byte	0x53
 3118 0052 9F       		.byte	0x9f
 3119 0053 00000000 		.4byte	0
 3120 0057 00000000 		.4byte	0
 3121              	.LLST2:
 3122 005b 00000000 		.4byte	.LVL1
 3123 005f 70000000 		.4byte	.LVL8
 3124 0063 0200     		.2byte	0x2
 3125 0065 91       		.byte	0x91
 3126 0066 00       		.sleb128 0
 3127 0067 70000000 		.4byte	.LVL8
 3128 006b 72000000 		.4byte	.LFE8
 3129 006f 0200     		.2byte	0x2
 3130 0071 7D       		.byte	0x7d
 3131 0072 00       		.sleb128 0
 3132 0073 00000000 		.4byte	0
 3133 0077 00000000 		.4byte	0
 3134              	.LLST3:
 3135 007b 00000000 		.4byte	.LVL9
ARM GAS  /tmp/ccbNgWBe.s 			page 56


 3136 007f 1E000000 		.4byte	.LVL12
 3137 0083 0100     		.2byte	0x1
 3138 0085 50       		.byte	0x50
 3139 0086 1E000000 		.4byte	.LVL12
 3140 008a 88000000 		.4byte	.LFE9
 3141 008e 0100     		.2byte	0x1
 3142 0090 54       		.byte	0x54
 3143 0091 00000000 		.4byte	0
 3144 0095 00000000 		.4byte	0
 3145              	.LLST4:
 3146 0099 00000000 		.4byte	.LVL9
 3147 009d 24000000 		.4byte	.LVL13
 3148 00a1 0100     		.2byte	0x1
 3149 00a3 51       		.byte	0x51
 3150 00a4 24000000 		.4byte	.LVL13
 3151 00a8 48000000 		.4byte	.LVL15
 3152 00ac 0300     		.2byte	0x3
 3153 00ae 70       		.byte	0x70
 3154 00af 24       		.sleb128 36
 3155 00b0 9F       		.byte	0x9f
 3156 00b1 48000000 		.4byte	.LVL15
 3157 00b5 88000000 		.4byte	.LFE9
 3158 00b9 0400     		.2byte	0x4
 3159 00bb F3       		.byte	0xf3
 3160 00bc 01       		.uleb128 0x1
 3161 00bd 51       		.byte	0x51
 3162 00be 9F       		.byte	0x9f
 3163 00bf 00000000 		.4byte	0
 3164 00c3 00000000 		.4byte	0
 3165              	.LLST5:
 3166 00c7 00000000 		.4byte	.LVL9
 3167 00cb 7B000000 		.4byte	.LVL16-1
 3168 00cf 0100     		.2byte	0x1
 3169 00d1 52       		.byte	0x52
 3170 00d2 7B000000 		.4byte	.LVL16-1
 3171 00d6 88000000 		.4byte	.LFE9
 3172 00da 0400     		.2byte	0x4
 3173 00dc F3       		.byte	0xf3
 3174 00dd 01       		.uleb128 0x1
 3175 00de 52       		.byte	0x52
 3176 00df 9F       		.byte	0x9f
 3177 00e0 00000000 		.4byte	0
 3178 00e4 00000000 		.4byte	0
 3179              	.LLST6:
 3180 00e8 00000000 		.4byte	.LVL9
 3181 00ec 0A000000 		.4byte	.LVL10
 3182 00f0 0100     		.2byte	0x1
 3183 00f2 53       		.byte	0x53
 3184 00f3 0A000000 		.4byte	.LVL10
 3185 00f7 7B000000 		.4byte	.LVL16-1
 3186 00fb 0100     		.2byte	0x1
 3187 00fd 5C       		.byte	0x5c
 3188 00fe 7B000000 		.4byte	.LVL16-1
 3189 0102 88000000 		.4byte	.LFE9
 3190 0106 0400     		.2byte	0x4
 3191 0108 F3       		.byte	0xf3
 3192 0109 01       		.uleb128 0x1
ARM GAS  /tmp/ccbNgWBe.s 			page 57


 3193 010a 53       		.byte	0x53
 3194 010b 9F       		.byte	0x9f
 3195 010c 00000000 		.4byte	0
 3196 0110 00000000 		.4byte	0
 3197              	.LLST7:
 3198 0114 0E000000 		.4byte	.LVL11
 3199 0118 7B000000 		.4byte	.LVL16-1
 3200 011c 0100     		.2byte	0x1
 3201 011e 5C       		.byte	0x5c
 3202 011f 7B000000 		.4byte	.LVL16-1
 3203 0123 88000000 		.4byte	.LFE9
 3204 0127 0400     		.2byte	0x4
 3205 0129 F3       		.byte	0xf3
 3206 012a 01       		.uleb128 0x1
 3207 012b 53       		.byte	0x53
 3208 012c 9F       		.byte	0x9f
 3209 012d 00000000 		.4byte	0
 3210 0131 00000000 		.4byte	0
 3211              	.LLST8:
 3212 0135 0E000000 		.4byte	.LVL11
 3213 0139 7B000000 		.4byte	.LVL16-1
 3214 013d 0100     		.2byte	0x1
 3215 013f 52       		.byte	0x52
 3216 0140 7B000000 		.4byte	.LVL16-1
 3217 0144 88000000 		.4byte	.LFE9
 3218 0148 0400     		.2byte	0x4
 3219 014a F3       		.byte	0xf3
 3220 014b 01       		.uleb128 0x1
 3221 014c 52       		.byte	0x52
 3222 014d 9F       		.byte	0x9f
 3223 014e 00000000 		.4byte	0
 3224 0152 00000000 		.4byte	0
 3225              	.LLST9:
 3226 0156 0E000000 		.4byte	.LVL11
 3227 015a 24000000 		.4byte	.LVL13
 3228 015e 0100     		.2byte	0x1
 3229 0160 51       		.byte	0x51
 3230 0161 24000000 		.4byte	.LVL13
 3231 0165 48000000 		.4byte	.LVL15
 3232 0169 0300     		.2byte	0x3
 3233 016b 70       		.byte	0x70
 3234 016c 24       		.sleb128 36
 3235 016d 9F       		.byte	0x9f
 3236 016e 48000000 		.4byte	.LVL15
 3237 0172 88000000 		.4byte	.LFE9
 3238 0176 0400     		.2byte	0x4
 3239 0178 F3       		.byte	0xf3
 3240 0179 01       		.uleb128 0x1
 3241 017a 51       		.byte	0x51
 3242 017b 9F       		.byte	0x9f
 3243 017c 00000000 		.4byte	0
 3244 0180 00000000 		.4byte	0
 3245              	.LLST10:
 3246 0184 0E000000 		.4byte	.LVL11
 3247 0188 1E000000 		.4byte	.LVL12
 3248 018c 0100     		.2byte	0x1
 3249 018e 50       		.byte	0x50
ARM GAS  /tmp/ccbNgWBe.s 			page 58


 3250 018f 1E000000 		.4byte	.LVL12
 3251 0193 88000000 		.4byte	.LFE9
 3252 0197 0100     		.2byte	0x1
 3253 0199 54       		.byte	0x54
 3254 019a 00000000 		.4byte	0
 3255 019e 00000000 		.4byte	0
 3256              	.LLST12:
 3257 01a2 46000000 		.4byte	.LVL14
 3258 01a6 7B000000 		.4byte	.LVL16-1
 3259 01aa 0100     		.2byte	0x1
 3260 01ac 52       		.byte	0x52
 3261 01ad 7B000000 		.4byte	.LVL16-1
 3262 01b1 88000000 		.4byte	.LFE9
 3263 01b5 0400     		.2byte	0x4
 3264 01b7 F3       		.byte	0xf3
 3265 01b8 01       		.uleb128 0x1
 3266 01b9 52       		.byte	0x52
 3267 01ba 9F       		.byte	0x9f
 3268 01bb 00000000 		.4byte	0
 3269 01bf 00000000 		.4byte	0
 3270              	.LLST13:
 3271 01c3 00000000 		.4byte	.LVL17
 3272 01c7 25000000 		.4byte	.LVL19-1
 3273 01cb 0100     		.2byte	0x1
 3274 01cd 50       		.byte	0x50
 3275 01ce 25000000 		.4byte	.LVL19-1
 3276 01d2 30000000 		.4byte	.LFE10
 3277 01d6 0400     		.2byte	0x4
 3278 01d8 F3       		.byte	0xf3
 3279 01d9 01       		.uleb128 0x1
 3280 01da 50       		.byte	0x50
 3281 01db 9F       		.byte	0x9f
 3282 01dc 00000000 		.4byte	0
 3283 01e0 00000000 		.4byte	0
 3284              	.LLST14:
 3285 01e4 00000000 		.4byte	.LVL20
 3286 01e8 0F000000 		.4byte	.LVL21-1
 3287 01ec 0100     		.2byte	0x1
 3288 01ee 50       		.byte	0x50
 3289 01ef 0F000000 		.4byte	.LVL21-1
 3290 01f3 1A000000 		.4byte	.LFE11
 3291 01f7 0100     		.2byte	0x1
 3292 01f9 54       		.byte	0x54
 3293 01fa 00000000 		.4byte	0
 3294 01fe 00000000 		.4byte	0
 3295              	.LLST15:
 3296 0202 00000000 		.4byte	.LVL23
 3297 0206 0C000000 		.4byte	.LVL24
 3298 020a 0100     		.2byte	0x1
 3299 020c 50       		.byte	0x50
 3300 020d 0C000000 		.4byte	.LVL24
 3301 0211 0F000000 		.4byte	.LVL25-1
 3302 0215 0100     		.2byte	0x1
 3303 0217 51       		.byte	0x51
 3304 0218 0F000000 		.4byte	.LVL25-1
 3305 021c 18000000 		.4byte	.LFE13
 3306 0220 0400     		.2byte	0x4
ARM GAS  /tmp/ccbNgWBe.s 			page 59


 3307 0222 F3       		.byte	0xf3
 3308 0223 01       		.uleb128 0x1
 3309 0224 50       		.byte	0x50
 3310 0225 9F       		.byte	0x9f
 3311 0226 00000000 		.4byte	0
 3312 022a 00000000 		.4byte	0
 3313              	.LLST16:
 3314 022e 00000000 		.4byte	.LVL26
 3315 0232 12000000 		.4byte	.LVL27
 3316 0236 0100     		.2byte	0x1
 3317 0238 50       		.byte	0x50
 3318 0239 12000000 		.4byte	.LVL27
 3319 023d 14000000 		.4byte	.LVL28
 3320 0241 0600     		.2byte	0x6
 3321 0243 70       		.byte	0x70
 3322 0244 00       		.sleb128 0
 3323 0245 71       		.byte	0x71
 3324 0246 00       		.sleb128 0
 3325 0247 1C       		.byte	0x1c
 3326 0248 9F       		.byte	0x9f
 3327 0249 14000000 		.4byte	.LVL28
 3328 024d 1B000000 		.4byte	.LVL29-1
 3329 0251 0100     		.2byte	0x1
 3330 0253 51       		.byte	0x51
 3331 0254 00000000 		.4byte	0
 3332 0258 00000000 		.4byte	0
 3333              	.LLST17:
 3334 025c 00000000 		.4byte	.LVL31
 3335 0260 18000000 		.4byte	.LVL33
 3336 0264 0100     		.2byte	0x1
 3337 0266 50       		.byte	0x50
 3338 0267 18000000 		.4byte	.LVL33
 3339 026b 42000000 		.4byte	.LFE17
 3340 026f 0400     		.2byte	0x4
 3341 0271 F3       		.byte	0xf3
 3342 0272 01       		.uleb128 0x1
 3343 0273 50       		.byte	0x50
 3344 0274 9F       		.byte	0x9f
 3345 0275 00000000 		.4byte	0
 3346 0279 00000000 		.4byte	0
 3347              	.LLST18:
 3348 027d 0C000000 		.4byte	.LVL32
 3349 0281 3E000000 		.4byte	.LVL36
 3350 0285 0100     		.2byte	0x1
 3351 0287 54       		.byte	0x54
 3352 0288 00000000 		.4byte	0
 3353 028c 00000000 		.4byte	0
 3354              	.LLST19:
 3355 0290 18000000 		.4byte	.LVL33
 3356 0294 28000000 		.4byte	.LVL35
 3357 0298 0300     		.2byte	0x3
 3358 029a 74       		.byte	0x74
 3359 029b 28       		.sleb128 40
 3360 029c 9F       		.byte	0x9f
 3361 029d 00000000 		.4byte	0
 3362 02a1 00000000 		.4byte	0
 3363              	.LLST20:
ARM GAS  /tmp/ccbNgWBe.s 			page 60


 3364 02a5 18000000 		.4byte	.LVL33
 3365 02a9 21000000 		.4byte	.LVL34-1
 3366 02ad 0100     		.2byte	0x1
 3367 02af 53       		.byte	0x53
 3368 02b0 00000000 		.4byte	0
 3369 02b4 00000000 		.4byte	0
 3370              	.LLST21:
 3371 02b8 00000000 		.4byte	.LVL38
 3372 02bc 09000000 		.4byte	.LVL39-1
 3373 02c0 0100     		.2byte	0x1
 3374 02c2 50       		.byte	0x50
 3375 02c3 09000000 		.4byte	.LVL39-1
 3376 02c7 0A000000 		.4byte	.LFE16
 3377 02cb 0400     		.2byte	0x4
 3378 02cd F3       		.byte	0xf3
 3379 02ce 01       		.uleb128 0x1
 3380 02cf 50       		.byte	0x50
 3381 02d0 9F       		.byte	0x9f
 3382 02d1 00000000 		.4byte	0
 3383 02d5 00000000 		.4byte	0
 3384              	.LLST22:
 3385 02d9 00000000 		.4byte	.LVL40
 3386 02dd 1E000000 		.4byte	.LVL42
 3387 02e1 0100     		.2byte	0x1
 3388 02e3 50       		.byte	0x50
 3389 02e4 1E000000 		.4byte	.LVL42
 3390 02e8 38000000 		.4byte	.LFE18
 3391 02ec 0100     		.2byte	0x1
 3392 02ee 54       		.byte	0x54
 3393 02ef 00000000 		.4byte	0
 3394 02f3 00000000 		.4byte	0
 3395              	.LLST23:
 3396 02f7 1C000000 		.4byte	.LVL41
 3397 02fb 1E000000 		.4byte	.LVL42
 3398 02ff 0300     		.2byte	0x3
 3399 0301 70       		.byte	0x70
 3400 0302 28       		.sleb128 40
 3401 0303 9F       		.byte	0x9f
 3402 0304 1E000000 		.4byte	.LVL42
 3403 0308 26000000 		.4byte	.LVL43
 3404 030c 0300     		.2byte	0x3
 3405 030e 74       		.byte	0x74
 3406 030f 28       		.sleb128 40
 3407 0310 9F       		.byte	0x9f
 3408 0311 00000000 		.4byte	0
 3409 0315 00000000 		.4byte	0
 3410              	.LLST24:
 3411 0319 1C000000 		.4byte	.LVL41
 3412 031d 25000000 		.4byte	.LVL43-1
 3413 0321 0100     		.2byte	0x1
 3414 0323 53       		.byte	0x53
 3415 0324 00000000 		.4byte	0
 3416 0328 00000000 		.4byte	0
 3417              		.section	.debug_aranges,"",%progbits
 3418 0000 74000000 		.4byte	0x74
 3419 0004 0200     		.2byte	0x2
 3420 0006 00000000 		.4byte	.Ldebug_info0
ARM GAS  /tmp/ccbNgWBe.s 			page 61


 3421 000a 04       		.byte	0x4
 3422 000b 00       		.byte	0
 3423 000c 0000     		.2byte	0
 3424 000e 0000     		.2byte	0
 3425 0010 00000000 		.4byte	.LFB7
 3426 0014 4A000000 		.4byte	.LFE7-.LFB7
 3427 0018 00000000 		.4byte	.LFB8
 3428 001c 72000000 		.4byte	.LFE8-.LFB8
 3429 0020 00000000 		.4byte	.LFB9
 3430 0024 88000000 		.4byte	.LFE9-.LFB9
 3431 0028 00000000 		.4byte	.LFB10
 3432 002c 30000000 		.4byte	.LFE10-.LFB10
 3433 0030 00000000 		.4byte	.LFB11
 3434 0034 1A000000 		.4byte	.LFE11-.LFB11
 3435 0038 00000000 		.4byte	.LFB12
 3436 003c 16000000 		.4byte	.LFE12-.LFB12
 3437 0040 00000000 		.4byte	.LFB13
 3438 0044 18000000 		.4byte	.LFE13-.LFB13
 3439 0048 00000000 		.4byte	.LFB14
 3440 004c 24000000 		.4byte	.LFE14-.LFB14
 3441 0050 00000000 		.4byte	.LFB15
 3442 0054 28000000 		.4byte	.LFE15-.LFB15
 3443 0058 00000000 		.4byte	.LFB17
 3444 005c 42000000 		.4byte	.LFE17-.LFB17
 3445 0060 00000000 		.4byte	.LFB16
 3446 0064 0A000000 		.4byte	.LFE16-.LFB16
 3447 0068 00000000 		.4byte	.LFB18
 3448 006c 38000000 		.4byte	.LFE18-.LFB18
 3449 0070 00000000 		.4byte	0
 3450 0074 00000000 		.4byte	0
 3451              		.section	.debug_ranges,"",%progbits
 3452              	.Ldebug_ranges0:
 3453 0000 04000000 		.4byte	.LBB16
 3454 0004 0C000000 		.4byte	.LBE16
 3455 0008 10000000 		.4byte	.LBB21
 3456 000c 14000000 		.4byte	.LBE21
 3457 0010 28000000 		.4byte	.LBB22
 3458 0014 3A000000 		.4byte	.LBE22
 3459 0018 3E000000 		.4byte	.LBB23
 3460 001c 6C000000 		.4byte	.LBE23
 3461 0020 00000000 		.4byte	0
 3462 0024 00000000 		.4byte	0
 3463 0028 0E000000 		.4byte	.LBB25
 3464 002c 46000000 		.4byte	.LBE25
 3465 0030 48000000 		.4byte	.LBB41
 3466 0034 66000000 		.4byte	.LBE41
 3467 0038 68000000 		.4byte	.LBB42
 3468 003c 78000000 		.4byte	.LBE42
 3469 0040 00000000 		.4byte	0
 3470 0044 00000000 		.4byte	0
 3471 0048 0E000000 		.4byte	.LBB27
 3472 004c 1A000000 		.4byte	.LBE27
 3473 0050 24000000 		.4byte	.LBB34
 3474 0054 26000000 		.4byte	.LBE34
 3475 0058 28000000 		.4byte	.LBB35
 3476 005c 2C000000 		.4byte	.LBE35
 3477 0060 30000000 		.4byte	.LBB36
ARM GAS  /tmp/ccbNgWBe.s 			page 62


 3478 0064 3C000000 		.4byte	.LBE36
 3479 0068 48000000 		.4byte	.LBB37
 3480 006c 66000000 		.4byte	.LBE37
 3481 0070 68000000 		.4byte	.LBB38
 3482 0074 78000000 		.4byte	.LBE38
 3483 0078 00000000 		.4byte	0
 3484 007c 00000000 		.4byte	0
 3485 0080 02000000 		.4byte	.LBB46
 3486 0084 04000000 		.4byte	.LBE46
 3487 0088 06000000 		.4byte	.LBB47
 3488 008c 0A000000 		.4byte	.LBE47
 3489 0090 00000000 		.4byte	0
 3490 0094 00000000 		.4byte	0
 3491 0098 08000000 		.4byte	.LBB50
 3492 009c 0A000000 		.4byte	.LBE50
 3493 00a0 10000000 		.4byte	.LBB51
 3494 00a4 16000000 		.4byte	.LBE51
 3495 00a8 00000000 		.4byte	0
 3496 00ac 00000000 		.4byte	0
 3497 00b0 18000000 		.4byte	.LBB58
 3498 00b4 1A000000 		.4byte	.LBE58
 3499 00b8 1C000000 		.4byte	.LBB61
 3500 00bc 1E000000 		.4byte	.LBE61
 3501 00c0 00000000 		.4byte	0
 3502 00c4 00000000 		.4byte	0
 3503 00c8 18000000 		.4byte	.LBB64
 3504 00cc 1A000000 		.4byte	.LBE64
 3505 00d0 1E000000 		.4byte	.LBB67
 3506 00d4 22000000 		.4byte	.LBE67
 3507 00d8 00000000 		.4byte	0
 3508 00dc 00000000 		.4byte	0
 3509 00e0 00000000 		.4byte	.LFB7
 3510 00e4 4A000000 		.4byte	.LFE7
 3511 00e8 00000000 		.4byte	.LFB8
 3512 00ec 72000000 		.4byte	.LFE8
 3513 00f0 00000000 		.4byte	.LFB9
 3514 00f4 88000000 		.4byte	.LFE9
 3515 00f8 00000000 		.4byte	.LFB10
 3516 00fc 30000000 		.4byte	.LFE10
 3517 0100 00000000 		.4byte	.LFB11
 3518 0104 1A000000 		.4byte	.LFE11
 3519 0108 00000000 		.4byte	.LFB12
 3520 010c 16000000 		.4byte	.LFE12
 3521 0110 00000000 		.4byte	.LFB13
 3522 0114 18000000 		.4byte	.LFE13
 3523 0118 00000000 		.4byte	.LFB14
 3524 011c 24000000 		.4byte	.LFE14
 3525 0120 00000000 		.4byte	.LFB15
 3526 0124 28000000 		.4byte	.LFE15
 3527 0128 00000000 		.4byte	.LFB17
 3528 012c 42000000 		.4byte	.LFE17
 3529 0130 00000000 		.4byte	.LFB16
 3530 0134 0A000000 		.4byte	.LFE16
 3531 0138 00000000 		.4byte	.LFB18
 3532 013c 38000000 		.4byte	.LFE18
 3533 0140 00000000 		.4byte	0
 3534 0144 00000000 		.4byte	0
ARM GAS  /tmp/ccbNgWBe.s 			page 63


 3535              		.section	.debug_line,"",%progbits
 3536              	.Ldebug_line0:
 3537 0000 56030000 		.section	.debug_str,"MS",%progbits,1
 3537      02006901 
 3537      00000201 
 3537      FB0E0D00 
 3537      01010101 
 3538              	.LASF71:
 3539 0000 7466756E 		.ascii	"tfunc_t\000"
 3539      635F7400 
 3540              	.LASF35:
 3541 0008 705F6D73 		.ascii	"p_msg\000"
 3541      6700
 3542              	.LASF2:
 3543 000e 73697A65 		.ascii	"size_t\000"
 3543      5F7400
 3544              	.LASF72:
 3545 0015 7072696F 		.ascii	"prio\000"
 3545      00
 3546              	.LASF66:
 3547 001a 7264796D 		.ascii	"rdymsg\000"
 3547      736700
 3548              	.LASF89:
 3549 0021 76746C69 		.ascii	"vtlist\000"
 3549      737400
 3550              	.LASF86:
 3551 0028 63685468 		.ascii	"chThdExitS\000"
 3551      64457869 
 3551      745300
 3552              	.LASF12:
 3553 0033 6C6F6E67 		.ascii	"long long unsigned int\000"
 3553      206C6F6E 
 3553      6720756E 
 3553      7369676E 
 3553      65642069 
 3554              	.LASF67:
 3555 004a 65786974 		.ascii	"exitcode\000"
 3555      636F6465 
 3555      00
 3556              	.LASF24:
 3557 0053 705F7072 		.ascii	"p_prio\000"
 3557      696F00
 3558              	.LASF11:
 3559 005a 6C6F6E67 		.ascii	"long long int\000"
 3559      206C6F6E 
 3559      6720696E 
 3559      7400
 3560              	.LASF1:
 3561 0068 7369676E 		.ascii	"signed char\000"
 3561      65642063 
 3561      68617200 
 3562              	.LASF87:
 3563 0074 63685468 		.ascii	"chThdExit\000"
 3563      64457869 
 3563      7400
 3564              	.LASF39:
 3565 007e 705F6D70 		.ascii	"p_mpool\000"
ARM GAS  /tmp/ccbNgWBe.s 			page 64


 3565      6F6F6C00 
 3566              	.LASF63:
 3567 0086 6D5F7175 		.ascii	"m_queue\000"
 3567      65756500 
 3568              	.LASF74:
 3569 008e 63685468 		.ascii	"chThdCreateI\000"
 3569      64437265 
 3569      61746549 
 3569      00
 3570              	.LASF8:
 3571 009b 6C6F6E67 		.ascii	"long int\000"
 3571      20696E74 
 3571      00
 3572              	.LASF15:
 3573 00a4 74737461 		.ascii	"tstate_t\000"
 3573      74655F74 
 3573      00
 3574              	.LASF26:
 3575 00ad 705F6E65 		.ascii	"p_newer\000"
 3575      77657200 
 3576              	.LASF100:
 3577 00b5 6C697374 		.ascii	"list_remove\000"
 3577      5F72656D 
 3577      6F766500 
 3578              	.LASF92:
 3579 00c1 63685363 		.ascii	"chSchRescheduleS\000"
 3579      68526573 
 3579      63686564 
 3579      756C6553 
 3579      00
 3580              	.LASF58:
 3581 00d2 725F6E65 		.ascii	"r_newer\000"
 3581      77657200 
 3582              	.LASF42:
 3583 00da 72656761 		.ascii	"regarm_t\000"
 3583      726D5F74 
 3583      00
 3584              	.LASF49:
 3585 00e3 76745F70 		.ascii	"vt_prev\000"
 3585      72657600 
 3586              	.LASF97:
 3587 00eb 474E5520 		.ascii	"GNU C 4.8.1 -mcpu=cortex-m3 -mno-thumb-interwork -m"
 3587      4320342E 
 3587      382E3120 
 3587      2D6D6370 
 3587      753D636F 
 3588 011e 7468756D 		.ascii	"thumb -mfloat-abi=soft -ggdb -O2 -fomit-frame-point"
 3588      62202D6D 
 3588      666C6F61 
 3588      742D6162 
 3588      693D736F 
 3589 0151 6572202D 		.ascii	"er -ffunction-sections -fdata-sections -fno-common\000"
 3589      6666756E 
 3589      6374696F 
 3589      6E2D7365 
 3589      6374696F 
 3590              	.LASF77:
ARM GAS  /tmp/ccbNgWBe.s 			page 65


 3591 0184 63685468 		.ascii	"chThdSetPriority\000"
 3591      64536574 
 3591      5072696F 
 3591      72697479 
 3591      00
 3592              	.LASF99:
 3593 0195 2F686F6D 		.ascii	"/home/daniofb/Programming/ChibiOS-RT/demos/ARMCM3-L"
 3593      652F6461 
 3593      6E696F66 
 3593      622F5072 
 3593      6F677261 
 3594 01c8 50433137 		.ascii	"PC1768-AKAIKABA\000"
 3594      36382D41 
 3594      4B41494B 
 3594      41424100 
 3595              	.LASF0:
 3596 01d8 756E7369 		.ascii	"unsigned int\000"
 3596      676E6564 
 3596      20696E74 
 3596      00
 3597              	.LASF48:
 3598 01e5 76745F6E 		.ascii	"vt_next\000"
 3598      65787400 
 3599              	.LASF10:
 3600 01ed 6C6F6E67 		.ascii	"long unsigned int\000"
 3600      20756E73 
 3600      69676E65 
 3600      6420696E 
 3600      7400
 3601              	.LASF44:
 3602 01ff 636F6E74 		.ascii	"context\000"
 3602      65787400 
 3603              	.LASF75:
 3604 0207 73697A65 		.ascii	"size\000"
 3604      00
 3605              	.LASF6:
 3606 020c 73686F72 		.ascii	"short unsigned int\000"
 3606      7420756E 
 3606      7369676E 
 3606      65642069 
 3606      6E7400
 3607              	.LASF95:
 3608 021f 63685363 		.ascii	"chSchWakeupS\000"
 3608      6857616B 
 3608      65757053 
 3608      00
 3609              	.LASF18:
 3610 022c 6D73675F 		.ascii	"msg_t\000"
 3610      7400
 3611              	.LASF78:
 3612 0232 6E657770 		.ascii	"newprio\000"
 3612      72696F00 
 3613              	.LASF14:
 3614 023a 746D6F64 		.ascii	"tmode_t\000"
 3614      655F7400 
 3615              	.LASF81:
 3616 0242 63685468 		.ascii	"chThdTerminate\000"
ARM GAS  /tmp/ccbNgWBe.s 			page 66


 3616      64546572 
 3616      6D696E61 
 3616      746500
 3617              	.LASF41:
 3618 0251 54687265 		.ascii	"ThreadsList\000"
 3618      6164734C 
 3618      69737400 
 3619              	.LASF19:
 3620 025d 6576656E 		.ascii	"eventmask_t\000"
 3620      746D6173 
 3620      6B5F7400 
 3621              	.LASF62:
 3622 0269 4D757465 		.ascii	"Mutex\000"
 3622      7800
 3623              	.LASF79:
 3624 026f 6F6C6470 		.ascii	"oldprio\000"
 3624      72696F00 
 3625              	.LASF76:
 3626 0277 63685468 		.ascii	"chThdCreateStatic\000"
 3626      64437265 
 3626      61746553 
 3626      74617469 
 3626      6300
 3627              	.LASF50:
 3628 0289 76745F74 		.ascii	"vt_time\000"
 3628      696D6500 
 3629              	.LASF45:
 3630 0291 73697A65 		.ascii	"sizetype\000"
 3630      74797065 
 3630      00
 3631              	.LASF51:
 3632 029a 76745F66 		.ascii	"vt_func\000"
 3632      756E6300 
 3633              	.LASF80:
 3634 02a2 63685468 		.ascii	"chThdResume\000"
 3634      64526573 
 3634      756D6500 
 3635              	.LASF93:
 3636 02ae 63685363 		.ascii	"chSchDoRescheduleBehind\000"
 3636      68446F52 
 3636      65736368 
 3636      6564756C 
 3636      65426568 
 3637              	.LASF27:
 3638 02c6 705F6F6C 		.ascii	"p_older\000"
 3638      64657200 
 3639              	.LASF57:
 3640 02ce 725F6374 		.ascii	"r_ctx\000"
 3640      7800
 3641              	.LASF40:
 3642 02d4 54687265 		.ascii	"ThreadsQueue\000"
 3642      61647351 
 3642      75657565 
 3642      00
 3643              	.LASF83:
 3644 02e1 74696D65 		.ascii	"time\000"
 3644      00
ARM GAS  /tmp/ccbNgWBe.s 			page 67


 3645              	.LASF101:
 3646 02e6 6C697374 		.ascii	"list_insert\000"
 3646      5F696E73 
 3646      65727400 
 3647              	.LASF60:
 3648 02f2 725F6375 		.ascii	"r_current\000"
 3648      7272656E 
 3648      7400
 3649              	.LASF59:
 3650 02fc 725F6F6C 		.ascii	"r_older\000"
 3650      64657200 
 3651              	.LASF84:
 3652 0304 63685468 		.ascii	"chThdSleepUntil\000"
 3652      64536C65 
 3652      6570556E 
 3652      74696C00 
 3653              	.LASF16:
 3654 0314 74726566 		.ascii	"trefs_t\000"
 3654      735F7400 
 3655              	.LASF23:
 3656 031c 705F7072 		.ascii	"p_prev\000"
 3656      657600
 3657              	.LASF17:
 3658 0323 74707269 		.ascii	"tprio_t\000"
 3658      6F5F7400 
 3659              	.LASF13:
 3660 032b 5F426F6F 		.ascii	"_Bool\000"
 3660      6C00
 3661              	.LASF7:
 3662 0331 696E7433 		.ascii	"int32_t\000"
 3662      325F7400 
 3663              	.LASF4:
 3664 0339 756E7369 		.ascii	"unsigned char\000"
 3664      676E6564 
 3664      20636861 
 3664      7200
 3665              	.LASF37:
 3666 0347 705F6D74 		.ascii	"p_mtxlist\000"
 3666      786C6973 
 3666      7400
 3667              	.LASF5:
 3668 0351 73686F72 		.ascii	"short int\000"
 3668      7420696E 
 3668      7400
 3669              	.LASF29:
 3670 035b 705F7374 		.ascii	"p_state\000"
 3670      61746500 
 3671              	.LASF56:
 3672 0363 725F7072 		.ascii	"r_prio\000"
 3672      696F00
 3673              	.LASF69:
 3674 036a 65776D61 		.ascii	"ewmask\000"
 3674      736B00
 3675              	.LASF22:
 3676 0371 705F6E65 		.ascii	"p_next\000"
 3676      787400
 3677              	.LASF30:
ARM GAS  /tmp/ccbNgWBe.s 			page 68


 3678 0378 705F666C 		.ascii	"p_flags\000"
 3678      61677300 
 3679              	.LASF102:
 3680 0380 63685468 		.ascii	"chThdRelease\000"
 3680      6452656C 
 3680      65617365 
 3680      00
 3681              	.LASF21:
 3682 038d 54687265 		.ascii	"Thread\000"
 3682      616400
 3683              	.LASF96:
 3684 0394 63685363 		.ascii	"chSchGoSleepS\000"
 3684      68476F53 
 3684      6C656570 
 3684      5300
 3685              	.LASF36:
 3686 03a2 705F6570 		.ascii	"p_epending\000"
 3686      656E6469 
 3686      6E6700
 3687              	.LASF9:
 3688 03ad 75696E74 		.ascii	"uint32_t\000"
 3688      33325F74 
 3688      00
 3689              	.LASF73:
 3690 03b6 5F746872 		.ascii	"_thread_init\000"
 3690      6561645F 
 3690      696E6974 
 3690      00
 3691              	.LASF55:
 3692 03c3 725F7175 		.ascii	"r_queue\000"
 3692      65756500 
 3693              	.LASF47:
 3694 03cb 56697274 		.ascii	"VirtualTimer\000"
 3694      75616C54 
 3694      696D6572 
 3694      00
 3695              	.LASF70:
 3696 03d8 63686172 		.ascii	"char\000"
 3696      00
 3697              	.LASF94:
 3698 03dd 63685363 		.ascii	"chSchReadyI\000"
 3698      68526561 
 3698      64794900 
 3699              	.LASF65:
 3700 03e9 6D5F6E65 		.ascii	"m_next\000"
 3700      787400
 3701              	.LASF20:
 3702 03f0 73797374 		.ascii	"systime_t\000"
 3702      696D655F 
 3702      7400
 3703              	.LASF38:
 3704 03fa 705F7265 		.ascii	"p_realprio\000"
 3704      616C7072 
 3704      696F00
 3705              	.LASF46:
 3706 0405 76746675 		.ascii	"vtfunc_t\000"
 3706      6E635F74 
ARM GAS  /tmp/ccbNgWBe.s 			page 69


 3706      00
 3707              	.LASF85:
 3708 040e 63685468 		.ascii	"chThdYield\000"
 3708      64596965 
 3708      6C6400
 3709              	.LASF32:
 3710 0419 705F7469 		.ascii	"p_time\000"
 3710      6D6500
 3711              	.LASF43:
 3712 0420 696E7463 		.ascii	"intctx\000"
 3712      747800
 3713              	.LASF34:
 3714 0427 705F6D73 		.ascii	"p_msgqueue\000"
 3714      67717565 
 3714      756500
 3715              	.LASF88:
 3716 0432 63685468 		.ascii	"chThdWait\000"
 3716      64576169 
 3716      7400
 3717              	.LASF52:
 3718 043c 76745F70 		.ascii	"vt_par\000"
 3718      617200
 3719              	.LASF82:
 3720 0443 63685468 		.ascii	"chThdSleep\000"
 3720      64536C65 
 3720      657000
 3721              	.LASF31:
 3722 044e 705F7265 		.ascii	"p_refs\000"
 3722      667300
 3723              	.LASF61:
 3724 0455 52656164 		.ascii	"ReadyList\000"
 3724      794C6973 
 3724      7400
 3725              	.LASF90:
 3726 045f 726C6973 		.ascii	"rlist\000"
 3726      7400
 3727              	.LASF3:
 3728 0465 75696E74 		.ascii	"uint8_t\000"
 3728      385F7400 
 3729              	.LASF98:
 3730 046d 2E2E2F2E 		.ascii	"../../os/kernel/src/chthreads.c\000"
 3730      2E2F6F73 
 3730      2F6B6572 
 3730      6E656C2F 
 3730      7372632F 
 3731              	.LASF68:
 3732 048d 77746F62 		.ascii	"wtobjp\000"
 3732      6A7000
 3733              	.LASF28:
 3734 0494 705F6E61 		.ascii	"p_name\000"
 3734      6D6500
 3735              	.LASF53:
 3736 049b 76745F73 		.ascii	"vt_systime\000"
 3736      79737469 
 3736      6D6500
 3737              	.LASF91:
 3738 04a6 63685363 		.ascii	"chSchGoSleepTimeoutS\000"
ARM GAS  /tmp/ccbNgWBe.s 			page 70


 3738      68476F53 
 3738      6C656570 
 3738      54696D65 
 3738      6F757453 
 3739              	.LASF54:
 3740 04bb 56544C69 		.ascii	"VTList\000"
 3740      737400
 3741              	.LASF64:
 3742 04c2 6D5F6F77 		.ascii	"m_owner\000"
 3742      6E657200 
 3743              	.LASF25:
 3744 04ca 705F6374 		.ascii	"p_ctx\000"
 3744      7800
 3745              	.LASF33:
 3746 04d0 705F7761 		.ascii	"p_waiting\000"
 3746      6974696E 
 3746      6700
 3747              		.ident	"GCC: (GNU) 4.8.1"
ARM GAS  /tmp/ccbNgWBe.s 			page 71


DEFINED SYMBOLS
                            *ABS*:0000000000000000 chthreads.c
     /tmp/ccbNgWBe.s:19     .text._thread_init:0000000000000000 $t
     /tmp/ccbNgWBe.s:24     .text._thread_init:0000000000000000 _thread_init
     /tmp/ccbNgWBe.s:91     .text.chThdCreateI:0000000000000000 $t
     /tmp/ccbNgWBe.s:96     .text.chThdCreateI:0000000000000000 chThdCreateI
     /tmp/ccbNgWBe.s:201    .text.chThdCreateStatic:0000000000000000 $t
     /tmp/ccbNgWBe.s:206    .text.chThdCreateStatic:0000000000000000 chThdCreateStatic
     /tmp/ccbNgWBe.s:357    .text.chThdSetPriority:0000000000000000 $t
     /tmp/ccbNgWBe.s:362    .text.chThdSetPriority:0000000000000000 chThdSetPriority
     /tmp/ccbNgWBe.s:418    .text.chThdResume:0000000000000000 $t
     /tmp/ccbNgWBe.s:423    .text.chThdResume:0000000000000000 chThdResume
     /tmp/ccbNgWBe.s:466    .text.chThdTerminate:0000000000000000 $t
     /tmp/ccbNgWBe.s:471    .text.chThdTerminate:0000000000000000 chThdTerminate
     /tmp/ccbNgWBe.s:508    .text.chThdSleep:0000000000000000 $t
     /tmp/ccbNgWBe.s:513    .text.chThdSleep:0000000000000000 chThdSleep
     /tmp/ccbNgWBe.s:552    .text.chThdSleepUntil:0000000000000000 $t
     /tmp/ccbNgWBe.s:557    .text.chThdSleepUntil:0000000000000000 chThdSleepUntil
     /tmp/ccbNgWBe.s:602    .text.chThdYield:0000000000000000 $t
     /tmp/ccbNgWBe.s:607    .text.chThdYield:0000000000000000 chThdYield
     /tmp/ccbNgWBe.s:651    .text.chThdExitS:0000000000000000 $t
     /tmp/ccbNgWBe.s:656    .text.chThdExitS:0000000000000000 chThdExitS
     /tmp/ccbNgWBe.s:731    .text.chThdExit:0000000000000000 $t
     /tmp/ccbNgWBe.s:736    .text.chThdExit:0000000000000000 chThdExit
     /tmp/ccbNgWBe.s:759    .text.chThdWait:0000000000000000 $t
     /tmp/ccbNgWBe.s:764    .text.chThdWait:0000000000000000 chThdWait
                     .debug_frame:0000000000000010 $d

UNDEFINED SYMBOLS
rlist
_port_thread_start
chSchWakeupS
chSchRescheduleS
chSchGoSleepTimeoutS
vtlist
chSchDoRescheduleBehind
chSchReadyI
chSchGoSleepS
chThdRelease
