ARM GAS  /tmp/ccaih6BB.s 			page 1


   1              		.syntax unified
   2              		.cpu cortex-m3
   3              		.fpu softvfp
   4              		.eabi_attribute 20, 1
   5              		.eabi_attribute 21, 1
   6              		.eabi_attribute 23, 3
   7              		.eabi_attribute 24, 1
   8              		.eabi_attribute 25, 1
   9              		.eabi_attribute 26, 1
  10              		.eabi_attribute 30, 2
  11              		.eabi_attribute 34, 1
  12              		.eabi_attribute 18, 4
  13              		.thumb
  14              		.file	"crt0.c"
  15              		.text
  16              	.Ltext0:
  17              		.cfi_sections	.debug_frame
  18              		.section	.text.__early_init,"ax",%progbits
  19              		.align	2
  20              		.weak	__early_init
  21              		.thumb
  22              		.thumb_func
  23              		.type	__early_init, %function
  24              	__early_init:
  25              	.LFB0:
  26              		.file 1 "../../os/ports/GCC/ARMCMx/crt0.c"
  27              		.loc 1 227 0
  28              		.cfi_startproc
  29              		@ args = 0, pretend = 0, frame = 0
  30              		@ frame_needed = 0, uses_anonymous_args = 0
  31              		@ link register save eliminated.
  32 0000 7047     		bx	lr
  33              		.cfi_endproc
  34              	.LFE0:
  35              		.size	__early_init, .-__early_init
  36 0002 00BF     		.section	.text.__late_init,"ax",%progbits
  37              		.align	2
  38              		.weak	__late_init
  39              		.thumb
  40              		.thumb_func
  41              		.type	__late_init, %function
  42              	__late_init:
  43              	.LFB1:
  44              		.loc 1 239 0
  45              		.cfi_startproc
  46              		@ args = 0, pretend = 0, frame = 0
  47              		@ frame_needed = 0, uses_anonymous_args = 0
  48              		@ link register save eliminated.
  49 0000 7047     		bx	lr
  50              		.cfi_endproc
  51              	.LFE1:
  52              		.size	__late_init, .-__late_init
  53 0002 00BF     		.section	.text._default_exit,"ax",%progbits
  54              		.align	2
  55              		.weak	_default_exit
  56              		.thumb
  57              		.thumb_func
ARM GAS  /tmp/ccaih6BB.s 			page 2


  58              		.type	_default_exit, %function
  59              	_default_exit:
  60              	.LFB2:
  61              		.loc 1 250 0
  62              		.cfi_startproc
  63              		@ Naked Function: prologue and epilogue provided by programmer.
  64              		@ args = 0, pretend = 0, frame = 0
  65              		@ frame_needed = 0, uses_anonymous_args = 0
  66              	.L4:
  67 0000 FEE7     		b	.L4
  68              		.cfi_endproc
  69              	.LFE2:
  70              		.size	_default_exit, .-_default_exit
  71 0002 00BF     		.section	.text.ResetHandler,"ax",%progbits
  72              		.align	2
  73              		.global	ResetHandler
  74              		.thumb
  75              		.thumb_func
  76              		.type	ResetHandler, %function
  77              	ResetHandler:
  78              	.LFB3:
  79              		.loc 1 261 0
  80              		.cfi_startproc
  81              		@ Naked Function: prologue and epilogue provided by programmer.
  82              		@ args = 0, pretend = 0, frame = 0
  83              		@ frame_needed = 0, uses_anonymous_args = 0
  84              		.loc 1 267 0
  85              	@ 267 "../../os/ports/GCC/ARMCMx/crt0.c" 1
  86 0000 72B6     		cpsid   i
  87              	@ 0 "" 2
  88              		.loc 1 268 0
  89              		.thumb
  90 0002 40F20000 		movw	r0, #:lower16:__process_stack_end__
  91 0006 C0F20000 		movt	r0, #:upper16:__process_stack_end__
  92              	.LVL0:
  93              		.loc 1 269 0
  94              	@ 269 "../../os/ports/GCC/ARMCMx/crt0.c" 1
  95 000a 80F30988 		msr     PSP, r0
  96              	@ 0 "" 2
  97              	.LVL1:
  98              		.loc 1 289 0
  99              		.thumb
 100 000e 0223     		movs	r3, #2
 101              	@ 289 "../../os/ports/GCC/ARMCMx/crt0.c" 1
 102 0010 83F31488 		msr     CONTROL, r3
 103              	@ 0 "" 2
 104              		.loc 1 290 0
 105              	@ 290 "../../os/ports/GCC/ARMCMx/crt0.c" 1
 106 0014 BFF36F8F 		isb
 107              	@ 0 "" 2
 108              	.LVL2:
 109              		.thumb
 110              	.LBB2:
 111              		.loc 1 294 0
 112 0018 40F20003 		movw	r3, #:lower16:__main_stack_base__
 113 001c 40F20002 		movw	r2, #:lower16:__main_stack_end__
 114 0020 C0F20003 		movt	r3, #:upper16:__main_stack_base__
ARM GAS  /tmp/ccaih6BB.s 			page 3


 115 0024 C0F20002 		movt	r2, #:upper16:__main_stack_end__
 116 0028 9342     		cmp	r3, r2
 117 002a 0BD2     		bcs	.L9
 118 002c D943     		mvns	r1, r3
 119 002e 1144     		add	r1, r1, r2
 120 0030 21F00301 		bic	r1, r1, #3
 121 0034 1944     		add	r1, r1, r3
 122 0036 4FF05532 		mov	r2, #1431655765
 123 003a 043B     		subs	r3, r3, #4
 124              	.LVL3:
 125              	.L10:
 126              		.loc 1 294 0 is_stmt 0 discriminator 2
 127 003c 43F8042F 		str	r2, [r3, #4]!
 128              	.LVL4:
 129 0040 8B42     		cmp	r3, r1
 130 0042 FBD1     		bne	.L10
 131              	.LVL5:
 132              	.L9:
 133              	.LBE2:
 134              	.LBB3:
 135              		.loc 1 297 0 is_stmt 1
 136 0044 40F20003 		movw	r3, #:lower16:__process_stack_base__
 137 0048 C0F20003 		movt	r3, #:upper16:__process_stack_base__
 138 004c 8342     		cmp	r3, r0
 139 004e 0CD2     		bcs	.L8
 140 0050 3749     		ldr	r1, .L27
 141 0052 1A1D     		adds	r2, r3, #4
 142 0054 891A     		subs	r1, r1, r2
 143 0056 21F00301 		bic	r1, r1, #3
 144 005a 1944     		add	r1, r1, r3
 145 005c 4FF05532 		mov	r2, #1431655765
 146 0060 043B     		subs	r3, r3, #4
 147              	.LVL6:
 148              	.L13:
 149              		.loc 1 297 0 is_stmt 0 discriminator 2
 150 0062 43F8042F 		str	r2, [r3, #4]!
 151              	.LVL7:
 152 0066 8B42     		cmp	r3, r1
 153 0068 FBD1     		bne	.L13
 154              	.LVL8:
 155              	.L8:
 156              	.LBE3:
 157              		.loc 1 303 0 is_stmt 1
 158 006a FFF7FEFF 		bl	__early_init
 159              	.LVL9:
 160              	.LBB4:
 161              		.loc 1 312 0
 162 006e 40F20001 		movw	r1, #:lower16:_data
 163 0072 40F20003 		movw	r3, #:lower16:_edata
 164 0076 C0F20001 		movt	r1, #:upper16:_data
 165 007a C0F20003 		movt	r3, #:upper16:_edata
 166 007e 9942     		cmp	r1, r3
 167 0080 0ED2     		bcs	.L12
 168 0082 CC43     		mvns	r4, r1
 169 0084 1C44     		add	r4, r4, r3
 170 0086 24F00304 		bic	r4, r4, #3
 171 008a 40F20000 		movw	r0, #:lower16:_textdata
ARM GAS  /tmp/ccaih6BB.s 			page 4


 172 008e 0434     		adds	r4, r4, #4
 173 0090 C0F20000 		movt	r0, #:upper16:_textdata
 174 0094 0023     		movs	r3, #0
 175              	.LVL10:
 176              	.L16:
 177              		.loc 1 313 0
 178 0096 C258     		ldr	r2, [r0, r3]
 179 0098 CA50     		str	r2, [r1, r3]
 180 009a 0433     		adds	r3, r3, #4
 181              	.LVL11:
 182              		.loc 1 312 0
 183 009c A342     		cmp	r3, r4
 184 009e FAD1     		bne	.L16
 185              	.LVL12:
 186              	.L12:
 187              	.LBE4:
 188              	.LBB5:
 189              		.loc 1 319 0
 190 00a0 40F20003 		movw	r3, #:lower16:_bss_start
 191 00a4 40F20002 		movw	r2, #:lower16:_bss_end
 192 00a8 C0F20003 		movt	r3, #:upper16:_bss_start
 193 00ac C0F20002 		movt	r2, #:upper16:_bss_end
 194 00b0 9342     		cmp	r3, r2
 195 00b2 0AD2     		bcs	.L15
 196 00b4 D943     		mvns	r1, r3
 197 00b6 1144     		add	r1, r1, r2
 198 00b8 21F00301 		bic	r1, r1, #3
 199 00bc 1944     		add	r1, r1, r3
 200 00be 0022     		movs	r2, #0
 201 00c0 043B     		subs	r3, r3, #4
 202              	.LVL13:
 203              	.L19:
 204              		.loc 1 319 0 is_stmt 0 discriminator 2
 205 00c2 43F8042F 		str	r2, [r3, #4]!
 206              	.LVL14:
 207 00c6 8B42     		cmp	r3, r1
 208 00c8 FBD1     		bne	.L19
 209              	.LVL15:
 210              	.L15:
 211              	.LBE5:
 212              		.loc 1 323 0 is_stmt 1
 213 00ca FFF7FEFF 		bl	__late_init
 214              	.LVL16:
 215              	.LBB6:
 216              		.loc 1 329 0
 217 00ce 40F20005 		movw	r5, #:lower16:__init_array_start
 218 00d2 40F20003 		movw	r3, #:lower16:__init_array_end
 219 00d6 C0F20005 		movt	r5, #:upper16:__init_array_start
 220 00da C0F20003 		movt	r3, #:upper16:__init_array_end
 221 00de 9D42     		cmp	r5, r3
 222 00e0 0BD2     		bcs	.L18
 223 00e2 EE43     		mvns	r6, r5
 224 00e4 1E44     		add	r6, r6, r3
 225 00e6 B608     		lsrs	r6, r6, #2
 226 00e8 0136     		adds	r6, r6, #1
 227 00ea 043D     		subs	r5, r5, #4
 228 00ec 0024     		movs	r4, #0
ARM GAS  /tmp/ccaih6BB.s 			page 5


 229              	.LVL17:
 230              	.L22:
 231 00ee 0134     		adds	r4, r4, #1
 232              		.loc 1 330 0
 233 00f0 55F8043F 		ldr	r3, [r5, #4]!
 234              	.LVL18:
 235 00f4 9847     		blx	r3
 236              	.LVL19:
 237              		.loc 1 329 0
 238 00f6 B442     		cmp	r4, r6
 239 00f8 F9D1     		bne	.L22
 240              	.LVL20:
 241              	.L18:
 242              	.LBE6:
 243              		.loc 1 337 0
 244 00fa FFF7FEFF 		bl	main
 245              	.LVL21:
 246              	.LBB7:
 247              		.loc 1 343 0
 248 00fe 40F20005 		movw	r5, #:lower16:__fini_array_start
 249 0102 40F20003 		movw	r3, #:lower16:__fini_array_end
 250 0106 C0F20005 		movt	r5, #:upper16:__fini_array_start
 251 010a C0F20003 		movt	r3, #:upper16:__fini_array_end
 252 010e 9D42     		cmp	r5, r3
 253 0110 0BD2     		bcs	.L21
 254 0112 EE43     		mvns	r6, r5
 255 0114 1E44     		add	r6, r6, r3
 256 0116 B608     		lsrs	r6, r6, #2
 257 0118 0136     		adds	r6, r6, #1
 258 011a 043D     		subs	r5, r5, #4
 259 011c 0024     		movs	r4, #0
 260              	.LVL22:
 261              	.L23:
 262 011e 0134     		adds	r4, r4, #1
 263              		.loc 1 344 0
 264 0120 55F8043F 		ldr	r3, [r5, #4]!
 265              	.LVL23:
 266 0124 9847     		blx	r3
 267              	.LVL24:
 268              		.loc 1 343 0
 269 0126 B442     		cmp	r4, r6
 270 0128 F9D1     		bne	.L23
 271              	.LVL25:
 272              	.L21:
 273              	.LBE7:
 274              		.loc 1 351 0
 275 012a FFF7FEFF 		bl	_default_exit
 276              	.LVL26:
 277              		.loc 1 352 0
 278              	.L28:
 279 012e 00BF     		.align	2
 280              	.L27:
 281 0130 03000000 		.word	__process_stack_end__+3
 282              		.cfi_endproc
 283              	.LFE3:
 284              		.size	ResetHandler, .-ResetHandler
 285              		.text
ARM GAS  /tmp/ccaih6BB.s 			page 6


 286              	.Letext0:
 287              		.file 2 "/home/daniofb/arm-cm3-eabi/arm-cm3-eabi/sys-include/stdint.h"