ARM GAS  /tmp/ccaih6BB.s 			page 1


   1              		.syntax unified
   2              		.cpu cortex-m3
   3              		.fpu softvfp
   4              		.eabi_attribute 20, 1
   5              		.eabi_attribute 21, 1
   6              		.eabi_attribute 23, 3
   7              		.eabi_attribute 24, 1
   8              		.eabi_attribute 25, 1
   9              		.eabi_attribute 26, 1
  10              		.eabi_attribute 30, 2
  11              		.eabi_attribute 34, 1
  12              		.eabi_attribute 18, 4
  13              		.thumb
  14              		.file	"crt0.c"
  15              		.text
  16              	.Ltext0:
  17              		.cfi_sections	.debug_frame
  18              		.section	.text.__early_init,"ax",%progbits
  19              		.align	2
  20              		.weak	__early_init
  21              		.thumb
  22              		.thumb_func
  23              		.type	__early_init, %function
  24              	__early_init:
  25              	.LFB0:
  26              		.file 1 "../../os/ports/GCC/ARMCMx/crt0.c"
  27              		.loc 1 227 0
  28              		.cfi_startproc
  29              		@ args = 0, pretend = 0, frame = 0
  30              		@ frame_needed = 0, uses_anonymous_args = 0
  31              		@ link register save eliminated.
  32 0000 7047     		bx	lr
  33              		.cfi_endproc
  34              	.LFE0:
  35              		.size	__early_init, .-__early_init
  36 0002 00BF     		.section	.text.__late_init,"ax",%progbits
  37              		.align	2
  38              		.weak	__late_init
  39              		.thumb
  40              		.thumb_func
  41              		.type	__late_init, %function
  42              	__late_init:
  43              	.LFB1:
  44              		.loc 1 239 0
  45              		.cfi_startproc
  46              		@ args = 0, pretend = 0, frame = 0
  47              		@ frame_needed = 0, uses_anonymous_args = 0
  48              		@ link register save eliminated.
  49 0000 7047     		bx	lr
  50              		.cfi_endproc
  51              	.LFE1:
  52              		.size	__late_init, .-__late_init
  53 0002 00BF     		.section	.text._default_exit,"ax",%progbits
  54              		.align	2
  55              		.weak	_default_exit
  56              		.thumb
  57              		.thumb_func
ARM GAS  /tmp/ccaih6BB.s 			page 2


  58              		.type	_default_exit, %function
  59              	_default_exit:
  60              	.LFB2:
  61              		.loc 1 250 0
  62              		.cfi_startproc
  63              		@ Naked Function: prologue and epilogue provided by programmer.
  64              		@ args = 0, pretend = 0, frame = 0
  65              		@ frame_needed = 0, uses_anonymous_args = 0
  66              	.L4:
  67 0000 FEE7     		b	.L4
  68              		.cfi_endproc
  69              	.LFE2:
  70              		.size	_default_exit, .-_default_exit
  71 0002 00BF     		.section	.text.ResetHandler,"ax",%progbits
  72              		.align	2
  73              		.global	ResetHandler
  74              		.thumb
  75              		.thumb_func
  76              		.type	ResetHandler, %function
  77              	ResetHandler:
  78              	.LFB3:
  79              		.loc 1 261 0
  80              		.cfi_startproc
  81              		@ Naked Function: prologue and epilogue provided by programmer.
  82              		@ args = 0, pretend = 0, frame = 0
  83              		@ frame_needed = 0, uses_anonymous_args = 0
  84              		.loc 1 267 0
  85              	@ 267 "../../os/ports/GCC/ARMCMx/crt0.c" 1
  86 0000 72B6     		cpsid   i
  87              	@ 0 "" 2
  88              		.loc 1 268 0
  89              		.thumb
  90 0002 40F20000 		movw	r0, #:lower16:__process_stack_end__
  91 0006 C0F20000 		movt	r0, #:upper16:__process_stack_end__
  92              	.LVL0:
  93              		.loc 1 269 0
  94              	@ 269 "../../os/ports/GCC/ARMCMx/crt0.c" 1
  95 000a 80F30988 		msr     PSP, r0
  96              	@ 0 "" 2
  97              	.LVL1:
  98              		.loc 1 289 0
  99              		.thumb
 100 000e 0223     		movs	r3, #2
 101              	@ 289 "../../os/ports/GCC/ARMCMx/crt0.c" 1
 102 0010 83F31488 		msr     CONTROL, r3
 103              	@ 0 "" 2
 104              		.loc 1 290 0
 105              	@ 290 "../../os/ports/GCC/ARMCMx/crt0.c" 1
 106 0014 BFF36F8F 		isb
 107              	@ 0 "" 2
 108              	.LVL2:
 109              		.thumb
 110              	.LBB2:
 111              		.loc 1 294 0
 112 0018 40F20003 		movw	r3, #:lower16:__main_stack_base__
 113 001c 40F20002 		movw	r2, #:lower16:__main_stack_end__
 114 0020 C0F20003 		movt	r3, #:upper16:__main_stack_base__
ARM GAS  /tmp/ccaih6BB.s 			page 3


 115 0024 C0F20002 		movt	r2, #:upper16:__main_stack_end__
 116 0028 9342     		cmp	r3, r2
 117 002a 0BD2     		bcs	.L9
 118 002c D943     		mvns	r1, r3
 119 002e 1144     		add	r1, r1, r2
 120 0030 21F00301 		bic	r1, r1, #3
 121 0034 1944     		add	r1, r1, r3
 122 0036 4FF05532 		mov	r2, #1431655765
 123 003a 043B     		subs	r3, r3, #4
 124              	.LVL3:
 125              	.L10:
 126              		.loc 1 294 0 is_stmt 0 discriminator 2
 127 003c 43F8042F 		str	r2, [r3, #4]!
 128              	.LVL4:
 129 0040 8B42     		cmp	r3, r1
 130 0042 FBD1     		bne	.L10
 131              	.LVL5:
 132              	.L9:
 133              	.LBE2:
 134              	.LBB3:
 135              		.loc 1 297 0 is_stmt 1
 136 0044 40F20003 		movw	r3, #:lower16:__process_stack_base__
 137 0048 C0F20003 		movt	r3, #:upper16:__process_stack_base__
 138 004c 8342     		cmp	r3, r0
 139 004e 0CD2     		bcs	.L8
 140 0050 3749     		ldr	r1, .L27
 141 0052 1A1D     		adds	r2, r3, #4
 142 0054 891A     		subs	r1, r1, r2
 143 0056 21F00301 		bic	r1, r1, #3
 144 005a 1944     		add	r1, r1, r3
 145 005c 4FF05532 		mov	r2, #1431655765
 146 0060 043B     		subs	r3, r3, #4
 147              	.LVL6:
 148              	.L13:
 149              		.loc 1 297 0 is_stmt 0 discriminator 2
 150 0062 43F8042F 		str	r2, [r3, #4]!
 151              	.LVL7:
 152 0066 8B42     		cmp	r3, r1
 153 0068 FBD1     		bne	.L13
 154              	.LVL8:
 155              	.L8:
 156              	.LBE3:
 157              		.loc 1 303 0 is_stmt 1
 158 006a FFF7FEFF 		bl	__early_init
 159              	.LVL9:
 160              	.LBB4:
 161              		.loc 1 312 0
 162 006e 40F20001 		movw	r1, #:lower16:_data
 163 0072 40F20003 		movw	r3, #:lower16:_edata
 164 0076 C0F20001 		movt	r1, #:upper16:_data
 165 007a C0F20003 		movt	r3, #:upper16:_edata
 166 007e 9942     		cmp	r1, r3
 167 0080 0ED2     		bcs	.L12
 168 0082 CC43     		mvns	r4, r1
 169 0084 1C44     		add	r4, r4, r3
 170 0086 24F00304 		bic	r4, r4, #3
 171 008a 40F20000 		movw	r0, #:lower16:_textdata
ARM GAS  /tmp/ccaih6BB.s 			page 4


 172 008e 0434     		adds	r4, r4, #4
 173 0090 C0F20000 		movt	r0, #:upper16:_textdata
 174 0094 0023     		movs	r3, #0
 175              	.LVL10:
 176              	.L16:
 177              		.loc 1 313 0
 178 0096 C258     		ldr	r2, [r0, r3]
 179 0098 CA50     		str	r2, [r1, r3]
 180 009a 0433     		adds	r3, r3, #4
 181              	.LVL11:
 182              		.loc 1 312 0
 183 009c A342     		cmp	r3, r4
 184 009e FAD1     		bne	.L16
 185              	.LVL12:
 186              	.L12:
 187              	.LBE4:
 188              	.LBB5:
 189              		.loc 1 319 0
 190 00a0 40F20003 		movw	r3, #:lower16:_bss_start
 191 00a4 40F20002 		movw	r2, #:lower16:_bss_end
 192 00a8 C0F20003 		movt	r3, #:upper16:_bss_start
 193 00ac C0F20002 		movt	r2, #:upper16:_bss_end
 194 00b0 9342     		cmp	r3, r2
 195 00b2 0AD2     		bcs	.L15
 196 00b4 D943     		mvns	r1, r3
 197 00b6 1144     		add	r1, r1, r2
 198 00b8 21F00301 		bic	r1, r1, #3
 199 00bc 1944     		add	r1, r1, r3
 200 00be 0022     		movs	r2, #0
 201 00c0 043B     		subs	r3, r3, #4
 202              	.LVL13:
 203              	.L19:
 204              		.loc 1 319 0 is_stmt 0 discriminator 2
 205 00c2 43F8042F 		str	r2, [r3, #4]!
 206              	.LVL14:
 207 00c6 8B42     		cmp	r3, r1
 208 00c8 FBD1     		bne	.L19
 209              	.LVL15:
 210              	.L15:
 211              	.LBE5:
 212              		.loc 1 323 0 is_stmt 1
 213 00ca FFF7FEFF 		bl	__late_init
 214              	.LVL16:
 215              	.LBB6:
 216              		.loc 1 329 0
 217 00ce 40F20005 		movw	r5, #:lower16:__init_array_start
 218 00d2 40F20003 		movw	r3, #:lower16:__init_array_end
 219 00d6 C0F20005 		movt	r5, #:upper16:__init_array_start
 220 00da C0F20003 		movt	r3, #:upper16:__init_array_end
 221 00de 9D42     		cmp	r5, r3
 222 00e0 0BD2     		bcs	.L18
 223 00e2 EE43     		mvns	r6, r5
 224 00e4 1E44     		add	r6, r6, r3
 225 00e6 B608     		lsrs	r6, r6, #2
 226 00e8 0136     		adds	r6, r6, #1
 227 00ea 043D     		subs	r5, r5, #4
 228 00ec 0024     		movs	r4, #0
ARM GAS  /tmp/ccaih6BB.s 			page 5


 229              	.LVL17:
 230              	.L22:
 231 00ee 0134     		adds	r4, r4, #1
 232              		.loc 1 330 0
 233 00f0 55F8043F 		ldr	r3, [r5, #4]!
 234              	.LVL18:
 235 00f4 9847     		blx	r3
 236              	.LVL19:
 237              		.loc 1 329 0
 238 00f6 B442     		cmp	r4, r6
 239 00f8 F9D1     		bne	.L22
 240              	.LVL20:
 241              	.L18:
 242              	.LBE6:
 243              		.loc 1 337 0
 244 00fa FFF7FEFF 		bl	main
 245              	.LVL21:
 246              	.LBB7:
 247              		.loc 1 343 0
 248 00fe 40F20005 		movw	r5, #:lower16:__fini_array_start
 249 0102 40F20003 		movw	r3, #:lower16:__fini_array_end
 250 0106 C0F20005 		movt	r5, #:upper16:__fini_array_start
 251 010a C0F20003 		movt	r3, #:upper16:__fini_array_end
 252 010e 9D42     		cmp	r5, r3
 253 0110 0BD2     		bcs	.L21
 254 0112 EE43     		mvns	r6, r5
 255 0114 1E44     		add	r6, r6, r3
 256 0116 B608     		lsrs	r6, r6, #2
 257 0118 0136     		adds	r6, r6, #1
 258 011a 043D     		subs	r5, r5, #4
 259 011c 0024     		movs	r4, #0
 260              	.LVL22:
 261              	.L23:
 262 011e 0134     		adds	r4, r4, #1
 263              		.loc 1 344 0
 264 0120 55F8043F 		ldr	r3, [r5, #4]!
 265              	.LVL23:
 266 0124 9847     		blx	r3
 267              	.LVL24:
 268              		.loc 1 343 0
 269 0126 B442     		cmp	r4, r6
 270 0128 F9D1     		bne	.L23
 271              	.LVL25:
 272              	.L21:
 273              	.LBE7:
 274              		.loc 1 351 0
 275 012a FFF7FEFF 		bl	_default_exit
 276              	.LVL26:
 277              		.loc 1 352 0
 278              	.L28:
 279 012e 00BF     		.align	2
 280              	.L27:
 281 0130 03000000 		.word	__process_stack_end__+3
 282              		.cfi_endproc
 283              	.LFE3:
 284              		.size	ResetHandler, .-ResetHandler
 285              		.text
ARM GAS  /tmp/ccaih6BB.s 			page 6


 286              	.Letext0:
 287              		.file 2 "/home/daniofb/arm-cm3-eabi/arm-cm3-eabi/sys-include/stdint.h"
 288              		.section	.debug_info,"",%progbits
 289              	.Ldebug_info0:
 290 0000 A4020000 		.4byte	0x2a4
 291 0004 0400     		.2byte	0x4
 292 0006 00000000 		.4byte	.Ldebug_abbrev0
 293 000a 04       		.byte	0x4
 294 000b 01       		.uleb128 0x1
 295 000c D9000000 		.4byte	.LASF29
 296 0010 01       		.byte	0x1
 297 0011 6B000000 		.4byte	.LASF30
 298 0015 F8010000 		.4byte	.LASF31
 299 0019 00000000 		.4byte	.Ldebug_ranges0+0
 300 001d 00000000 		.4byte	0
 301 0021 00000000 		.4byte	.Ldebug_line0
 302 0025 02       		.uleb128 0x2
 303 0026 01       		.byte	0x1
 304 0027 06       		.byte	0x6
 305 0028 5B020000 		.4byte	.LASF0
 306 002c 03       		.uleb128 0x3
 307 002d AD010000 		.4byte	.LASF5
 308 0031 02       		.byte	0x2
 309 0032 2A       		.byte	0x2a
 310 0033 37000000 		.4byte	0x37
 311 0037 02       		.uleb128 0x2
 312 0038 01       		.byte	0x1
 313 0039 08       		.byte	0x8
 314 003a 51000000 		.4byte	.LASF1
 315 003e 02       		.uleb128 0x2
 316 003f 02       		.byte	0x2
 317 0040 05       		.byte	0x5
 318 0041 EE010000 		.4byte	.LASF2
 319 0045 02       		.uleb128 0x2
 320 0046 02       		.byte	0x2
 321 0047 07       		.byte	0x7
 322 0048 99000000 		.4byte	.LASF3
 323 004c 02       		.uleb128 0x2
 324 004d 04       		.byte	0x4
 325 004e 05       		.byte	0x5
 326 004f 4C020000 		.4byte	.LASF4
 327 0053 03       		.uleb128 0x3
 328 0054 43020000 		.4byte	.LASF6
 329 0058 02       		.byte	0x2
 330 0059 50       		.byte	0x50
 331 005a 5E000000 		.4byte	0x5e
 332 005e 02       		.uleb128 0x2
 333 005f 04       		.byte	0x4
 334 0060 07       		.byte	0x7
 335 0061 72010000 		.4byte	.LASF7
 336 0065 02       		.uleb128 0x2
 337 0066 08       		.byte	0x8
 338 0067 05       		.byte	0x5
 339 0068 CC010000 		.4byte	.LASF8
 340 006c 02       		.uleb128 0x2
 341 006d 08       		.byte	0x8
 342 006e 07       		.byte	0x7
ARM GAS  /tmp/ccaih6BB.s 			page 7


 343 006f 96010000 		.4byte	.LASF9
 344 0073 04       		.uleb128 0x4
 345 0074 04       		.byte	0x4
 346 0075 05       		.byte	0x5
 347 0076 696E7400 		.ascii	"int\000"
 348 007a 02       		.uleb128 0x2
 349 007b 04       		.byte	0x4
 350 007c 07       		.byte	0x7
 351 007d 89010000 		.4byte	.LASF10
 352 0081 03       		.uleb128 0x3
 353 0082 3B020000 		.4byte	.LASF11
 354 0086 01       		.byte	0x1
 355 0087 2D       		.byte	0x2d
 356 0088 8C000000 		.4byte	0x8c
 357 008c 05       		.uleb128 0x5
 358 008d 04       		.byte	0x4
 359 008e 92000000 		.4byte	0x92
 360 0092 06       		.uleb128 0x6
 361 0093 03       		.uleb128 0x3
 362 0094 3A000000 		.4byte	.LASF12
 363 0098 01       		.byte	0x1
 364 0099 2E       		.byte	0x2e
 365 009a 9E000000 		.4byte	0x9e
 366 009e 05       		.uleb128 0x5
 367 009f 04       		.byte	0x4
 368 00a0 81000000 		.4byte	0x81
 369 00a4 07       		.uleb128 0x7
 370 00a5 BF010000 		.4byte	.LASF13
 371 00a9 01       		.byte	0x1
 372 00aa E3       		.byte	0xe3
 373 00ab 00000000 		.4byte	.LFB0
 374 00af 02000000 		.4byte	.LFE0-.LFB0
 375 00b3 01       		.uleb128 0x1
 376 00b4 9C       		.byte	0x9c
 377 00b5 07       		.uleb128 0x7
 378 00b6 5F000000 		.4byte	.LASF14
 379 00ba 01       		.byte	0x1
 380 00bb EF       		.byte	0xef
 381 00bc 00000000 		.4byte	.LFB1
 382 00c0 02000000 		.4byte	.LFE1-.LFB1
 383 00c4 01       		.uleb128 0x1
 384 00c5 9C       		.byte	0x9c
 385 00c6 07       		.uleb128 0x7
 386 00c7 43000000 		.4byte	.LASF15
 387 00cb 01       		.byte	0x1
 388 00cc FA       		.byte	0xfa
 389 00cd 00000000 		.4byte	.LFB2
 390 00d1 02000000 		.4byte	.LFE2-.LFB2
 391 00d5 01       		.uleb128 0x1
 392 00d6 9C       		.byte	0x9c
 393 00d7 08       		.uleb128 0x8
 394 00d8 8C000000 		.4byte	.LASF32
 395 00dc 01       		.byte	0x1
 396 00dd 0501     		.2byte	0x105
 397 00df 00000000 		.4byte	.LFB3
 398 00e3 34010000 		.4byte	.LFE3-.LFB3
 399 00e7 01       		.uleb128 0x1
ARM GAS  /tmp/ccaih6BB.s 			page 8


 400 00e8 9C       		.byte	0x9c
 401 00e9 0B020000 		.4byte	0x20b
 402 00ed 09       		.uleb128 0x9
 403 00ee 70737000 		.ascii	"psp\000"
 404 00f2 01       		.byte	0x1
 405 00f3 0601     		.2byte	0x106
 406 00f5 53000000 		.4byte	0x53
 407 00f9 0A       		.uleb128 0xa
 408 00fa 72656700 		.ascii	"reg\000"
 409 00fe 01       		.byte	0x1
 410 00ff 0601     		.2byte	0x106
 411 0101 53000000 		.4byte	0x53
 412 0105 02       		.byte	0x2
 413 0106 0B       		.uleb128 0xb
 414 0107 18000000 		.4byte	.LBB2
 415 010b 2C000000 		.4byte	.LBE2-.LBB2
 416 010f 2E010000 		.4byte	0x12e
 417 0113 0C       		.uleb128 0xc
 418 0114 703100   		.ascii	"p1\000"
 419 0117 01       		.byte	0x1
 420 0118 2601     		.2byte	0x126
 421 011a 0B020000 		.4byte	0x20b
 422 011e 00000000 		.4byte	.LLST0
 423 0122 09       		.uleb128 0x9
 424 0123 703200   		.ascii	"p2\000"
 425 0126 01       		.byte	0x1
 426 0127 2601     		.2byte	0x126
 427 0129 0B020000 		.4byte	0x20b
 428 012d 00       		.byte	0
 429 012e 0B       		.uleb128 0xb
 430 012f 44000000 		.4byte	.LBB3
 431 0133 26000000 		.4byte	.LBE3-.LBB3
 432 0137 56010000 		.4byte	0x156
 433 013b 0C       		.uleb128 0xc
 434 013c 703100   		.ascii	"p1\000"
 435 013f 01       		.byte	0x1
 436 0140 2901     		.2byte	0x129
 437 0142 0B020000 		.4byte	0x20b
 438 0146 22000000 		.4byte	.LLST1
 439 014a 09       		.uleb128 0x9
 440 014b 703200   		.ascii	"p2\000"
 441 014e 01       		.byte	0x1
 442 014f 2901     		.2byte	0x129
 443 0151 0B020000 		.4byte	0x20b
 444 0155 00       		.byte	0
 445 0156 0B       		.uleb128 0xb
 446 0157 6E000000 		.4byte	.LBB4
 447 015b 32000000 		.4byte	.LBE4-.LBB4
 448 015f 82010000 		.4byte	0x182
 449 0163 0C       		.uleb128 0xc
 450 0164 747000   		.ascii	"tp\000"
 451 0167 01       		.byte	0x1
 452 0168 3401     		.2byte	0x134
 453 016a 0B020000 		.4byte	0x20b
 454 016e 44000000 		.4byte	.LLST2
 455 0172 0C       		.uleb128 0xc
 456 0173 647000   		.ascii	"dp\000"
ARM GAS  /tmp/ccaih6BB.s 			page 9


 457 0176 01       		.byte	0x1
 458 0177 3401     		.2byte	0x134
 459 0179 0B020000 		.4byte	0x20b
 460 017d 44000000 		.4byte	.LLST2
 461 0181 00       		.byte	0
 462 0182 0B       		.uleb128 0xb
 463 0183 A0000000 		.4byte	.LBB5
 464 0187 2A000000 		.4byte	.LBE5-.LBB5
 465 018b AA010000 		.4byte	0x1aa
 466 018f 0C       		.uleb128 0xc
 467 0190 703100   		.ascii	"p1\000"
 468 0193 01       		.byte	0x1
 469 0194 3F01     		.2byte	0x13f
 470 0196 0B020000 		.4byte	0x20b
 471 019a 66000000 		.4byte	.LLST4
 472 019e 09       		.uleb128 0x9
 473 019f 703200   		.ascii	"p2\000"
 474 01a2 01       		.byte	0x1
 475 01a3 3F01     		.2byte	0x13f
 476 01a5 0B020000 		.4byte	0x20b
 477 01a9 00       		.byte	0
 478 01aa 0B       		.uleb128 0xb
 479 01ab CE000000 		.4byte	.LBB6
 480 01af 2C000000 		.4byte	.LBE6-.LBB6
 481 01b3 C8010000 		.4byte	0x1c8
 482 01b7 0C       		.uleb128 0xc
 483 01b8 66707000 		.ascii	"fpp\000"
 484 01bc 01       		.byte	0x1
 485 01bd 4801     		.2byte	0x148
 486 01bf 93000000 		.4byte	0x93
 487 01c3 88000000 		.4byte	.LLST5
 488 01c7 00       		.byte	0
 489 01c8 0B       		.uleb128 0xb
 490 01c9 FE000000 		.4byte	.LBB7
 491 01cd 2C000000 		.4byte	.LBE7-.LBB7
 492 01d1 E6010000 		.4byte	0x1e6
 493 01d5 0C       		.uleb128 0xc
 494 01d6 66707000 		.ascii	"fpp\000"
 495 01da 01       		.byte	0x1
 496 01db 5601     		.2byte	0x156
 497 01dd 93000000 		.4byte	0x93
 498 01e1 B5000000 		.4byte	.LLST6
 499 01e5 00       		.byte	0
 500 01e6 0D       		.uleb128 0xd
 501 01e7 6E000000 		.4byte	.LVL9
 502 01eb A4000000 		.4byte	0xa4
 503 01ef 0D       		.uleb128 0xd
 504 01f0 CE000000 		.4byte	.LVL16
 505 01f4 B5000000 		.4byte	0xb5
 506 01f8 0D       		.uleb128 0xd
 507 01f9 FE000000 		.4byte	.LVL21
 508 01fd A0020000 		.4byte	0x2a0
 509 0201 0D       		.uleb128 0xd
 510 0202 2E010000 		.4byte	.LVL26
 511 0206 C6000000 		.4byte	0xc6
 512 020a 00       		.byte	0
 513 020b 05       		.uleb128 0x5
ARM GAS  /tmp/ccaih6BB.s 			page 10


 514 020c 04       		.byte	0x4
 515 020d 53000000 		.4byte	0x53
 516 0211 0E       		.uleb128 0xe
 517 0212 DA010000 		.4byte	.LASF16
 518 0216 01       		.byte	0x1
 519 0217 84       		.byte	0x84
 520 0218 53000000 		.4byte	0x53
 521 021c 0E       		.uleb128 0xe
 522 021d 90020000 		.4byte	.LASF17
 523 0221 01       		.byte	0x1
 524 0222 8C       		.byte	0x8c
 525 0223 53000000 		.4byte	0x53
 526 0227 0E       		.uleb128 0xe
 527 0228 23000000 		.4byte	.LASF18
 528 022c 01       		.byte	0x1
 529 022d 93       		.byte	0x93
 530 022e 53000000 		.4byte	0x53
 531 0232 0E       		.uleb128 0xe
 532 0233 67020000 		.4byte	.LASF19
 533 0237 01       		.byte	0x1
 534 0238 9A       		.byte	0x9a
 535 0239 53000000 		.4byte	0x53
 536 023d 0E       		.uleb128 0xe
 537 023e B5010000 		.4byte	.LASF20
 538 0242 01       		.byte	0x1
 539 0243 A0       		.byte	0xa0
 540 0244 53000000 		.4byte	0x53
 541 0248 0E       		.uleb128 0xe
 542 0249 55020000 		.4byte	.LASF21
 543 024d 01       		.byte	0x1
 544 024e A6       		.byte	0xa6
 545 024f 53000000 		.4byte	0x53
 546 0253 0E       		.uleb128 0xe
 547 0254 0B000000 		.4byte	.LASF22
 548 0258 01       		.byte	0x1
 549 0259 AC       		.byte	0xac
 550 025a 53000000 		.4byte	0x53
 551 025e 0E       		.uleb128 0xe
 552 025f 00000000 		.4byte	.LASF23
 553 0263 01       		.byte	0x1
 554 0264 B2       		.byte	0xb2
 555 0265 53000000 		.4byte	0x53
 556 0269 0E       		.uleb128 0xe
 557 026a BF000000 		.4byte	.LASF24
 558 026e 01       		.byte	0x1
 559 026f B8       		.byte	0xb8
 560 0270 53000000 		.4byte	0x53
 561 0274 0E       		.uleb128 0xe
 562 0275 7D020000 		.4byte	.LASF25
 563 0279 01       		.byte	0x1
 564 027a BE       		.byte	0xbe
 565 027b 81000000 		.4byte	0x81
 566 027f 0E       		.uleb128 0xe
 567 0280 C8000000 		.4byte	.LASF26
 568 0284 01       		.byte	0x1
 569 0285 C4       		.byte	0xc4
 570 0286 81000000 		.4byte	0x81
ARM GAS  /tmp/ccaih6BB.s 			page 11


 571 028a 0E       		.uleb128 0xe
 572 028b AC000000 		.4byte	.LASF27
 573 028f 01       		.byte	0x1
 574 0290 CA       		.byte	0xca
 575 0291 81000000 		.4byte	0x81
 576 0295 0E       		.uleb128 0xe
 577 0296 12000000 		.4byte	.LASF28
 578 029a 01       		.byte	0x1
 579 029b D0       		.byte	0xd0
 580 029c 81000000 		.4byte	0x81
 581 02a0 0F       		.uleb128 0xf
 582 02a1 84010000 		.4byte	.LASF33
 583 02a5 01       		.byte	0x1
 584 02a6 D7       		.byte	0xd7
 585 02a7 00       		.byte	0
 586              		.section	.debug_abbrev,"",%progbits
 587              	.Ldebug_abbrev0:
 588 0000 01       		.uleb128 0x1
 589 0001 11       		.uleb128 0x11
 590 0002 01       		.byte	0x1
 591 0003 25       		.uleb128 0x25
 592 0004 0E       		.uleb128 0xe
 593 0005 13       		.uleb128 0x13
 594 0006 0B       		.uleb128 0xb
 595 0007 03       		.uleb128 0x3
 596 0008 0E       		.uleb128 0xe
 597 0009 1B       		.uleb128 0x1b
 598 000a 0E       		.uleb128 0xe
 599 000b 55       		.uleb128 0x55
 600 000c 17       		.uleb128 0x17
 601 000d 11       		.uleb128 0x11
 602 000e 01       		.uleb128 0x1
 603 000f 10       		.uleb128 0x10
 604 0010 17       		.uleb128 0x17
 605 0011 00       		.byte	0
 606 0012 00       		.byte	0
 607 0013 02       		.uleb128 0x2
 608 0014 24       		.uleb128 0x24
 609 0015 00       		.byte	0
 610 0016 0B       		.uleb128 0xb
 611 0017 0B       		.uleb128 0xb
 612 0018 3E       		.uleb128 0x3e
 613 0019 0B       		.uleb128 0xb
 614 001a 03       		.uleb128 0x3
 615 001b 0E       		.uleb128 0xe
 616 001c 00       		.byte	0
 617 001d 00       		.byte	0
 618 001e 03       		.uleb128 0x3
 619 001f 16       		.uleb128 0x16
 620 0020 00       		.byte	0
 621 0021 03       		.uleb128 0x3
 622 0022 0E       		.uleb128 0xe
 623 0023 3A       		.uleb128 0x3a
 624 0024 0B       		.uleb128 0xb
 625 0025 3B       		.uleb128 0x3b
 626 0026 0B       		.uleb128 0xb
 627 0027 49       		.uleb128 0x49
ARM GAS  /tmp/ccaih6BB.s 			page 12


 628 0028 13       		.uleb128 0x13
 629 0029 00       		.byte	0
 630 002a 00       		.byte	0
 631 002b 04       		.uleb128 0x4
 632 002c 24       		.uleb128 0x24
 633 002d 00       		.byte	0
 634 002e 0B       		.uleb128 0xb
 635 002f 0B       		.uleb128 0xb
 636 0030 3E       		.uleb128 0x3e
 637 0031 0B       		.uleb128 0xb
 638 0032 03       		.uleb128 0x3
 639 0033 08       		.uleb128 0x8
 640 0034 00       		.byte	0
 641 0035 00       		.byte	0
 642 0036 05       		.uleb128 0x5
 643 0037 0F       		.uleb128 0xf
 644 0038 00       		.byte	0
 645 0039 0B       		.uleb128 0xb
 646 003a 0B       		.uleb128 0xb
 647 003b 49       		.uleb128 0x49
 648 003c 13       		.uleb128 0x13
 649 003d 00       		.byte	0
 650 003e 00       		.byte	0
 651 003f 06       		.uleb128 0x6
 652 0040 15       		.uleb128 0x15
 653 0041 00       		.byte	0
 654 0042 27       		.uleb128 0x27
 655 0043 19       		.uleb128 0x19
 656 0044 00       		.byte	0
 657 0045 00       		.byte	0
 658 0046 07       		.uleb128 0x7
 659 0047 2E       		.uleb128 0x2e
 660 0048 00       		.byte	0
 661 0049 3F       		.uleb128 0x3f
 662 004a 19       		.uleb128 0x19
 663 004b 03       		.uleb128 0x3
 664 004c 0E       		.uleb128 0xe
 665 004d 3A       		.uleb128 0x3a
 666 004e 0B       		.uleb128 0xb
 667 004f 3B       		.uleb128 0x3b
 668 0050 0B       		.uleb128 0xb
 669 0051 27       		.uleb128 0x27
 670 0052 19       		.uleb128 0x19
 671 0053 11       		.uleb128 0x11
 672 0054 01       		.uleb128 0x1
 673 0055 12       		.uleb128 0x12
 674 0056 06       		.uleb128 0x6
 675 0057 40       		.uleb128 0x40
 676 0058 18       		.uleb128 0x18
 677 0059 9742     		.uleb128 0x2117
 678 005b 19       		.uleb128 0x19
 679 005c 00       		.byte	0
 680 005d 00       		.byte	0
 681 005e 08       		.uleb128 0x8
 682 005f 2E       		.uleb128 0x2e
 683 0060 01       		.byte	0x1
 684 0061 3F       		.uleb128 0x3f
ARM GAS  /tmp/ccaih6BB.s 			page 13


 685 0062 19       		.uleb128 0x19
 686 0063 03       		.uleb128 0x3
 687 0064 0E       		.uleb128 0xe
 688 0065 3A       		.uleb128 0x3a
 689 0066 0B       		.uleb128 0xb
 690 0067 3B       		.uleb128 0x3b
 691 0068 05       		.uleb128 0x5
 692 0069 27       		.uleb128 0x27
 693 006a 19       		.uleb128 0x19
 694 006b 11       		.uleb128 0x11
 695 006c 01       		.uleb128 0x1
 696 006d 12       		.uleb128 0x12
 697 006e 06       		.uleb128 0x6
 698 006f 40       		.uleb128 0x40
 699 0070 18       		.uleb128 0x18
 700 0071 9642     		.uleb128 0x2116
 701 0073 19       		.uleb128 0x19
 702 0074 01       		.uleb128 0x1
 703 0075 13       		.uleb128 0x13
 704 0076 00       		.byte	0
 705 0077 00       		.byte	0
 706 0078 09       		.uleb128 0x9
 707 0079 34       		.uleb128 0x34
 708 007a 00       		.byte	0
 709 007b 03       		.uleb128 0x3
 710 007c 08       		.uleb128 0x8
 711 007d 3A       		.uleb128 0x3a
 712 007e 0B       		.uleb128 0xb
 713 007f 3B       		.uleb128 0x3b
 714 0080 05       		.uleb128 0x5
 715 0081 49       		.uleb128 0x49
 716 0082 13       		.uleb128 0x13
 717 0083 00       		.byte	0
 718 0084 00       		.byte	0
 719 0085 0A       		.uleb128 0xa
 720 0086 34       		.uleb128 0x34
 721 0087 00       		.byte	0
 722 0088 03       		.uleb128 0x3
 723 0089 08       		.uleb128 0x8
 724 008a 3A       		.uleb128 0x3a
 725 008b 0B       		.uleb128 0xb
 726 008c 3B       		.uleb128 0x3b
 727 008d 05       		.uleb128 0x5
 728 008e 49       		.uleb128 0x49
 729 008f 13       		.uleb128 0x13
 730 0090 1C       		.uleb128 0x1c
 731 0091 0B       		.uleb128 0xb
 732 0092 00       		.byte	0
 733 0093 00       		.byte	0
 734 0094 0B       		.uleb128 0xb
 735 0095 0B       		.uleb128 0xb
 736 0096 01       		.byte	0x1
 737 0097 11       		.uleb128 0x11
 738 0098 01       		.uleb128 0x1
 739 0099 12       		.uleb128 0x12
 740 009a 06       		.uleb128 0x6
 741 009b 01       		.uleb128 0x1
ARM GAS  /tmp/ccaih6BB.s 			page 14


 742 009c 13       		.uleb128 0x13
 743 009d 00       		.byte	0
 744 009e 00       		.byte	0
 745 009f 0C       		.uleb128 0xc
 746 00a0 34       		.uleb128 0x34
 747 00a1 00       		.byte	0
 748 00a2 03       		.uleb128 0x3
 749 00a3 08       		.uleb128 0x8
 750 00a4 3A       		.uleb128 0x3a
 751 00a5 0B       		.uleb128 0xb
 752 00a6 3B       		.uleb128 0x3b
 753 00a7 05       		.uleb128 0x5
 754 00a8 49       		.uleb128 0x49
 755 00a9 13       		.uleb128 0x13
 756 00aa 02       		.uleb128 0x2
 757 00ab 17       		.uleb128 0x17
 758 00ac 00       		.byte	0
 759 00ad 00       		.byte	0
 760 00ae 0D       		.uleb128 0xd
 761 00af 898201   		.uleb128 0x4109
 762 00b2 00       		.byte	0
 763 00b3 11       		.uleb128 0x11
 764 00b4 01       		.uleb128 0x1
 765 00b5 31       		.uleb128 0x31
 766 00b6 13       		.uleb128 0x13
 767 00b7 00       		.byte	0
 768 00b8 00       		.byte	0
 769 00b9 0E       		.uleb128 0xe
 770 00ba 34       		.uleb128 0x34
 771 00bb 00       		.byte	0
 772 00bc 03       		.uleb128 0x3
 773 00bd 0E       		.uleb128 0xe
 774 00be 3A       		.uleb128 0x3a
 775 00bf 0B       		.uleb128 0xb
 776 00c0 3B       		.uleb128 0x3b
 777 00c1 0B       		.uleb128 0xb
 778 00c2 49       		.uleb128 0x49
 779 00c3 13       		.uleb128 0x13
 780 00c4 3F       		.uleb128 0x3f
 781 00c5 19       		.uleb128 0x19
 782 00c6 3C       		.uleb128 0x3c
 783 00c7 19       		.uleb128 0x19
 784 00c8 00       		.byte	0
 785 00c9 00       		.byte	0
 786 00ca 0F       		.uleb128 0xf
 787 00cb 2E       		.uleb128 0x2e
 788 00cc 00       		.byte	0
 789 00cd 3F       		.uleb128 0x3f
 790 00ce 19       		.uleb128 0x19
 791 00cf 03       		.uleb128 0x3
 792 00d0 0E       		.uleb128 0xe
 793 00d1 3A       		.uleb128 0x3a
 794 00d2 0B       		.uleb128 0xb
 795 00d3 3B       		.uleb128 0x3b
 796 00d4 0B       		.uleb128 0xb
 797 00d5 27       		.uleb128 0x27
 798 00d6 19       		.uleb128 0x19
ARM GAS  /tmp/ccaih6BB.s 			page 15


 799 00d7 3C       		.uleb128 0x3c
 800 00d8 19       		.uleb128 0x19
 801 00d9 00       		.byte	0
 802 00da 00       		.byte	0
 803 00db 00       		.byte	0
 804              		.section	.debug_loc,"",%progbits
 805              	.Ldebug_loc0:
 806              	.LLST0:
 807 0000 3C000000 		.4byte	.LVL3
 808 0004 40000000 		.4byte	.LVL4
 809 0008 0300     		.2byte	0x3
 810 000a 73       		.byte	0x73
 811 000b 08       		.sleb128 8
 812 000c 9F       		.byte	0x9f
 813 000d 40000000 		.4byte	.LVL4
 814 0011 44000000 		.4byte	.LVL5
 815 0015 0300     		.2byte	0x3
 816 0017 73       		.byte	0x73
 817 0018 04       		.sleb128 4
 818 0019 9F       		.byte	0x9f
 819 001a 00000000 		.4byte	0
 820 001e 00000000 		.4byte	0
 821              	.LLST1:
 822 0022 62000000 		.4byte	.LVL6
 823 0026 66000000 		.4byte	.LVL7
 824 002a 0300     		.2byte	0x3
 825 002c 73       		.byte	0x73
 826 002d 08       		.sleb128 8
 827 002e 9F       		.byte	0x9f
 828 002f 66000000 		.4byte	.LVL7
 829 0033 6A000000 		.4byte	.LVL8
 830 0037 0300     		.2byte	0x3
 831 0039 73       		.byte	0x73
 832 003a 04       		.sleb128 4
 833 003b 9F       		.byte	0x9f
 834 003c 00000000 		.4byte	0
 835 0040 00000000 		.4byte	0
 836              	.LLST2:
 837 0044 96000000 		.4byte	.LVL10
 838 0048 9C000000 		.4byte	.LVL11
 839 004c 0300     		.2byte	0x3
 840 004e 73       		.byte	0x73
 841 004f 00       		.sleb128 0
 842 0050 9F       		.byte	0x9f
 843 0051 9C000000 		.4byte	.LVL11
 844 0055 A0000000 		.4byte	.LVL12
 845 0059 0300     		.2byte	0x3
 846 005b 73       		.byte	0x73
 847 005c 00       		.sleb128 0
 848 005d 9F       		.byte	0x9f
 849 005e 00000000 		.4byte	0
 850 0062 00000000 		.4byte	0
 851              	.LLST4:
 852 0066 C2000000 		.4byte	.LVL13
 853 006a C6000000 		.4byte	.LVL14
 854 006e 0300     		.2byte	0x3
 855 0070 73       		.byte	0x73
ARM GAS  /tmp/ccaih6BB.s 			page 16


 856 0071 08       		.sleb128 8
 857 0072 9F       		.byte	0x9f
 858 0073 C6000000 		.4byte	.LVL14
 859 0077 CA000000 		.4byte	.LVL15
 860 007b 0300     		.2byte	0x3
 861 007d 73       		.byte	0x73
 862 007e 04       		.sleb128 4
 863 007f 9F       		.byte	0x9f
 864 0080 00000000 		.4byte	0
 865 0084 00000000 		.4byte	0
 866              	.LLST5:
 867 0088 EE000000 		.4byte	.LVL17
 868 008c F4000000 		.4byte	.LVL18
 869 0090 0300     		.2byte	0x3
 870 0092 75       		.byte	0x75
 871 0093 04       		.sleb128 4
 872 0094 9F       		.byte	0x9f
 873 0095 F4000000 		.4byte	.LVL18
 874 0099 F6000000 		.4byte	.LVL19
 875 009d 0100     		.2byte	0x1
 876 009f 55       		.byte	0x55
 877 00a0 F6000000 		.4byte	.LVL19
 878 00a4 FA000000 		.4byte	.LVL20
 879 00a8 0300     		.2byte	0x3
 880 00aa 75       		.byte	0x75
 881 00ab 04       		.sleb128 4
 882 00ac 9F       		.byte	0x9f
 883 00ad 00000000 		.4byte	0
 884 00b1 00000000 		.4byte	0
 885              	.LLST6:
 886 00b5 1E010000 		.4byte	.LVL22
 887 00b9 24010000 		.4byte	.LVL23
 888 00bd 0300     		.2byte	0x3
 889 00bf 75       		.byte	0x75
 890 00c0 04       		.sleb128 4
 891 00c1 9F       		.byte	0x9f
 892 00c2 24010000 		.4byte	.LVL23
 893 00c6 26010000 		.4byte	.LVL24
 894 00ca 0100     		.2byte	0x1
 895 00cc 55       		.byte	0x55
 896 00cd 26010000 		.4byte	.LVL24
 897 00d1 2A010000 		.4byte	.LVL25
 898 00d5 0300     		.2byte	0x3
 899 00d7 75       		.byte	0x75
 900 00d8 04       		.sleb128 4
 901 00d9 9F       		.byte	0x9f
 902 00da 00000000 		.4byte	0
 903 00de 00000000 		.4byte	0
 904              		.section	.debug_aranges,"",%progbits
 905 0000 34000000 		.4byte	0x34
 906 0004 0200     		.2byte	0x2
 907 0006 00000000 		.4byte	.Ldebug_info0
 908 000a 04       		.byte	0x4
 909 000b 00       		.byte	0
 910 000c 0000     		.2byte	0
 911 000e 0000     		.2byte	0
 912 0010 00000000 		.4byte	.LFB0
ARM GAS  /tmp/ccaih6BB.s 			page 17


 913 0014 02000000 		.4byte	.LFE0-.LFB0
 914 0018 00000000 		.4byte	.LFB1
 915 001c 02000000 		.4byte	.LFE1-.LFB1
 916 0020 00000000 		.4byte	.LFB2
 917 0024 02000000 		.4byte	.LFE2-.LFB2
 918 0028 00000000 		.4byte	.LFB3
 919 002c 34010000 		.4byte	.LFE3-.LFB3
 920 0030 00000000 		.4byte	0
 921 0034 00000000 		.4byte	0
 922              		.section	.debug_ranges,"",%progbits
 923              	.Ldebug_ranges0:
 924 0000 00000000 		.4byte	.LFB0
 925 0004 02000000 		.4byte	.LFE0
 926 0008 00000000 		.4byte	.LFB1
 927 000c 02000000 		.4byte	.LFE1
 928 0010 00000000 		.4byte	.LFB2
 929 0014 02000000 		.4byte	.LFE2
 930 0018 00000000 		.4byte	.LFB3
 931 001c 34010000 		.4byte	.LFE3
 932 0020 00000000 		.4byte	0
 933 0024 00000000 		.4byte	0
 934              		.section	.debug_line,"",%progbits
 935              	.Ldebug_line0:
 936 0000 F0000000 		.section	.debug_str,"MS",%progbits,1
 936      02007700 
 936      00000201 
 936      FB0E0D00 
 936      01010101 
 937              	.LASF23:
 938 0000 5F627373 		.ascii	"_bss_start\000"
 938      5F737461 
 938      727400
 939              	.LASF22:
 940 000b 5F656461 		.ascii	"_edata\000"
 940      746100
 941              	.LASF28:
 942 0012 5F5F6669 		.ascii	"__fini_array_end\000"
 942      6E695F61 
 942      72726179 
 942      5F656E64 
 942      00
 943              	.LASF18:
 944 0023 5F5F7072 		.ascii	"__process_stack_base__\000"
 944      6F636573 
 944      735F7374 
 944      61636B5F 
 944      62617365 
 945              	.LASF12:
 946 003a 66756E63 		.ascii	"funcpp_t\000"
 946      70705F74 
 946      00
 947              	.LASF15:
 948 0043 5F646566 		.ascii	"_default_exit\000"
 948      61756C74 
 948      5F657869 
 948      7400
 949              	.LASF1:
ARM GAS  /tmp/ccaih6BB.s 			page 18


 950 0051 756E7369 		.ascii	"unsigned char\000"
 950      676E6564 
 950      20636861 
 950      7200
 951              	.LASF14:
 952 005f 5F5F6C61 		.ascii	"__late_init\000"
 952      74655F69 
 952      6E697400 
 953              	.LASF30:
 954 006b 2E2E2F2E 		.ascii	"../../os/ports/GCC/ARMCMx/crt0.c\000"
 954      2E2F6F73 
 954      2F706F72 
 954      74732F47 
 954      43432F41 
 955              	.LASF32:
 956 008c 52657365 		.ascii	"ResetHandler\000"
 956      7448616E 
 956      646C6572 
 956      00
 957              	.LASF3:
 958 0099 73686F72 		.ascii	"short unsigned int\000"
 958      7420756E 
 958      7369676E 
 958      65642069 
 958      6E7400
 959              	.LASF27:
 960 00ac 5F5F6669 		.ascii	"__fini_array_start\000"
 960      6E695F61 
 960      72726179 
 960      5F737461 
 960      727400
 961              	.LASF24:
 962 00bf 5F627373 		.ascii	"_bss_end\000"
 962      5F656E64 
 962      00
 963              	.LASF26:
 964 00c8 5F5F696E 		.ascii	"__init_array_end\000"
 964      69745F61 
 964      72726179 
 964      5F656E64 
 964      00
 965              	.LASF29:
 966 00d9 474E5520 		.ascii	"GNU C 4.8.1 -mcpu=cortex-m3 -mno-thumb-interwork -m"
 966      4320342E 
 966      382E3120 
 966      2D6D6370 
 966      753D636F 
 967 010c 7468756D 		.ascii	"thumb -mfloat-abi=soft -ggdb -O2 -fomit-frame-point"
 967      62202D6D 
 967      666C6F61 
 967      742D6162 
 967      693D736F 
 968 013f 6572202D 		.ascii	"er -ffunction-sections -fdata-sections -fno-common\000"
 968      6666756E 
 968      6374696F 
 968      6E2D7365 
 968      6374696F 
ARM GAS  /tmp/ccaih6BB.s 			page 19


 969              	.LASF7:
 970 0172 6C6F6E67 		.ascii	"long unsigned int\000"
 970      20756E73 
 970      69676E65 
 970      6420696E 
 970      7400
 971              	.LASF33:
 972 0184 6D61696E 		.ascii	"main\000"
 972      00
 973              	.LASF10:
 974 0189 756E7369 		.ascii	"unsigned int\000"
 974      676E6564 
 974      20696E74 
 974      00
 975              	.LASF9:
 976 0196 6C6F6E67 		.ascii	"long long unsigned int\000"
 976      206C6F6E 
 976      6720756E 
 976      7369676E 
 976      65642069 
 977              	.LASF5:
 978 01ad 75696E74 		.ascii	"uint8_t\000"
 978      385F7400 
 979              	.LASF20:
 980 01b5 5F746578 		.ascii	"_textdata\000"
 980      74646174 
 980      6100
 981              	.LASF13:
 982 01bf 5F5F6561 		.ascii	"__early_init\000"
 982      726C795F 
 982      696E6974 
 982      00
 983              	.LASF8:
 984 01cc 6C6F6E67 		.ascii	"long long int\000"
 984      206C6F6E 
 984      6720696E 
 984      7400
 985              	.LASF16:
 986 01da 5F5F6D61 		.ascii	"__main_stack_base__\000"
 986      696E5F73 
 986      7461636B 
 986      5F626173 
 986      655F5F00 
 987              	.LASF2:
 988 01ee 73686F72 		.ascii	"short int\000"
 988      7420696E 
 988      7400
 989              	.LASF31:
 990 01f8 2F686F6D 		.ascii	"/home/daniofb/Programming/ChibiOS-RT/demos/ARMCM3-L"
 990      652F6461 
 990      6E696F66 
 990      622F5072 
 990      6F677261 
 991 022b 50433137 		.ascii	"PC1768-AKAIKABA\000"
 991      36382D41 
 991      4B41494B 
 991      41424100 
ARM GAS  /tmp/ccaih6BB.s 			page 20


 992              	.LASF11:
 993 023b 66756E63 		.ascii	"funcp_t\000"
 993      705F7400 
 994              	.LASF6:
 995 0243 75696E74 		.ascii	"uint32_t\000"
 995      33325F74 
 995      00
 996              	.LASF4:
 997 024c 6C6F6E67 		.ascii	"long int\000"
 997      20696E74 
 997      00
 998              	.LASF21:
 999 0255 5F646174 		.ascii	"_data\000"
 999      6100
 1000              	.LASF0:
 1001 025b 7369676E 		.ascii	"signed char\000"
 1001      65642063 
 1001      68617200 
 1002              	.LASF19:
 1003 0267 5F5F7072 		.ascii	"__process_stack_end__\000"
 1003      6F636573 
 1003      735F7374 
 1003      61636B5F 
 1003      656E645F 
 1004              	.LASF25:
 1005 027d 5F5F696E 		.ascii	"__init_array_start\000"
 1005      69745F61 
 1005      72726179 
 1005      5F737461 
 1005      727400
 1006              	.LASF17:
 1007 0290 5F5F6D61 		.ascii	"__main_stack_end__\000"
 1007      696E5F73 
 1007      7461636B 
 1007      5F656E64 
 1007      5F5F00
 1008              		.ident	"GCC: (GNU) 4.8.1"
ARM GAS  /tmp/ccaih6BB.s 			page 21


DEFINED SYMBOLS
                            *ABS*:0000000000000000 crt0.c
     /tmp/ccaih6BB.s:19     .text.__early_init:0000000000000000 $t
     /tmp/ccaih6BB.s:24     .text.__early_init:0000000000000000 __early_init
     /tmp/ccaih6BB.s:37     .text.__late_init:0000000000000000 $t
     /tmp/ccaih6BB.s:42     .text.__late_init:0000000000000000 __late_init
     /tmp/ccaih6BB.s:54     .text._default_exit:0000000000000000 $t
     /tmp/ccaih6BB.s:59     .text._default_exit:0000000000000000 _default_exit
     /tmp/ccaih6BB.s:72     .text.ResetHandler:0000000000000000 $t
     /tmp/ccaih6BB.s:77     .text.ResetHandler:0000000000000000 ResetHandler
     /tmp/ccaih6BB.s:281    .text.ResetHandler:0000000000000130 $d
                     .debug_frame:0000000000000010 $d

UNDEFINED SYMBOLS
__process_stack_end__
__main_stack_base__
__main_stack_end__
__process_stack_base__
_data
_edata
_textdata
_bss_start
_bss_end
__init_array_start
__init_array_end
main
__fini_array_start
__fini_array_end
